
Template_FSBL_XIP_ExtMemLoader.elf:     file format elf32-littlearm

Sections:
Idx Name          Size      VMA       LMA       File off  Algn
  0 .isr_vector   000001fc  34180404  34180404  00000404  2**2
                  CONTENTS, ALLOC, LOAD, DATA
  1 .init_array   00000008  34180600  34180600  00000600  2**2
                  CONTENTS, ALLOC, LOAD, READONLY, DATA
  2 .fini_array   00000004  34180608  34180608  00000608  2**2
                  CONTENTS, ALLOC, LOAD, READONLY, DATA
  3 .data         000000bc  3418060c  3418060c  0000060c  2**2
                  CONTENTS, ALLOC, LOAD, DATA
  4 .gnu.sgstubs  00000020  341806e0  341806e0  000006e0  2**5
                  CONTENTS, ALLOC, LOAD, READONLY, CODE
  5 .bss          000003b8  34180700  34180700  00000700  2**2
                  ALLOC
  6 .text         00008e40  34180ab8  34180ab8  00000ab8  2**2
                  CONTENTS, ALLOC, LOAD, READONLY, CODE
  7 .stm32_device_info 000000c8  341898f8  341898f8  0000a8f8  2**2
                  CONTENTS, ALLOC, LOAD, READONLY, DATA
  8 .rodata       00000048  341899c0  341899c0  000099c0  2**2
                  CONTENTS, ALLOC, LOAD, READONLY, DATA
  9 ._user_heap_stack 00000408  34189a08  34189a08  00009a08  2**0
                  ALLOC
 10 .ARM.attributes 0000003a  00000000  00000000  0000a9c0  2**0
                  CONTENTS, READONLY
 11 .debug_info   0002705f  00000000  00000000  0000a9fa  2**0
                  CONTENTS, READONLY, DEBUGGING, OCTETS
 12 .debug_abbrev 00003440  00000000  00000000  00031a59  2**0
                  CONTENTS, READONLY, DEBUGGING, OCTETS
 13 .debug_aranges 000011f8  00000000  00000000  00034e99  2**0
                  CONTENTS, READONLY, DEBUGGING, OCTETS
 14 .debug_rnglists 00000f4d  00000000  00000000  00036091  2**0
                  CONTENTS, READONLY, DEBUGGING, OCTETS
 15 .debug_line   00019784  00000000  00000000  00036fde  2**0
                  CONTENTS, READONLY, DEBUGGING, OCTETS
 16 .debug_str    0000bc65  00000000  00000000  00050762  2**0
                  CONTENTS, READONLY, DEBUGGING, OCTETS
 17 .comment      00000043  00000000  00000000  0005c3c7  2**0
                  CONTENTS, READONLY
 18 .debug_frame  00002f10  00000000  00000000  0005c40c  2**2
                  CONTENTS, READONLY, DEBUGGING, OCTETS
 19 .debug_loclists 0000c125  00000000  00000000  0005f31c  2**0
                  CONTENTS, READONLY, DEBUGGING, OCTETS

Disassembly of section .gnu.sgstubs:

341806e0 <SECURE_SystemCoreClockUpdate>:
341806e0:	e97f e97f 	sg
341806e4:	f000 bd5c 	b.w	341811a0 <__acle_se_SECURE_SystemCoreClockUpdate>
	...

Disassembly of section .text:

34180ab8 <__do_global_dtors_aux>:
34180ab8:	b510      	push	{r4, lr}
34180aba:	4c05      	ldr	r4, [pc, #20]	@ (34180ad0 <__do_global_dtors_aux+0x18>)
34180abc:	7823      	ldrb	r3, [r4, #0]
34180abe:	b933      	cbnz	r3, 34180ace <__do_global_dtors_aux+0x16>
34180ac0:	4b04      	ldr	r3, [pc, #16]	@ (34180ad4 <__do_global_dtors_aux+0x1c>)
34180ac2:	b113      	cbz	r3, 34180aca <__do_global_dtors_aux+0x12>
34180ac4:	4804      	ldr	r0, [pc, #16]	@ (34180ad8 <__do_global_dtors_aux+0x20>)
34180ac6:	f3af 8000 	nop.w
34180aca:	2301      	movs	r3, #1
34180acc:	7023      	strb	r3, [r4, #0]
34180ace:	bd10      	pop	{r4, pc}
34180ad0:	34180700 	.word	0x34180700
34180ad4:	00000000 	.word	0x00000000
34180ad8:	341898e0 	.word	0x341898e0

34180adc <frame_dummy>:
34180adc:	b508      	push	{r3, lr}
34180ade:	4b03      	ldr	r3, [pc, #12]	@ (34180aec <frame_dummy+0x10>)
34180ae0:	b11b      	cbz	r3, 34180aea <frame_dummy+0xe>
34180ae2:	4903      	ldr	r1, [pc, #12]	@ (34180af0 <frame_dummy+0x14>)
34180ae4:	4803      	ldr	r0, [pc, #12]	@ (34180af4 <frame_dummy+0x18>)
34180ae6:	f3af 8000 	nop.w
34180aea:	bd08      	pop	{r3, pc}
34180aec:	00000000 	.word	0x00000000
34180af0:	34180704 	.word	0x34180704
34180af4:	341898e0 	.word	0x341898e0

34180af8 <MX_EXTMEM_MANAGER_Init>:
/**
  * Init External memory manager
  * @retval None
  */
void MX_EXTMEM_MANAGER_Init(void)
{
34180af8:	b510      	push	{r4, lr}
  /* USER CODE BEGIN MX_EXTMEM_Init_PreTreatment */

  /* USER CODE END MX_EXTMEM_Init_PreTreatment */

  /* Initialization of the memory parameters */
  memset(extmem_list_config, 0x0, sizeof(extmem_list_config));
34180afa:	4c0a      	ldr	r4, [pc, #40]	@ (34180b24 <MX_EXTMEM_MANAGER_Init+0x2c>)
34180afc:	22ac      	movs	r2, #172	@ 0xac
34180afe:	2100      	movs	r1, #0
34180b00:	4620      	mov	r0, r4
34180b02:	f008 fe6f 	bl	341897e4 <memset>
  extmem_list_config[0].MemType = EXTMEM_NOR_SFDP;
  extmem_list_config[0].Handle = (void*)&hxspi2;
34180b06:	4b08      	ldr	r3, [pc, #32]	@ (34180b28 <MX_EXTMEM_MANAGER_Init+0x30>)
34180b08:	6063      	str	r3, [r4, #4]
  extmem_list_config[0].ConfigType = EXTMEM_LINK_CONFIG_8LINES,
34180b0a:	2303      	movs	r3, #3
34180b0c:	7223      	strb	r3, [r4, #8]


  EXTMEM_Init(EXTMEMORY_1, HAL_RCCEx_GetPeriphCLKFreq(RCC_PERIPHCLK_XSPI2));
34180b0e:	2000      	movs	r0, #0
34180b10:	f44f 0100 	mov.w	r1, #8388608	@ 0x800000
34180b14:	f005 ff56 	bl	341869c4 <HAL_RCCEx_GetPeriphCLKFreq>
34180b18:	4601      	mov	r1, r0
34180b1a:	2000      	movs	r0, #0
34180b1c:	f006 ff3e 	bl	3418799c <EXTMEM_Init>

  /* USER CODE BEGIN MX_EXTMEM_Init_PostTreatment */

  /* USER CODE END MX_EXTMEM_Init_PostTreatment */
}
34180b20:	bd10      	pop	{r4, pc}
34180b22:	bf00      	nop
34180b24:	34180618 	.word	0x34180618
34180b28:	3418071c 	.word	0x3418071c

34180b2c <Error_Handler>:
  * @retval None
  */
void Error_Handler(void)
{
  /* User may add here some code to deal with this error */
  while(1)
34180b2c:	e7fe      	b.n	34180b2c <Error_Handler>

34180b2e <SystemClock_Config>:
{
34180b2e:	b500      	push	{lr}
34180b30:	b0b7      	sub	sp, #220	@ 0xdc
   RCC_OscInitTypeDef RCC_OscInitStruct = {0};
34180b32:	2298      	movs	r2, #152	@ 0x98
34180b34:	2100      	movs	r1, #0
34180b36:	a810      	add	r0, sp, #64	@ 0x40
34180b38:	f008 fe54 	bl	341897e4 <memset>
  RCC_ClkInitTypeDef RCC_ClkInitStruct = {0};
34180b3c:	2240      	movs	r2, #64	@ 0x40
34180b3e:	2100      	movs	r1, #0
34180b40:	4668      	mov	r0, sp
34180b42:	f008 fe4f 	bl	341897e4 <memset>
  if (HAL_PWREx_ConfigSupply(PWR_EXTERNAL_SOURCE_SUPPLY) != HAL_OK)
34180b46:	2000      	movs	r0, #0
34180b48:	f000 fd5a 	bl	34181600 <HAL_PWREx_ConfigSupply>
34180b4c:	2800      	cmp	r0, #0
34180b4e:	d145      	bne.n	34180bdc <SystemClock_Config+0xae>
  HAL_RCC_GetClockConfig(&RCC_ClkInitStruct);
34180b50:	4668      	mov	r0, sp
34180b52:	f001 fd7f 	bl	34182654 <HAL_RCC_GetClockConfig>
  if ((RCC_ClkInitStruct.CPUCLKSource == RCC_CPUCLKSOURCE_IC1) ||
34180b56:	9b01      	ldr	r3, [sp, #4]
34180b58:	f5b3 3f40 	cmp.w	r3, #196608	@ 0x30000
34180b5c:	d040      	beq.n	34180be0 <SystemClock_Config+0xb2>
      (RCC_ClkInitStruct.SYSCLKSource == RCC_SYSCLKSOURCE_IC2_IC6_IC11))
34180b5e:	9b02      	ldr	r3, [sp, #8]
  if ((RCC_ClkInitStruct.CPUCLKSource == RCC_CPUCLKSOURCE_IC1) ||
34180b60:	f1b3 7f40 	cmp.w	r3, #50331648	@ 0x3000000
34180b64:	d03c      	beq.n	34180be0 <SystemClock_Config+0xb2>
  RCC_OscInitStruct.OscillatorType = RCC_OSCILLATORTYPE_HSI;
34180b66:	2202      	movs	r2, #2
34180b68:	9210      	str	r2, [sp, #64]	@ 0x40
  RCC_OscInitStruct.HSIState = RCC_HSI_ON;
34180b6a:	2308      	movs	r3, #8
34180b6c:	9313      	str	r3, [sp, #76]	@ 0x4c
  RCC_OscInitStruct.HSIDiv = RCC_HSI_DIV1;
34180b6e:	2300      	movs	r3, #0
34180b70:	9314      	str	r3, [sp, #80]	@ 0x50
  RCC_OscInitStruct.HSICalibrationValue = RCC_HSICALIBRATION_DEFAULT;
34180b72:	9315      	str	r3, [sp, #84]	@ 0x54
  RCC_OscInitStruct.PLL1.PLLState = RCC_PLL_ON;
34180b74:	921a      	str	r2, [sp, #104]	@ 0x68
  RCC_OscInitStruct.PLL1.PLLSource = RCC_PLLSOURCE_HSI;
34180b76:	931b      	str	r3, [sp, #108]	@ 0x6c
  RCC_OscInitStruct.PLL1.PLLM = 4;
34180b78:	2204      	movs	r2, #4
34180b7a:	921c      	str	r2, [sp, #112]	@ 0x70
  RCC_OscInitStruct.PLL1.PLLN = 75;
34180b7c:	224b      	movs	r2, #75	@ 0x4b
34180b7e:	921e      	str	r2, [sp, #120]	@ 0x78
  RCC_OscInitStruct.PLL1.PLLFractional = 0;
34180b80:	931d      	str	r3, [sp, #116]	@ 0x74
  RCC_OscInitStruct.PLL1.PLLP1 = 1;
34180b82:	2201      	movs	r2, #1
34180b84:	921f      	str	r2, [sp, #124]	@ 0x7c
  RCC_OscInitStruct.PLL1.PLLP2 = 1;
34180b86:	9220      	str	r2, [sp, #128]	@ 0x80
  RCC_OscInitStruct.PLL2.PLLState = RCC_PLL_NONE;
34180b88:	9321      	str	r3, [sp, #132]	@ 0x84
  RCC_OscInitStruct.PLL3.PLLState = RCC_PLL_NONE;
34180b8a:	9328      	str	r3, [sp, #160]	@ 0xa0
  RCC_OscInitStruct.PLL4.PLLState = RCC_PLL_NONE;
34180b8c:	932f      	str	r3, [sp, #188]	@ 0xbc
  if (HAL_RCC_OscConfig(&RCC_OscInitStruct) != HAL_OK)
34180b8e:	a810      	add	r0, sp, #64	@ 0x40
34180b90:	f000 ffd0 	bl	34181b34 <HAL_RCC_OscConfig>
34180b94:	2800      	cmp	r0, #0
34180b96:	d12f      	bne.n	34180bf8 <SystemClock_Config+0xca>
  RCC_ClkInitStruct.ClockType = RCC_CLOCKTYPE_CPUCLK|RCC_CLOCKTYPE_HCLK
34180b98:	237f      	movs	r3, #127	@ 0x7f
34180b9a:	9300      	str	r3, [sp, #0]
  RCC_ClkInitStruct.CPUCLKSource = RCC_CPUCLKSOURCE_IC1;
34180b9c:	f44f 3340 	mov.w	r3, #196608	@ 0x30000
34180ba0:	9301      	str	r3, [sp, #4]
  RCC_ClkInitStruct.SYSCLKSource = RCC_SYSCLKSOURCE_IC2_IC6_IC11;
34180ba2:	f04f 7340 	mov.w	r3, #50331648	@ 0x3000000
34180ba6:	9302      	str	r3, [sp, #8]
  RCC_ClkInitStruct.AHBCLKDivider = RCC_HCLK_DIV2;
34180ba8:	f44f 1380 	mov.w	r3, #1048576	@ 0x100000
34180bac:	9303      	str	r3, [sp, #12]
  RCC_ClkInitStruct.APB1CLKDivider = RCC_APB1_DIV1;
34180bae:	2300      	movs	r3, #0
34180bb0:	9304      	str	r3, [sp, #16]
  RCC_ClkInitStruct.APB2CLKDivider = RCC_APB2_DIV1;
34180bb2:	9305      	str	r3, [sp, #20]
  RCC_ClkInitStruct.APB4CLKDivider = RCC_APB4_DIV1;
34180bb4:	9306      	str	r3, [sp, #24]
  RCC_ClkInitStruct.APB5CLKDivider = RCC_APB5_DIV1;
34180bb6:	9307      	str	r3, [sp, #28]
  RCC_ClkInitStruct.IC1Selection.ClockSelection = RCC_ICCLKSOURCE_PLL1;
34180bb8:	9308      	str	r3, [sp, #32]
  RCC_ClkInitStruct.IC1Selection.ClockDivider = 2;
34180bba:	2202      	movs	r2, #2
34180bbc:	9209      	str	r2, [sp, #36]	@ 0x24
  RCC_ClkInitStruct.IC2Selection.ClockSelection = RCC_ICCLKSOURCE_PLL1;
34180bbe:	930a      	str	r3, [sp, #40]	@ 0x28
  RCC_ClkInitStruct.IC2Selection.ClockDivider = 3;
34180bc0:	2203      	movs	r2, #3
34180bc2:	920b      	str	r2, [sp, #44]	@ 0x2c
  RCC_ClkInitStruct.IC6Selection.ClockSelection = RCC_ICCLKSOURCE_PLL1;
34180bc4:	930c      	str	r3, [sp, #48]	@ 0x30
  RCC_ClkInitStruct.IC6Selection.ClockDivider = 4;
34180bc6:	2104      	movs	r1, #4
34180bc8:	910d      	str	r1, [sp, #52]	@ 0x34
  RCC_ClkInitStruct.IC11Selection.ClockSelection = RCC_ICCLKSOURCE_PLL1;
34180bca:	930e      	str	r3, [sp, #56]	@ 0x38
  RCC_ClkInitStruct.IC11Selection.ClockDivider = 3;
34180bcc:	920f      	str	r2, [sp, #60]	@ 0x3c
  if (HAL_RCC_ClockConfig(&RCC_ClkInitStruct) != HAL_OK)
34180bce:	4668      	mov	r0, sp
34180bd0:	f001 fb98 	bl	34182304 <HAL_RCC_ClockConfig>
34180bd4:	b990      	cbnz	r0, 34180bfc <SystemClock_Config+0xce>
}
34180bd6:	b037      	add	sp, #220	@ 0xdc
34180bd8:	f85d fb04 	ldr.w	pc, [sp], #4
    Error_Handler();
34180bdc:	f7ff ffa6 	bl	34180b2c <Error_Handler>
    RCC_ClkInitStruct.ClockType = (RCC_CLOCKTYPE_CPUCLK | RCC_CLOCKTYPE_SYSCLK);
34180be0:	2303      	movs	r3, #3
34180be2:	9300      	str	r3, [sp, #0]
    RCC_ClkInitStruct.CPUCLKSource = RCC_CPUCLKSOURCE_HSI;
34180be4:	2300      	movs	r3, #0
34180be6:	9301      	str	r3, [sp, #4]
    RCC_ClkInitStruct.SYSCLKSource = RCC_SYSCLKSOURCE_HSI;
34180be8:	9302      	str	r3, [sp, #8]
    if (HAL_RCC_ClockConfig(&RCC_ClkInitStruct) != HAL_OK)
34180bea:	4668      	mov	r0, sp
34180bec:	f001 fb8a 	bl	34182304 <HAL_RCC_ClockConfig>
34180bf0:	2800      	cmp	r0, #0
34180bf2:	d0b8      	beq.n	34180b66 <SystemClock_Config+0x38>
      Error_Handler();
34180bf4:	f7ff ff9a 	bl	34180b2c <Error_Handler>
    Error_Handler();
34180bf8:	f7ff ff98 	bl	34180b2c <Error_Handler>
    Error_Handler();
34180bfc:	f7ff ff96 	bl	34180b2c <Error_Handler>

34180c00 <MX_XSPI2_Init>:
{
34180c00:	b508      	push	{r3, lr}
   hxspi2.Instance = XSPI2;
34180c02:	4810      	ldr	r0, [pc, #64]	@ (34180c44 <MX_XSPI2_Init+0x44>)
34180c04:	4b10      	ldr	r3, [pc, #64]	@ (34180c48 <MX_XSPI2_Init+0x48>)
34180c06:	6003      	str	r3, [r0, #0]
  hxspi2.Init.FifoThresholdByte       = 4U;
34180c08:	2304      	movs	r3, #4
34180c0a:	6043      	str	r3, [r0, #4]
  hxspi2.Init.MemoryMode              = HAL_XSPI_SINGLE_MEM;
34180c0c:	2300      	movs	r3, #0
34180c0e:	6083      	str	r3, [r0, #8]
  hxspi2.Init.MemoryType              = HAL_XSPI_MEMTYPE_MACRONIX;
34180c10:	f04f 7280 	mov.w	r2, #16777216	@ 0x1000000
34180c14:	60c2      	str	r2, [r0, #12]
  hxspi2.Init.MemorySize              = HAL_XSPI_SIZE_32GB;
34180c16:	221f      	movs	r2, #31
34180c18:	6102      	str	r2, [r0, #16]
  hxspi2.Init.ChipSelectHighTimeCycle = 2U;
34180c1a:	2202      	movs	r2, #2
34180c1c:	6142      	str	r2, [r0, #20]
  hxspi2.Init.FreeRunningClock        = HAL_XSPI_FREERUNCLK_DISABLE;
34180c1e:	6183      	str	r3, [r0, #24]
  hxspi2.Init.ClockMode               = HAL_XSPI_CLOCK_MODE_0;
34180c20:	61c3      	str	r3, [r0, #28]
  hxspi2.Init.WrapSize                = HAL_XSPI_WRAP_NOT_SUPPORTED;
34180c22:	6203      	str	r3, [r0, #32]
  hxspi2.Init.ClockPrescaler          = 0U;
34180c24:	6243      	str	r3, [r0, #36]	@ 0x24
  hxspi2.Init.SampleShifting          = HAL_XSPI_SAMPLE_SHIFT_NONE;
34180c26:	6283      	str	r3, [r0, #40]	@ 0x28
  hxspi2.Init.DelayHoldQuarterCycle   = HAL_XSPI_DHQC_ENABLE;
34180c28:	f04f 5280 	mov.w	r2, #268435456	@ 0x10000000
34180c2c:	62c2      	str	r2, [r0, #44]	@ 0x2c
  hxspi2.Init.ChipSelectBoundary      = HAL_XSPI_BONDARYOF_NONE;
34180c2e:	6303      	str	r3, [r0, #48]	@ 0x30
  hxspi2.Init.MaxTran                 = 0U;
34180c30:	6343      	str	r3, [r0, #52]	@ 0x34
  hxspi2.Init.Refresh                 = 0U;
34180c32:	6383      	str	r3, [r0, #56]	@ 0x38
  hxspi2.Init.MemorySelect            = HAL_XSPI_CSSEL_NCS1;
34180c34:	63c3      	str	r3, [r0, #60]	@ 0x3c
  if (HAL_XSPI_Init(&hxspi2) != HAL_OK)
34180c36:	f006 fcd5 	bl	341875e4 <HAL_XSPI_Init>
34180c3a:	b900      	cbnz	r0, 34180c3e <MX_XSPI2_Init+0x3e>
}
34180c3c:	bd08      	pop	{r3, pc}
    Error_Handler();
34180c3e:	f7ff ff75 	bl	34180b2c <Error_Handler>
34180c42:	bf00      	nop
34180c44:	3418071c 	.word	0x3418071c
34180c48:	5802a000 	.word	0x5802a000

34180c4c <extmemloader_Init>:
{
34180c4c:	b510      	push	{r4, lr}
  SystemInit();
34180c4e:	f000 f8e3 	bl	34180e18 <SystemInit>
  \details Disables IRQ interrupts by setting special-purpose register PRIMASK.
           Can only be executed in Privileged modes.
 */
__STATIC_FORCEINLINE void __disable_irq(void)
{
  __ASM volatile ("cpsid i" : : : "memory");
34180c52:	b672      	cpsid	i
  \details Turns on I-Cache
  */
__STATIC_FORCEINLINE void SCB_EnableICache (void)
{
  #if defined (__ICACHE_PRESENT) && (__ICACHE_PRESENT == 1U)
    if (SCB->CCR & SCB_CCR_IC_Msk) return;  /* return if ICache is already enabled */
34180c54:	4b28      	ldr	r3, [pc, #160]	@ (34180cf8 <extmemloader_Init+0xac>)
34180c56:	695b      	ldr	r3, [r3, #20]
34180c58:	f413 3f00 	tst.w	r3, #131072	@ 0x20000
34180c5c:	d113      	bne.n	34180c86 <extmemloader_Init+0x3a>
  __ASM volatile ("dsb 0xF":::"memory");
34180c5e:	f3bf 8f4f 	dsb	sy
  __ASM volatile ("isb 0xF":::"memory");
34180c62:	f3bf 8f6f 	isb	sy

    __DSB();
    __ISB();
    SCB->ICIALLU = 0UL;                     /* invalidate I-Cache */
34180c66:	4b24      	ldr	r3, [pc, #144]	@ (34180cf8 <extmemloader_Init+0xac>)
34180c68:	2200      	movs	r2, #0
34180c6a:	f8c3 2250 	str.w	r2, [r3, #592]	@ 0x250
  __ASM volatile ("dsb 0xF":::"memory");
34180c6e:	f3bf 8f4f 	dsb	sy
  __ASM volatile ("isb 0xF":::"memory");
34180c72:	f3bf 8f6f 	isb	sy
    __DSB();
    __ISB();
    SCB->CCR |=  (uint32_t)SCB_CCR_IC_Msk;  /* enable I-Cache */
34180c76:	695a      	ldr	r2, [r3, #20]
34180c78:	f442 3200 	orr.w	r2, r2, #131072	@ 0x20000
34180c7c:	615a      	str	r2, [r3, #20]
  __ASM volatile ("dsb 0xF":::"memory");
34180c7e:	f3bf 8f4f 	dsb	sy
  __ASM volatile ("isb 0xF":::"memory");
34180c82:	f3bf 8f6f 	isb	sy
  #if defined (__DCACHE_PRESENT) && (__DCACHE_PRESENT == 1U)
    uint32_t ccsidr;
    uint32_t sets;
    uint32_t ways;

    if (SCB->CCR & SCB_CCR_DC_Msk) return;  /* return if DCache is already enabled */
34180c86:	4b1c      	ldr	r3, [pc, #112]	@ (34180cf8 <extmemloader_Init+0xac>)
34180c88:	695b      	ldr	r3, [r3, #20]
34180c8a:	f413 3f80 	tst.w	r3, #65536	@ 0x10000
34180c8e:	d127      	bne.n	34180ce0 <extmemloader_Init+0x94>

    SCB->CSSELR = 0U;                       /* select Level 1 data cache */
34180c90:	4b19      	ldr	r3, [pc, #100]	@ (34180cf8 <extmemloader_Init+0xac>)
34180c92:	2200      	movs	r2, #0
34180c94:	f8c3 2084 	str.w	r2, [r3, #132]	@ 0x84
  __ASM volatile ("dsb 0xF":::"memory");
34180c98:	f3bf 8f4f 	dsb	sy
    __DSB();

    ccsidr = SCB->CCSIDR;
34180c9c:	f8d3 4080 	ldr.w	r4, [r3, #128]	@ 0x80

                                            /* invalidate D-Cache */
    sets = (uint32_t)(CCSIDR_SETS(ccsidr));
34180ca0:	f3c4 304e 	ubfx	r0, r4, #13, #15
34180ca4:	e000      	b.n	34180ca8 <extmemloader_Init+0x5c>
                      ((ways << SCB_DCISW_WAY_Pos) & SCB_DCISW_WAY_Msk)  );
        #if defined ( __CC_ARM )
          __schedule_barrier();
        #endif
      } while (ways-- != 0U);
    } while(sets-- != 0U);
34180ca6:	4618      	mov	r0, r3
      ways = (uint32_t)(CCSIDR_WAYS(ccsidr));
34180ca8:	f3c4 02c9 	ubfx	r2, r4, #3, #10
        SCB->DCISW = (((sets << SCB_DCISW_SET_Pos) & SCB_DCISW_SET_Msk) |
34180cac:	f643 73e0 	movw	r3, #16352	@ 0x3fe0
34180cb0:	ea03 1340 	and.w	r3, r3, r0, lsl #5
34180cb4:	ea43 7382 	orr.w	r3, r3, r2, lsl #30
34180cb8:	490f      	ldr	r1, [pc, #60]	@ (34180cf8 <extmemloader_Init+0xac>)
34180cba:	f8c1 3260 	str.w	r3, [r1, #608]	@ 0x260
      } while (ways-- != 0U);
34180cbe:	4613      	mov	r3, r2
34180cc0:	3a01      	subs	r2, #1
34180cc2:	2b00      	cmp	r3, #0
34180cc4:	d1f2      	bne.n	34180cac <extmemloader_Init+0x60>
    } while(sets-- != 0U);
34180cc6:	1e43      	subs	r3, r0, #1
34180cc8:	2800      	cmp	r0, #0
34180cca:	d1ec      	bne.n	34180ca6 <extmemloader_Init+0x5a>
34180ccc:	f3bf 8f4f 	dsb	sy
    __DSB();

    SCB->CCR |=  (uint32_t)SCB_CCR_DC_Msk;  /* enable D-Cache */
34180cd0:	694b      	ldr	r3, [r1, #20]
34180cd2:	f443 3380 	orr.w	r3, r3, #65536	@ 0x10000
34180cd6:	614b      	str	r3, [r1, #20]
34180cd8:	f3bf 8f4f 	dsb	sy
  __ASM volatile ("isb 0xF":::"memory");
34180cdc:	f3bf 8f6f 	isb	sy
  HAL_Init();
34180ce0:	f000 fa70 	bl	341811c4 <HAL_Init>
  SystemClock_Config();
34180ce4:	f7ff ff23 	bl	34180b2e <SystemClock_Config>
  HAL_MPU_Disable();
34180ce8:	f000 fb16 	bl	34181318 <HAL_MPU_Disable>
  MX_XSPI2_Init();
34180cec:	f7ff ff88 	bl	34180c00 <MX_XSPI2_Init>
  MX_EXTMEM_MANAGER_Init();
34180cf0:	f7ff ff02 	bl	34180af8 <MX_EXTMEM_MANAGER_Init>
}
34180cf4:	2000      	movs	r0, #0
34180cf6:	bd10      	pop	{r4, pc}
34180cf8:	e000ed00 	.word	0xe000ed00

34180cfc <HAL_MspInit>:
  * @brief  Initialize the Global MSP.
  * @retval None
  */
void HAL_MspInit(void)
{
}
34180cfc:	4770      	bx	lr
	...

34180d00 <HAL_XSPI_MspInit>:
  * @retval None
  */
void HAL_XSPI_MspInit(XSPI_HandleTypeDef *hxspi)
{

  if (hxspi->Instance == XSPI2)
34180d00:	6802      	ldr	r2, [r0, #0]
34180d02:	4b40      	ldr	r3, [pc, #256]	@ (34180e04 <HAL_XSPI_MspInit+0x104>)
34180d04:	429a      	cmp	r2, r3
34180d06:	d000      	beq.n	34180d0a <HAL_XSPI_MspInit+0xa>
34180d08:	4770      	bx	lr
{
34180d0a:	b510      	push	{r4, lr}
34180d0c:	b0ec      	sub	sp, #432	@ 0x1b0
  {
    BSEC_HandleTypeDef hbsec;
    uint32_t fuse_data = 0;
34180d0e:	2300      	movs	r3, #0
34180d10:	9300      	str	r3, [sp, #0]
  * @retval None
  */
__STATIC_INLINE void LL_APB4_GRP2_EnableClock(uint32_t Periphs)
{
  __IO uint32_t tmpreg;
  WRITE_REG(RCC->APB4ENSR2, Periphs);
34180d12:	4b3d      	ldr	r3, [pc, #244]	@ (34180e08 <HAL_XSPI_MspInit+0x108>)
34180d14:	2202      	movs	r2, #2
34180d16:	f8c3 2a78 	str.w	r2, [r3, #2680]	@ 0xa78
  /* Delay after an RCC peripheral clock enabling */
  tmpreg = READ_REG(RCC->APB4ENR2);
34180d1a:	f8d3 2278 	ldr.w	r2, [r3, #632]	@ 0x278
34180d1e:	9202      	str	r2, [sp, #8]
  (void)tmpreg;
34180d20:	9a02      	ldr	r2, [sp, #8]
  WRITE_REG(RCC->APB4ENSR2, Periphs);
34180d22:	2201      	movs	r2, #1
34180d24:	f8c3 2a78 	str.w	r2, [r3, #2680]	@ 0xa78
  tmpreg = READ_REG(RCC->APB4ENR2);
34180d28:	f8d3 3278 	ldr.w	r3, [r3, #632]	@ 0x278
34180d2c:	9301      	str	r3, [sp, #4]
  (void)tmpreg;
34180d2e:	9b01      	ldr	r3, [sp, #4]

    /* Enable BSEC & SYSCFG clocks to ensure BSEC data accesses */
    __HAL_RCC_BSEC_CLK_ENABLE();
    __HAL_RCC_SYSCFG_CLK_ENABLE();

    hbsec.Instance = BSEC;
34180d30:	4b36      	ldr	r3, [pc, #216]	@ (34180e0c <HAL_XSPI_MspInit+0x10c>)
34180d32:	9306      	str	r3, [sp, #24]
    if (HAL_BSEC_OTP_Read(&hbsec, HSLV_OTP, &fuse_data) != HAL_OK)
34180d34:	466a      	mov	r2, sp
34180d36:	217c      	movs	r1, #124	@ 0x7c
34180d38:	a806      	add	r0, sp, #24
34180d3a:	f000 fab9 	bl	341812b0 <HAL_BSEC_OTP_Read>
34180d3e:	2800      	cmp	r0, #0
34180d40:	d147      	bne.n	34180dd2 <HAL_XSPI_MspInit+0xd2>
    {
      Error_Handler();
    }

    if (fuse_data & VDDIO3_HSLV_MASK)
34180d42:	9b00      	ldr	r3, [sp, #0]
34180d44:	f413 4f00 	tst.w	r3, #32768	@ 0x8000
34180d48:	d049      	beq.n	34180dde <HAL_XSPI_MspInit+0xde>
    {
      /* High speed IO optimization is enabled */
      RCC_PeriphCLKInitTypeDef PeriphClkInit;

      /*  Select IC3 clock from PLL1 at 200MHz (800/4) as XSPI2 source */
      PeriphClkInit.PeriphClockSelection = RCC_PERIPHCLK_XSPI2;
34180d4a:	2200      	movs	r2, #0
34180d4c:	f44f 0300 	mov.w	r3, #8388608	@ 0x800000
34180d50:	e9cd 2308 	strd	r2, r3, [sp, #32]
      PeriphClkInit.Xspi2ClockSelection = RCC_XSPI2CLKSOURCE_IC3;
34180d54:	4b2e      	ldr	r3, [pc, #184]	@ (34180e10 <HAL_XSPI_MspInit+0x110>)
34180d56:	9334      	str	r3, [sp, #208]	@ 0xd0
      PeriphClkInit.ICSelection[RCC_IC3].ClockSelection = RCC_ICCLKSOURCE_PLL1;
34180d58:	2300      	movs	r3, #0
34180d5a:	930e      	str	r3, [sp, #56]	@ 0x38
      PeriphClkInit.ICSelection[RCC_IC3].ClockDivider = 4;
34180d5c:	2304      	movs	r3, #4
34180d5e:	930f      	str	r3, [sp, #60]	@ 0x3c
      if (HAL_RCCEx_PeriphCLKConfig(&PeriphClkInit) != HAL_OK)
34180d60:	a808      	add	r0, sp, #32
34180d62:	f001 fda7 	bl	341828b4 <HAL_RCCEx_PeriphCLKConfig>
34180d66:	2800      	cmp	r0, #0
34180d68:	d136      	bne.n	34180dd8 <HAL_XSPI_MspInit+0xd8>
  WRITE_REG(RCC->AHB4ENSR, Periphs);
34180d6a:	4c27      	ldr	r4, [pc, #156]	@ (34180e08 <HAL_XSPI_MspInit+0x108>)
34180d6c:	f44f 2380 	mov.w	r3, #262144	@ 0x40000
34180d70:	f8c4 3a5c 	str.w	r3, [r4, #2652]	@ 0xa5c
  tmpreg = READ_REG(RCC->AHB4ENR);
34180d74:	f8d4 325c 	ldr.w	r3, [r4, #604]	@ 0x25c
34180d78:	9305      	str	r3, [sp, #20]
  (void)tmpreg;
34180d7a:	9b05      	ldr	r3, [sp, #20]
      }
    }

    /* Set PWR configuration for IO speed optimization */
    __HAL_RCC_PWR_CLK_ENABLE();
    HAL_PWREx_EnableVddIO3();
34180d7c:	f000 fc8e 	bl	3418169c <HAL_PWREx_EnableVddIO3>
    HAL_PWREx_ConfigVddIORange(PWR_VDDIO3, PWR_VDDIO_RANGE_1V8);
34180d80:	2101      	movs	r1, #1
34180d82:	2002      	movs	r0, #2
34180d84:	f000 fc58 	bl	34181638 <HAL_PWREx_ConfigVddIORange>
  WRITE_REG(RCC->AHB5ENSR, Periphs);
34180d88:	f44f 5380 	mov.w	r3, #4096	@ 0x1000
34180d8c:	f8c4 3a60 	str.w	r3, [r4, #2656]	@ 0xa60
  tmpreg = READ_REG(RCC->AHB5ENR);
34180d90:	f8d4 3260 	ldr.w	r3, [r4, #608]	@ 0x260
34180d94:	9304      	str	r3, [sp, #16]
  (void)tmpreg;
34180d96:	9b04      	ldr	r3, [sp, #16]
  WRITE_REG(RCC->AHB4ENSR, Periphs);
34180d98:	f44f 5300 	mov.w	r3, #8192	@ 0x2000
34180d9c:	f8c4 3a5c 	str.w	r3, [r4, #2652]	@ 0xa5c
  tmpreg = READ_REG(RCC->AHB4ENR);
34180da0:	f8d4 325c 	ldr.w	r3, [r4, #604]	@ 0x25c
34180da4:	9303      	str	r3, [sp, #12]
  (void)tmpreg;
34180da6:	9b03      	ldr	r3, [sp, #12]
    __HAL_RCC_XSPI2_CLK_ENABLE();

    /* Set GPIO pin configuration for XSPI operation */
    {
      __HAL_RCC_GPION_CLK_ENABLE();
      GPIO_InitTypeDef GPIO_InitStruct = {0};
34180da8:	2300      	movs	r3, #0
34180daa:	9308      	str	r3, [sp, #32]
34180dac:	9309      	str	r3, [sp, #36]	@ 0x24
34180dae:	930a      	str	r3, [sp, #40]	@ 0x28
34180db0:	930b      	str	r3, [sp, #44]	@ 0x2c
34180db2:	930c      	str	r3, [sp, #48]	@ 0x30
      GPIO_InitStruct.Pin       = GPIO_PIN_0 | GPIO_PIN_1 | GPIO_PIN_2 | GPIO_PIN_3 | \
34180db4:	f640 737f 	movw	r3, #3967	@ 0xf7f
34180db8:	9308      	str	r3, [sp, #32]
                                  GPIO_PIN_4 | GPIO_PIN_5 | GPIO_PIN_6 | GPIO_PIN_8 | \
                                  GPIO_PIN_9 | GPIO_PIN_10 | GPIO_PIN_11;
      GPIO_InitStruct.Mode      = GPIO_MODE_AF_PP;
34180dba:	2302      	movs	r3, #2
34180dbc:	9309      	str	r3, [sp, #36]	@ 0x24
      GPIO_InitStruct.Speed     = GPIO_SPEED_FREQ_VERY_HIGH;
34180dbe:	2303      	movs	r3, #3
34180dc0:	930b      	str	r3, [sp, #44]	@ 0x2c
      GPIO_InitStruct.Pull      = GPIO_NOPULL;
      GPIO_InitStruct.Alternate = GPIO_AF9_XSPIM_P2;
34180dc2:	2309      	movs	r3, #9
34180dc4:	930c      	str	r3, [sp, #48]	@ 0x30
      HAL_GPIO_Init(GPION, &GPIO_InitStruct);
34180dc6:	a908      	add	r1, sp, #32
34180dc8:	4812      	ldr	r0, [pc, #72]	@ (34180e14 <HAL_XSPI_MspInit+0x114>)
34180dca:	f000 fb0f 	bl	341813ec <HAL_GPIO_Init>
    }
  }
}
34180dce:	b06c      	add	sp, #432	@ 0x1b0
34180dd0:	bd10      	pop	{r4, pc}
      Error_Handler();
34180dd2:	f7ff feab 	bl	34180b2c <Error_Handler>
34180dd6:	e7b4      	b.n	34180d42 <HAL_XSPI_MspInit+0x42>
        Error_Handler();
34180dd8:	f7ff fea8 	bl	34180b2c <Error_Handler>
34180ddc:	e7c5      	b.n	34180d6a <HAL_XSPI_MspInit+0x6a>
      PeriphClkInit.PeriphClockSelection = RCC_PERIPHCLK_XSPI2;
34180dde:	2200      	movs	r2, #0
34180de0:	f44f 0300 	mov.w	r3, #8388608	@ 0x800000
34180de4:	e9cd 2308 	strd	r2, r3, [sp, #32]
      PeriphClkInit.Xspi2ClockSelection = RCC_XSPI2CLKSOURCE_IC3;
34180de8:	4b09      	ldr	r3, [pc, #36]	@ (34180e10 <HAL_XSPI_MspInit+0x110>)
34180dea:	9334      	str	r3, [sp, #208]	@ 0xd0
      PeriphClkInit.ICSelection[RCC_IC3].ClockSelection = RCC_ICCLKSOURCE_PLL1;
34180dec:	2300      	movs	r3, #0
34180dee:	930e      	str	r3, [sp, #56]	@ 0x38
      PeriphClkInit.ICSelection[RCC_IC3].ClockDivider = 16;
34180df0:	2310      	movs	r3, #16
34180df2:	930f      	str	r3, [sp, #60]	@ 0x3c
      if (HAL_RCCEx_PeriphCLKConfig(&PeriphClkInit) != HAL_OK)
34180df4:	a808      	add	r0, sp, #32
34180df6:	f001 fd5d 	bl	341828b4 <HAL_RCCEx_PeriphCLKConfig>
34180dfa:	2800      	cmp	r0, #0
34180dfc:	d0b5      	beq.n	34180d6a <HAL_XSPI_MspInit+0x6a>
        Error_Handler();
34180dfe:	f7ff fe95 	bl	34180b2c <Error_Handler>
34180e02:	e7b2      	b.n	34180d6a <HAL_XSPI_MspInit+0x6a>
34180e04:	5802a000 	.word	0x5802a000
34180e08:	56028000 	.word	0x56028000
34180e0c:	56009000 	.word	0x56009000
34180e10:	03020414 	.word	0x03020414
34180e14:	56023400 	.word	0x56023400

34180e18 <SystemInit>:
  * @brief  Setup the microcontroller system.
  * @retval None
  */

void SystemInit(void)
{
34180e18:	b430      	push	{r4, r5}

  /* Configure the Vector Table location -------------------------------------*/
#if defined(USER_VECT_TAB_ADDRESS)
  SCB->VTOR = VECT_TAB_BASE_ADDRESS | VECT_TAB_OFFSET;
#else
  SCB->VTOR = INTVECT_START;
34180e1a:	4b4e      	ldr	r3, [pc, #312]	@ (34180f54 <SystemInit+0x13c>)
34180e1c:	4a4e      	ldr	r2, [pc, #312]	@ (34180f58 <SystemInit+0x140>)
34180e1e:	609a      	str	r2, [r3, #8]
#endif  /* USER_VECT_TAB_ADDRESS */

  /* RNG reset */
  RCC->AHB3RSTSR = RCC_AHB3RSTSR_RNGRSTS;
34180e20:	494e      	ldr	r1, [pc, #312]	@ (34180f5c <SystemInit+0x144>)
34180e22:	2001      	movs	r0, #1
34180e24:	f8c1 0a18 	str.w	r0, [r1, #2584]	@ 0xa18
  RCC->AHB3RSTCR = RCC_AHB3RSTCR_RNGRSTC;
34180e28:	f501 5c80 	add.w	ip, r1, #4096	@ 0x1000
34180e2c:	f8cc 0218 	str.w	r0, [ip, #536]	@ 0x218
  /* Deactivate RNG clock */
  RCC->AHB3ENCR = RCC_AHB3ENCR_RNGENC;
34180e30:	f8cc 0258 	str.w	r0, [ip, #600]	@ 0x258

  /* Clear SAU regions */
  SAU->RNR = 0;
34180e34:	2200      	movs	r2, #0
34180e36:	f8c3 20d8 	str.w	r2, [r3, #216]	@ 0xd8
  SAU->RBAR = 0;
34180e3a:	f8c3 20dc 	str.w	r2, [r3, #220]	@ 0xdc
  SAU->RLAR = 0;
34180e3e:	f8c3 20e0 	str.w	r2, [r3, #224]	@ 0xe0
  SAU->RNR = 1;
34180e42:	f8c3 00d8 	str.w	r0, [r3, #216]	@ 0xd8
  SAU->RBAR = 0;
34180e46:	f8c3 20dc 	str.w	r2, [r3, #220]	@ 0xdc
  SAU->RLAR = 0;
34180e4a:	f8c3 20e0 	str.w	r2, [r3, #224]	@ 0xe0
  SAU->RNR = 2;
34180e4e:	2402      	movs	r4, #2
34180e50:	f8c3 40d8 	str.w	r4, [r3, #216]	@ 0xd8
  SAU->RBAR = 0;
34180e54:	f8c3 20dc 	str.w	r2, [r3, #220]	@ 0xdc
  SAU->RLAR = 0;
34180e58:	f8c3 20e0 	str.w	r2, [r3, #224]	@ 0xe0
  SAU->RNR = 3;
34180e5c:	2403      	movs	r4, #3
34180e5e:	f8c3 40d8 	str.w	r4, [r3, #216]	@ 0xd8
  SAU->RBAR = 0;
34180e62:	f8c3 20dc 	str.w	r2, [r3, #220]	@ 0xdc
  SAU->RLAR = 0;
34180e66:	f8c3 20e0 	str.w	r2, [r3, #224]	@ 0xe0
  SAU->RNR = 4;
34180e6a:	2404      	movs	r4, #4
34180e6c:	f8c3 40d8 	str.w	r4, [r3, #216]	@ 0xd8
  SAU->RBAR = 0;
34180e70:	f8c3 20dc 	str.w	r2, [r3, #220]	@ 0xdc
  SAU->RLAR = 0;
34180e74:	f8c3 20e0 	str.w	r2, [r3, #224]	@ 0xe0
  SAU->RNR = 5;
34180e78:	2405      	movs	r4, #5
34180e7a:	f8c3 40d8 	str.w	r4, [r3, #216]	@ 0xd8
  SAU->RBAR = 0;
34180e7e:	f8c3 20dc 	str.w	r2, [r3, #220]	@ 0xdc
  SAU->RLAR = 0;
34180e82:	f8c3 20e0 	str.w	r2, [r3, #224]	@ 0xe0
  SAU->RNR = 6;
34180e86:	2406      	movs	r4, #6
34180e88:	f8c3 40d8 	str.w	r4, [r3, #216]	@ 0xd8
  SAU->RBAR = 0;
34180e8c:	f8c3 20dc 	str.w	r2, [r3, #220]	@ 0xdc
  SAU->RLAR = 0;
34180e90:	f8c3 20e0 	str.w	r2, [r3, #224]	@ 0xe0
  SAU->RNR = 7;
34180e94:	2407      	movs	r4, #7
34180e96:	f8c3 40d8 	str.w	r4, [r3, #216]	@ 0xd8
  SAU->RBAR = 0;
34180e9a:	f8c3 20dc 	str.w	r2, [r3, #220]	@ 0xdc
  SAU->RLAR = 0;
34180e9e:	f8c3 20e0 	str.w	r2, [r3, #224]	@ 0xe0

  /* System configuration setup */
  RCC->APB4ENSR2 = RCC_APB4ENSR2_SYSCFGENS;
34180ea2:	f8c1 0a78 	str.w	r0, [r1, #2680]	@ 0xa78
  /* Delay after an RCC peripheral clock enabling */
  (void)RCC->APB4ENR2;
34180ea6:	f8d1 2278 	ldr.w	r2, [r1, #632]	@ 0x278

  /* Set default Vector Table location after system reset or return from Standby */
  SYSCFG->INITSVTORCR = SCB->VTOR;
34180eaa:	689a      	ldr	r2, [r3, #8]
34180eac:	4c2c      	ldr	r4, [pc, #176]	@ (34180f60 <SystemInit+0x148>)
34180eae:	6122      	str	r2, [r4, #16]

  /* Compensation cells setting according to Errata Sheet ES0620 */
  /* a/ Enable access and configuration of VDDIOxCCCR registers  */
  PWR->SVMCR1 |= PWR_SVMCR1_VDDIO4SV;
34180eb0:	4a2c      	ldr	r2, [pc, #176]	@ (34180f64 <SystemInit+0x14c>)
34180eb2:	6b55      	ldr	r5, [r2, #52]	@ 0x34
34180eb4:	f445 7580 	orr.w	r5, r5, #256	@ 0x100
34180eb8:	6355      	str	r5, [r2, #52]	@ 0x34
  PWR->SVMCR2 |= PWR_SVMCR2_VDDIO5SV;
34180eba:	6b95      	ldr	r5, [r2, #56]	@ 0x38
34180ebc:	f445 7580 	orr.w	r5, r5, #256	@ 0x100
34180ec0:	6395      	str	r5, [r2, #56]	@ 0x38
  PWR->SVMCR3 |= PWR_SVMCR3_VDDIO2SV | PWR_SVMCR3_VDDIO3SV;
34180ec2:	6bd5      	ldr	r5, [r2, #60]	@ 0x3c
34180ec4:	f445 7540 	orr.w	r5, r5, #768	@ 0x300
34180ec8:	63d5      	str	r5, [r2, #60]	@ 0x3c

  /* b/ Enable access and configuration of VDDIOxCCCR registers */
  SYSCFG->VDDIO2CCCR = 0x00000287UL; /* VDDIO2 power domain compensation */
34180eca:	f240 2587 	movw	r5, #647	@ 0x287
34180ece:	6565      	str	r5, [r4, #84]	@ 0x54
  SYSCFG->VDDIO3CCCR = 0x00000287UL; /* VDDIO3 power domain compensation */
34180ed0:	65e5      	str	r5, [r4, #92]	@ 0x5c
  SYSCFG->VDDIO4CCCR = 0x00000287UL; /* VDDIO4 power domain compensation */
34180ed2:	6465      	str	r5, [r4, #68]	@ 0x44
  SYSCFG->VDDIO5CCCR = 0x00000287UL; /* VDDIO4 power domain compensation */
34180ed4:	64e5      	str	r5, [r4, #76]	@ 0x4c
  SYSCFG->VDDCCCR    = 0x00000287UL; /* VDD power domain compensation    */
34180ed6:	6665      	str	r5, [r4, #100]	@ 0x64

  /* Enable VDDADC CLAMP */
  PWR->SVMCR3 |= PWR_SVMCR3_ASV;
34180ed8:	6bd5      	ldr	r5, [r2, #60]	@ 0x3c
34180eda:	f445 5580 	orr.w	r5, r5, #4096	@ 0x1000
34180ede:	63d5      	str	r5, [r2, #60]	@ 0x3c
  PWR->SVMCR3 |= PWR_SVMCR3_AVMEN;
34180ee0:	6bd5      	ldr	r5, [r2, #60]	@ 0x3c
34180ee2:	f045 0510 	orr.w	r5, r5, #16
34180ee6:	63d5      	str	r5, [r2, #60]	@ 0x3c
  /* read back the register to make sure that the transaction has taken place */
  (void) PWR->SVMCR3;
34180ee8:	6bd2      	ldr	r2, [r2, #60]	@ 0x3c
  /* enable VREF */
  RCC->APB4ENR1 |= RCC_APB4ENR1_VREFBUFEN;
34180eea:	f8d1 2274 	ldr.w	r2, [r1, #628]	@ 0x274
34180eee:	f442 4200 	orr.w	r2, r2, #32768	@ 0x8000
34180ef2:	f8c1 2274 	str.w	r2, [r1, #628]	@ 0x274

  /* RCC Fix to lower power consumption */
  RCC->APB4ENR2 |= 0x00000010UL;
34180ef6:	f8d1 2278 	ldr.w	r2, [r1, #632]	@ 0x278
34180efa:	f042 0210 	orr.w	r2, r2, #16
34180efe:	f8c1 2278 	str.w	r2, [r1, #632]	@ 0x278
  (void) RCC->APB4ENR2;
34180f02:	f8d1 2278 	ldr.w	r2, [r1, #632]	@ 0x278
  RCC->APB4ENR2 &= ~(0x00000010UL);
34180f06:	f8d1 2278 	ldr.w	r2, [r1, #632]	@ 0x278
34180f0a:	f022 0210 	bic.w	r2, r2, #16
34180f0e:	f8c1 2278 	str.w	r2, [r1, #632]	@ 0x278

  /* XSPI2 & XSPIM reset                                  */
  RCC->AHB5RSTSR = RCC_AHB5RSTSR_XSPIMRSTS | RCC_AHB5RSTSR_XSPI2RSTS;
34180f12:	f44f 5240 	mov.w	r2, #12288	@ 0x3000
34180f16:	f8c1 2a20 	str.w	r2, [r1, #2592]	@ 0xa20
  RCC->AHB5RSTCR = RCC_AHB5RSTCR_XSPIMRSTC | RCC_AHB5RSTCR_XSPI2RSTC;
34180f1a:	f8cc 2220 	str.w	r2, [ip, #544]	@ 0x220

  /* TIM2 reset */
  RCC->APB1RSTSR1 = RCC_APB1RSTSR1_TIM2RSTS;
34180f1e:	f8c1 0a24 	str.w	r0, [r1, #2596]	@ 0xa24
  RCC->APB1RSTCR1 = RCC_APB1RSTCR1_TIM2RSTC;
34180f22:	f8cc 0224 	str.w	r0, [ip, #548]	@ 0x224
  /* Deactivate TIM2 clock */
  RCC->APB1ENCR1 = RCC_APB1ENCR1_TIM2ENC;
34180f26:	f8cc 0264 	str.w	r0, [ip, #612]	@ 0x264

  /* Deactivate GPIOG clock */
  RCC->AHB4ENCR = RCC_AHB4ENCR_GPIOGENC;
34180f2a:	2240      	movs	r2, #64	@ 0x40
34180f2c:	f8cc 225c 	str.w	r2, [ip, #604]	@ 0x25c

  /* Read back the value to make sure it is written before deactivating SYSCFG */
  (void) SYSCFG->INITSVTORCR;
34180f30:	6922      	ldr	r2, [r4, #16]
  /* Deactivate SYSCFG clock */
  RCC->APB4ENCR2 = RCC_APB4ENCR2_SYSCFGENC;
34180f32:	f8cc 0278 	str.w	r0, [ip, #632]	@ 0x278
  TZ_SAU_Setup();
#endif /* USER_TZ_SAU_SETUP */

  /* FPU settings ------------------------------------------------------------*/
#if (__FPU_PRESENT == 1) && (__FPU_USED == 1)
  SCB->CPACR |= ((3UL << 20U)|(3UL << 22U));  /* set CP10 and CP11 Full Access */
34180f36:	f8d3 2088 	ldr.w	r2, [r3, #136]	@ 0x88
34180f3a:	f442 0270 	orr.w	r2, r2, #15728640	@ 0xf00000
34180f3e:	f8c3 2088 	str.w	r2, [r3, #136]	@ 0x88

  SCB_NS->CPACR |= ((3UL << 20U)|(3UL << 22U));  /* set CP10 and CP11 Full Access */
34180f42:	4a09      	ldr	r2, [pc, #36]	@ (34180f68 <SystemInit+0x150>)
34180f44:	f8d2 3088 	ldr.w	r3, [r2, #136]	@ 0x88
34180f48:	f443 0370 	orr.w	r3, r3, #15728640	@ 0xf00000
34180f4c:	f8c2 3088 	str.w	r3, [r2, #136]	@ 0x88
#endif /* __FPU_PRESENT && __FPU_USED */

}
34180f50:	bc30      	pop	{r4, r5}
34180f52:	4770      	bx	lr
34180f54:	e000ed00 	.word	0xe000ed00
34180f58:	34180600 	.word	0x34180600
34180f5c:	56028000 	.word	0x56028000
34180f60:	56008000 	.word	0x56008000
34180f64:	56024800 	.word	0x56024800
34180f68:	e002ed00 	.word	0xe002ed00

34180f6c <SystemCoreClockUpdate>:
  uint32_t pllp2 = 0;
  uint32_t pllcfgr, pllsource, pllbypass, ic_divider;
  float_t pllvco;

  /* Get CPUCLK source -------------------------------------------------------*/
  switch (RCC->CFGR1 & RCC_CFGR1_CPUSWS)
34180f6c:	4b84      	ldr	r3, [pc, #528]	@ (34181180 <SystemCoreClockUpdate+0x214>)
34180f6e:	6a1b      	ldr	r3, [r3, #32]
34180f70:	f403 1340 	and.w	r3, r3, #3145728	@ 0x300000
34180f74:	f5b3 1f00 	cmp.w	r3, #2097152	@ 0x200000
34180f78:	f000 80fe 	beq.w	34181178 <SystemCoreClockUpdate+0x20c>
34180f7c:	d80e      	bhi.n	34180f9c <SystemCoreClockUpdate+0x30>
34180f7e:	2b00      	cmp	r3, #0
34180f80:	d048      	beq.n	34181014 <SystemCoreClockUpdate+0xa8>
34180f82:	f5b3 1f80 	cmp.w	r3, #1048576	@ 0x100000
34180f86:	d107      	bne.n	34180f98 <SystemCoreClockUpdate+0x2c>
  case 0:  /* HSI used as system clock source (default after reset) */
    sysclk = HSI_VALUE >> ((RCC->HSICFGR & RCC_HSICFGR_HSIDIV) >> RCC_HSICFGR_HSIDIV_Pos);
    break;

  case RCC_CFGR1_CPUSWS_0:  /* MSI used as system clock source */
    if (READ_BIT(RCC->MSICFGR, RCC_MSICFGR_MSIFREQSEL) == 0UL)
34180f88:	4b7d      	ldr	r3, [pc, #500]	@ (34181180 <SystemCoreClockUpdate+0x214>)
34180f8a:	6c5b      	ldr	r3, [r3, #68]	@ 0x44
34180f8c:	f413 7f00 	tst.w	r3, #512	@ 0x200
34180f90:	f040 80f4 	bne.w	3418117c <SystemCoreClockUpdate+0x210>
    {
      sysclk = MSI_VALUE;
34180f94:	4b7b      	ldr	r3, [pc, #492]	@ (34181184 <SystemCoreClockUpdate+0x218>)
34180f96:	e043      	b.n	34181020 <SystemCoreClockUpdate+0xb4>
  switch (RCC->CFGR1 & RCC_CFGR1_CPUSWS)
34180f98:	2300      	movs	r3, #0
34180f9a:	e041      	b.n	34181020 <SystemCoreClockUpdate+0xb4>
34180f9c:	f5b3 1f40 	cmp.w	r3, #3145728	@ 0x300000
34180fa0:	d136      	bne.n	34181010 <SystemCoreClockUpdate+0xa4>
{
34180fa2:	b530      	push	{r4, r5, lr}
    sysclk = HSE_VALUE;
    break;

  case (RCC_CFGR1_CPUSWS_1 | RCC_CFGR1_CPUSWS_0):  /* IC1 used as system clock  source */
    /* Get IC1 clock source parameters */
    switch (READ_BIT(RCC->IC1CFGR, RCC_IC1CFGR_IC1SEL))
34180fa4:	4b76      	ldr	r3, [pc, #472]	@ (34181180 <SystemCoreClockUpdate+0x214>)
34180fa6:	f8d3 40c4 	ldr.w	r4, [r3, #196]	@ 0xc4
34180faa:	f004 5440 	and.w	r4, r4, #805306368	@ 0x30000000
34180fae:	f1b4 5f80 	cmp.w	r4, #268435456	@ 0x10000000
34180fb2:	d038      	beq.n	34181026 <SystemCoreClockUpdate+0xba>
34180fb4:	f1b4 5f00 	cmp.w	r4, #536870912	@ 0x20000000
34180fb8:	d04d      	beq.n	34181056 <SystemCoreClockUpdate+0xea>
34180fba:	2c00      	cmp	r4, #0
34180fbc:	d163      	bne.n	34181086 <SystemCoreClockUpdate+0x11a>
    {
    case 0:  /* PLL1 selected at IC1 clock source */
      pllcfgr = READ_REG(RCC->PLL1CFGR1);
34180fbe:	f8d3 2080 	ldr.w	r2, [r3, #128]	@ 0x80
      pllsource = pllcfgr & RCC_PLL1CFGR1_PLL1SEL;
34180fc2:	f002 43e0 	and.w	r3, r2, #1879048192	@ 0x70000000
      pllbypass = pllcfgr & RCC_PLL1CFGR1_PLL1BYP;
      if (pllbypass == 0U)
34180fc6:	f012 6500 	ands.w	r5, r2, #134217728	@ 0x8000000
34180fca:	d174      	bne.n	341810b6 <SystemCoreClockUpdate+0x14a>
      {
        pllm = (pllcfgr & RCC_PLL1CFGR1_PLL1DIVM) >>  RCC_PLL1CFGR1_PLL1DIVM_Pos;
34180fcc:	f3c2 5405 	ubfx	r4, r2, #20, #6
        plln = (pllcfgr & RCC_PLL1CFGR1_PLL1DIVN) >>  RCC_PLL1CFGR1_PLL1DIVN_Pos;
34180fd0:	f3c2 220b 	ubfx	r2, r2, #8, #12
        pllfracn = READ_BIT(RCC->PLL1CFGR2, RCC_PLL1CFGR2_PLL1DIVNFRAC) >>  RCC_PLL1CFGR2_PLL1DIVNFRAC_Pos;
34180fd4:	496a      	ldr	r1, [pc, #424]	@ (34181180 <SystemCoreClockUpdate+0x214>)
34180fd6:	f8d1 0084 	ldr.w	r0, [r1, #132]	@ 0x84
34180fda:	f020 407f 	bic.w	r0, r0, #4278190080	@ 0xff000000
        pllcfgr = READ_REG(RCC->PLL1CFGR3);
34180fde:	f8d1 1088 	ldr.w	r1, [r1, #136]	@ 0x88
        pllp1 = (pllcfgr & RCC_PLL1CFGR3_PLL1PDIV1) >>  RCC_PLL1CFGR3_PLL1PDIV1_Pos;
34180fe2:	f3c1 6cc2 	ubfx	ip, r1, #27, #3
        pllp2 = (pllcfgr & RCC_PLL1CFGR3_PLL1PDIV2) >>  RCC_PLL1CFGR3_PLL1PDIV2_Pos;
34180fe6:	f3c1 6102 	ubfx	r1, r1, #24, #3
      }
      break;
    }

    /* Get oscillator frequency used as PLL clock source */
    switch (pllsource)
34180fea:	f1b3 5f00 	cmp.w	r3, #536870912	@ 0x20000000
34180fee:	f000 80bd 	beq.w	3418116c <SystemCoreClockUpdate+0x200>
34180ff2:	d879      	bhi.n	341810e8 <SystemCoreClockUpdate+0x17c>
34180ff4:	2b00      	cmp	r3, #0
34180ff6:	f000 80b1 	beq.w	3418115c <SystemCoreClockUpdate+0x1f0>
34180ffa:	f1b3 5f80 	cmp.w	r3, #268435456	@ 0x10000000
34180ffe:	d171      	bne.n	341810e4 <SystemCoreClockUpdate+0x178>
    {
    case 0:  /* HSI selected as PLL clock source */
      sysclk = HSI_VALUE >> ((RCC->HSICFGR & RCC_HSICFGR_HSIDIV) >> RCC_HSICFGR_HSIDIV_Pos);
      break;
    case RCC_PLL1CFGR1_PLL1SEL_0: /* MSI selected as PLL clock source */
      if (READ_BIT(RCC->MSICFGR, RCC_MSICFGR_MSIFREQSEL) == 0UL)
34181000:	4b5f      	ldr	r3, [pc, #380]	@ (34181180 <SystemCoreClockUpdate+0x214>)
34181002:	6c5b      	ldr	r3, [r3, #68]	@ 0x44
34181004:	f413 7f00 	tst.w	r3, #512	@ 0x200
34181008:	f040 80b4 	bne.w	34181174 <SystemCoreClockUpdate+0x208>
      {
        sysclk = MSI_VALUE;
3418100c:	4b5d      	ldr	r3, [pc, #372]	@ (34181184 <SystemCoreClockUpdate+0x218>)
3418100e:	e06f      	b.n	341810f0 <SystemCoreClockUpdate+0x184>
  switch (RCC->CFGR1 & RCC_CFGR1_CPUSWS)
34181010:	2300      	movs	r3, #0
34181012:	e005      	b.n	34181020 <SystemCoreClockUpdate+0xb4>
    sysclk = HSI_VALUE >> ((RCC->HSICFGR & RCC_HSICFGR_HSIDIV) >> RCC_HSICFGR_HSIDIV_Pos);
34181014:	4b5a      	ldr	r3, [pc, #360]	@ (34181180 <SystemCoreClockUpdate+0x214>)
34181016:	6c9a      	ldr	r2, [r3, #72]	@ 0x48
34181018:	f3c2 12c1 	ubfx	r2, r2, #7, #2
3418101c:	4b5a      	ldr	r3, [pc, #360]	@ (34181188 <SystemCoreClockUpdate+0x21c>)
3418101e:	40d3      	lsrs	r3, r2
    /* Nothing to do, should not occur */
    break;
  }

  /* Return system clock frequency (CPU frequency) */
  SystemCoreClock = sysclk;
34181020:	4a5a      	ldr	r2, [pc, #360]	@ (3418118c <SystemCoreClockUpdate+0x220>)
34181022:	6013      	str	r3, [r2, #0]
34181024:	4770      	bx	lr
      pllcfgr = READ_REG(RCC->PLL2CFGR1);
34181026:	4b56      	ldr	r3, [pc, #344]	@ (34181180 <SystemCoreClockUpdate+0x214>)
34181028:	f8d3 2090 	ldr.w	r2, [r3, #144]	@ 0x90
      pllsource = pllcfgr & RCC_PLL2CFGR1_PLL2SEL;
3418102c:	f002 43e0 	and.w	r3, r2, #1879048192	@ 0x70000000
      if (pllbypass == 0U)
34181030:	f012 6500 	ands.w	r5, r2, #134217728	@ 0x8000000
34181034:	d144      	bne.n	341810c0 <SystemCoreClockUpdate+0x154>
        pllm = (pllcfgr & RCC_PLL2CFGR1_PLL2DIVM) >>  RCC_PLL2CFGR1_PLL2DIVM_Pos;
34181036:	f3c2 5405 	ubfx	r4, r2, #20, #6
        plln = (pllcfgr & RCC_PLL2CFGR1_PLL2DIVN) >>  RCC_PLL2CFGR1_PLL2DIVN_Pos;
3418103a:	f3c2 220b 	ubfx	r2, r2, #8, #12
        pllfracn = READ_BIT(RCC->PLL2CFGR2, RCC_PLL2CFGR2_PLL2DIVNFRAC) >>  RCC_PLL2CFGR2_PLL2DIVNFRAC_Pos;
3418103e:	4950      	ldr	r1, [pc, #320]	@ (34181180 <SystemCoreClockUpdate+0x214>)
34181040:	f8d1 0094 	ldr.w	r0, [r1, #148]	@ 0x94
34181044:	f020 407f 	bic.w	r0, r0, #4278190080	@ 0xff000000
        pllcfgr = READ_REG(RCC->PLL2CFGR3);
34181048:	f8d1 1098 	ldr.w	r1, [r1, #152]	@ 0x98
        pllp1 = (pllcfgr & RCC_PLL2CFGR3_PLL2PDIV1) >>  RCC_PLL2CFGR3_PLL2PDIV1_Pos;
3418104c:	f3c1 6cc2 	ubfx	ip, r1, #27, #3
        pllp2 = (pllcfgr & RCC_PLL2CFGR3_PLL2PDIV2) >>  RCC_PLL2CFGR3_PLL2PDIV2_Pos;
34181050:	f3c1 6102 	ubfx	r1, r1, #24, #3
34181054:	e7c9      	b.n	34180fea <SystemCoreClockUpdate+0x7e>
      pllcfgr = READ_REG(RCC->PLL3CFGR1);
34181056:	4b4a      	ldr	r3, [pc, #296]	@ (34181180 <SystemCoreClockUpdate+0x214>)
34181058:	f8d3 20a0 	ldr.w	r2, [r3, #160]	@ 0xa0
      pllsource = pllcfgr & RCC_PLL3CFGR1_PLL3SEL;
3418105c:	f002 43e0 	and.w	r3, r2, #1879048192	@ 0x70000000
      if (pllbypass == 0U)
34181060:	f012 6500 	ands.w	r5, r2, #134217728	@ 0x8000000
34181064:	d132      	bne.n	341810cc <SystemCoreClockUpdate+0x160>
        pllm = (pllcfgr & RCC_PLL3CFGR1_PLL3DIVM) >>  RCC_PLL3CFGR1_PLL3DIVM_Pos;
34181066:	f3c2 5405 	ubfx	r4, r2, #20, #6
        plln = (pllcfgr & RCC_PLL3CFGR1_PLL3DIVN) >>  RCC_PLL3CFGR1_PLL3DIVN_Pos;
3418106a:	f3c2 220b 	ubfx	r2, r2, #8, #12
        pllfracn = READ_BIT(RCC->PLL3CFGR2, RCC_PLL3CFGR2_PLL3DIVNFRAC) >>  RCC_PLL3CFGR2_PLL3DIVNFRAC_Pos;
3418106e:	4944      	ldr	r1, [pc, #272]	@ (34181180 <SystemCoreClockUpdate+0x214>)
34181070:	f8d1 00a4 	ldr.w	r0, [r1, #164]	@ 0xa4
34181074:	f020 407f 	bic.w	r0, r0, #4278190080	@ 0xff000000
        pllcfgr = READ_REG(RCC->PLL3CFGR3);
34181078:	f8d1 10a8 	ldr.w	r1, [r1, #168]	@ 0xa8
        pllp1 = (pllcfgr & RCC_PLL3CFGR3_PLL3PDIV1) >>  RCC_PLL3CFGR3_PLL3PDIV1_Pos;
3418107c:	f3c1 6cc2 	ubfx	ip, r1, #27, #3
        pllp2 = (pllcfgr & RCC_PLL3CFGR3_PLL3PDIV2) >>  RCC_PLL3CFGR3_PLL3PDIV2_Pos;
34181080:	f3c1 6102 	ubfx	r1, r1, #24, #3
34181084:	e7b1      	b.n	34180fea <SystemCoreClockUpdate+0x7e>
      pllcfgr = READ_REG(RCC->PLL4CFGR1);
34181086:	4b3e      	ldr	r3, [pc, #248]	@ (34181180 <SystemCoreClockUpdate+0x214>)
34181088:	f8d3 20b0 	ldr.w	r2, [r3, #176]	@ 0xb0
      pllsource = pllcfgr & RCC_PLL4CFGR1_PLL4SEL;
3418108c:	f002 43e0 	and.w	r3, r2, #1879048192	@ 0x70000000
      if (pllbypass == 0U)
34181090:	f012 6500 	ands.w	r5, r2, #134217728	@ 0x8000000
34181094:	d120      	bne.n	341810d8 <SystemCoreClockUpdate+0x16c>
        pllm = (pllcfgr & RCC_PLL4CFGR1_PLL4DIVM) >>  RCC_PLL4CFGR1_PLL4DIVM_Pos;
34181096:	f3c2 5405 	ubfx	r4, r2, #20, #6
        plln = (pllcfgr & RCC_PLL4CFGR1_PLL4DIVN) >>  RCC_PLL4CFGR1_PLL4DIVN_Pos;
3418109a:	f3c2 220b 	ubfx	r2, r2, #8, #12
        pllfracn = READ_BIT(RCC->PLL4CFGR2, RCC_PLL4CFGR2_PLL4DIVNFRAC) >>  RCC_PLL4CFGR2_PLL4DIVNFRAC_Pos;
3418109e:	4938      	ldr	r1, [pc, #224]	@ (34181180 <SystemCoreClockUpdate+0x214>)
341810a0:	f8d1 00b4 	ldr.w	r0, [r1, #180]	@ 0xb4
341810a4:	f020 407f 	bic.w	r0, r0, #4278190080	@ 0xff000000
        pllcfgr = READ_REG(RCC->PLL4CFGR3);
341810a8:	f8d1 10b8 	ldr.w	r1, [r1, #184]	@ 0xb8
        pllp1 = (pllcfgr & RCC_PLL4CFGR3_PLL4PDIV1) >>  RCC_PLL4CFGR3_PLL4PDIV1_Pos;
341810ac:	f3c1 6cc2 	ubfx	ip, r1, #27, #3
        pllp2 = (pllcfgr & RCC_PLL4CFGR3_PLL4PDIV2) >>  RCC_PLL4CFGR3_PLL4PDIV2_Pos;
341810b0:	f3c1 6102 	ubfx	r1, r1, #24, #3
341810b4:	e799      	b.n	34180fea <SystemCoreClockUpdate+0x7e>
  uint32_t pllp2 = 0;
341810b6:	4621      	mov	r1, r4
  uint32_t pllp1 = 0;
341810b8:	46a4      	mov	ip, r4
  uint32_t pllfracn = 0;
341810ba:	4620      	mov	r0, r4
  uint32_t plln = 0;
341810bc:	4622      	mov	r2, r4
341810be:	e794      	b.n	34180fea <SystemCoreClockUpdate+0x7e>
  uint32_t pllp2 = 0;
341810c0:	2100      	movs	r1, #0
  uint32_t pllp1 = 0;
341810c2:	468c      	mov	ip, r1
  uint32_t pllfracn = 0;
341810c4:	4608      	mov	r0, r1
  uint32_t plln = 0;
341810c6:	460a      	mov	r2, r1
  uint32_t pllm = 0;
341810c8:	460c      	mov	r4, r1
341810ca:	e78e      	b.n	34180fea <SystemCoreClockUpdate+0x7e>
  uint32_t pllp2 = 0;
341810cc:	2100      	movs	r1, #0
  uint32_t pllp1 = 0;
341810ce:	468c      	mov	ip, r1
  uint32_t pllfracn = 0;
341810d0:	4608      	mov	r0, r1
  uint32_t plln = 0;
341810d2:	460a      	mov	r2, r1
  uint32_t pllm = 0;
341810d4:	460c      	mov	r4, r1
341810d6:	e788      	b.n	34180fea <SystemCoreClockUpdate+0x7e>
  uint32_t pllp2 = 0;
341810d8:	2100      	movs	r1, #0
  uint32_t pllp1 = 0;
341810da:	468c      	mov	ip, r1
  uint32_t pllfracn = 0;
341810dc:	4608      	mov	r0, r1
  uint32_t plln = 0;
341810de:	460a      	mov	r2, r1
  uint32_t pllm = 0;
341810e0:	460c      	mov	r4, r1
341810e2:	e782      	b.n	34180fea <SystemCoreClockUpdate+0x7e>
    switch (pllsource)
341810e4:	2300      	movs	r3, #0
341810e6:	e003      	b.n	341810f0 <SystemCoreClockUpdate+0x184>
341810e8:	f1b3 5f40 	cmp.w	r3, #805306368	@ 0x30000000
341810ec:	d140      	bne.n	34181170 <SystemCoreClockUpdate+0x204>
      sysclk = EXTERNAL_I2S_CLOCK_VALUE;
341810ee:	4b28      	ldr	r3, [pc, #160]	@ (34181190 <SystemCoreClockUpdate+0x224>)
    if (pllbypass == 0U)
341810f0:	bb4d      	cbnz	r5, 34181146 <SystemCoreClockUpdate+0x1da>
      pllvco = ((float_t)sysclk * ((float_t)plln + ((float_t)pllfracn/(float_t)0x1000000UL))) / (float_t)pllm;
341810f2:	ee07 3a90 	vmov	s15, r3
341810f6:	eef8 7a67 	vcvt.f32.u32	s15, s15
341810fa:	ee07 2a10 	vmov	s14, r2
341810fe:	eeb8 7a47 	vcvt.f32.u32	s14, s14
34181102:	ee06 0a90 	vmov	s13, r0
34181106:	eef8 6a66 	vcvt.f32.u32	s13, s13
3418110a:	ed9f 6a22 	vldr	s12, [pc, #136]	@ 34181194 <SystemCoreClockUpdate+0x228>
3418110e:	ee66 6a86 	vmul.f32	s13, s13, s12
34181112:	ee37 7a26 	vadd.f32	s14, s14, s13
34181116:	ee67 7a87 	vmul.f32	s15, s15, s14
3418111a:	ee07 4a10 	vmov	s14, r4
3418111e:	eeb8 7a47 	vcvt.f32.u32	s14, s14
34181122:	eec7 6a87 	vdiv.f32	s13, s15, s14
      sysclk = (uint32_t)((float_t)(pllvco/(((float_t)pllp1) * ((float_t)pllp2))));
34181126:	ee07 ca90 	vmov	s15, ip
3418112a:	eeb8 7a67 	vcvt.f32.u32	s14, s15
3418112e:	ee07 1a90 	vmov	s15, r1
34181132:	eef8 7a67 	vcvt.f32.u32	s15, s15
34181136:	ee27 7a27 	vmul.f32	s14, s14, s15
3418113a:	eec6 7a87 	vdiv.f32	s15, s13, s14
3418113e:	eefc 7ae7 	vcvt.u32.f32	s15, s15
34181142:	ee17 3a90 	vmov	r3, s15
    ic_divider = (READ_BIT(RCC->IC1CFGR, RCC_IC1CFGR_IC1INT) >> RCC_IC1CFGR_IC1INT_Pos) + 1UL;
34181146:	4a0e      	ldr	r2, [pc, #56]	@ (34181180 <SystemCoreClockUpdate+0x214>)
34181148:	f8d2 20c4 	ldr.w	r2, [r2, #196]	@ 0xc4
3418114c:	f3c2 4207 	ubfx	r2, r2, #16, #8
34181150:	3201      	adds	r2, #1
    sysclk = sysclk / ic_divider;
34181152:	fbb3 f3f2 	udiv	r3, r3, r2
  SystemCoreClock = sysclk;
34181156:	4a0d      	ldr	r2, [pc, #52]	@ (3418118c <SystemCoreClockUpdate+0x220>)
34181158:	6013      	str	r3, [r2, #0]
}
3418115a:	bd30      	pop	{r4, r5, pc}
      sysclk = HSI_VALUE >> ((RCC->HSICFGR & RCC_HSICFGR_HSIDIV) >> RCC_HSICFGR_HSIDIV_Pos);
3418115c:	4b08      	ldr	r3, [pc, #32]	@ (34181180 <SystemCoreClockUpdate+0x214>)
3418115e:	6c9b      	ldr	r3, [r3, #72]	@ 0x48
34181160:	f3c3 1ec1 	ubfx	lr, r3, #7, #2
34181164:	4b08      	ldr	r3, [pc, #32]	@ (34181188 <SystemCoreClockUpdate+0x21c>)
34181166:	fa23 f30e 	lsr.w	r3, r3, lr
      break;
3418116a:	e7c1      	b.n	341810f0 <SystemCoreClockUpdate+0x184>
      sysclk = HSE_VALUE;
3418116c:	4b0a      	ldr	r3, [pc, #40]	@ (34181198 <SystemCoreClockUpdate+0x22c>)
3418116e:	e7bf      	b.n	341810f0 <SystemCoreClockUpdate+0x184>
    switch (pllsource)
34181170:	2300      	movs	r3, #0
34181172:	e7bd      	b.n	341810f0 <SystemCoreClockUpdate+0x184>
        sysclk = 16000000UL;
34181174:	4b09      	ldr	r3, [pc, #36]	@ (3418119c <SystemCoreClockUpdate+0x230>)
34181176:	e7bb      	b.n	341810f0 <SystemCoreClockUpdate+0x184>
    sysclk = HSE_VALUE;
34181178:	4b07      	ldr	r3, [pc, #28]	@ (34181198 <SystemCoreClockUpdate+0x22c>)
3418117a:	e751      	b.n	34181020 <SystemCoreClockUpdate+0xb4>
      sysclk = 16000000UL;
3418117c:	4b07      	ldr	r3, [pc, #28]	@ (3418119c <SystemCoreClockUpdate+0x230>)
3418117e:	e74f      	b.n	34181020 <SystemCoreClockUpdate+0xb4>
34181180:	56028000 	.word	0x56028000
34181184:	003d0900 	.word	0x003d0900
34181188:	03d09000 	.word	0x03d09000
3418118c:	3418060c 	.word	0x3418060c
34181190:	00bb8000 	.word	0x00bb8000
34181194:	33800000 	.word	0x33800000
34181198:	02dc6c00 	.word	0x02dc6c00
3418119c:	00f42400 	.word	0x00f42400

341811a0 <__acle_se_SECURE_SystemCoreClockUpdate>:
  *         be used by the user application to setup the SysTick timer or configure
  *         other parameters.
  * @retval SystemCoreClock value
  */
CMSE_NS_ENTRY uint32_t SECURE_SystemCoreClockUpdate(void)
{
341811a0:	ed6d cf81 	vstr	FPCXTNS, [sp, #-4]!
341811a4:	b500      	push	{lr}
  SystemCoreClockUpdate();
341811a6:	f7ff fee1 	bl	34180f6c <SystemCoreClockUpdate>

  return SystemCoreClock;
}
341811aa:	4b05      	ldr	r3, [pc, #20]	@ (341811c0 <__acle_se_SECURE_SystemCoreClockUpdate+0x20>)
341811ac:	6818      	ldr	r0, [r3, #0]
341811ae:	f85d eb04 	ldr.w	lr, [sp], #4
341811b2:	ec9f 0a10 	vscclrm	{s0-s15, VPR}
341811b6:	e89f 900e 	clrm	{r1, r2, r3, ip, APSR}
341811ba:	ecfd cf81 	vldr	FPCXTNS, [sp], #4
341811be:	4774      	bxns	lr
341811c0:	3418060c 	.word	0x3418060c

341811c4 <HAL_Init>:
  *         each 1ms in the SysTick_Handler() interrupt handler.
  *
  * @retval HAL status
  */
HAL_StatusTypeDef HAL_Init(void)
{
341811c4:	b510      	push	{r4, lr}
  /* Set Interrupt Group Priority */
  HAL_NVIC_SetPriorityGrouping(NVIC_PRIORITYGROUP_4);
341811c6:	2003      	movs	r0, #3
341811c8:	f000 f894 	bl	341812f4 <HAL_NVIC_SetPriorityGrouping>

  /* Ensure time base clock coherency in SystemCoreClock global variable */
  SystemCoreClockUpdate();
341811cc:	f7ff fece 	bl	34180f6c <SystemCoreClockUpdate>

  /* Initialize 1ms tick time base (default SysTick based on HSI clock after Reset) */
  if (HAL_InitTick(TICK_INT_PRIORITY) != HAL_OK)
341811d0:	200f      	movs	r0, #15
341811d2:	f006 fbb9 	bl	34187948 <HAL_InitTick>
341811d6:	b110      	cbz	r0, 341811de <HAL_Init+0x1a>
  {
    return HAL_ERROR;
341811d8:	2401      	movs	r4, #1
  /* Init the low level hardware */
  HAL_MspInit();

  /* Return function status */
  return HAL_OK;
}
341811da:	4620      	mov	r0, r4
341811dc:	bd10      	pop	{r4, pc}
341811de:	4604      	mov	r4, r0
  HAL_MspInit();
341811e0:	f7ff fd8c 	bl	34180cfc <HAL_MspInit>
  return HAL_OK;
341811e4:	e7f9      	b.n	341811da <HAL_Init+0x16>
	...

341811e8 <HAL_Delay>:
  *       implementations in user file.
  * @param Delay Specifies the delay time length, in milliseconds.
  * @retval None
  */
__weak void HAL_Delay(uint32_t Delay)
{
341811e8:	b538      	push	{r3, r4, r5, lr}
341811ea:	4604      	mov	r4, r0
  uint32_t tickstart = HAL_GetTick();
341811ec:	f006 fbc6 	bl	3418797c <HAL_GetTick>
341811f0:	4605      	mov	r5, r0
  uint32_t wait = Delay;

  /* Add a freq to guarantee minimum wait */
  if (wait < HAL_MAX_DELAY)
341811f2:	f1b4 3fff 	cmp.w	r4, #4294967295
341811f6:	d002      	beq.n	341811fe <HAL_Delay+0x16>
  {
    wait += (uint32_t)(uwTickFreq);
341811f8:	4b04      	ldr	r3, [pc, #16]	@ (3418120c <HAL_Delay+0x24>)
341811fa:	781b      	ldrb	r3, [r3, #0]
341811fc:	441c      	add	r4, r3
  }

  while ((HAL_GetTick() - tickstart) < wait)
341811fe:	f006 fbbd 	bl	3418797c <HAL_GetTick>
34181202:	1b40      	subs	r0, r0, r5
34181204:	42a0      	cmp	r0, r4
34181206:	d3fa      	bcc.n	341811fe <HAL_Delay+0x16>
  {
  }
}
34181208:	bd38      	pop	{r3, r4, r5, pc}
3418120a:	bf00      	nop
3418120c:	34180610 	.word	0x34180610

34181210 <HAL_BSEC_OTP_Reload>:
  * @param  FuseId  Fuse to be reload, this parameter value is between 0 and BSEC_NB_FUSES-1
  *
  * @retval HAL_StatusTypeDef HAL Status
  */
HAL_StatusTypeDef HAL_BSEC_OTP_Reload(BSEC_HandleTypeDef *hbsec, uint32_t FuseId)
{
34181210:	b570      	push	{r4, r5, r6, lr}
34181212:	4604      	mov	r4, r0
34181214:	460e      	mov	r6, r1
  uint32_t status_reg;
  uint32_t status_bit;
  uint32_t tick_start = HAL_GetTick();
34181216:	f006 fbb1 	bl	3418797c <HAL_GetTick>

  /* Check the handle pointer */
  if (hbsec == NULL)
3418121a:	2c00      	cmp	r4, #0
3418121c:	d043      	beq.n	341812a6 <HAL_BSEC_OTP_Reload+0x96>
3418121e:	4605      	mov	r5, r0
  {
    return HAL_ERROR;
  }

  /* Check the instance */
 if (hbsec->Instance != BSEC)
34181220:	6823      	ldr	r3, [r4, #0]
34181222:	4a22      	ldr	r2, [pc, #136]	@ (341812ac <HAL_BSEC_OTP_Reload+0x9c>)
34181224:	4293      	cmp	r3, r2
34181226:	d002      	beq.n	3418122e <HAL_BSEC_OTP_Reload+0x1e>
  {
    hbsec->ErrorCode = HAL_BSEC_ERROR_INVALID_PARAM;
34181228:	2001      	movs	r0, #1
3418122a:	6060      	str	r0, [r4, #4]
    hbsec->ErrorCode = HAL_BSEC_ERROR_INVALID_PARAM;
    return HAL_ERROR;
  }

  return HAL_OK;
}
3418122c:	bd70      	pop	{r4, r5, r6, pc}
  if (FuseId < BSEC_NB_FUSES)
3418122e:	f5b6 7fbc 	cmp.w	r6, #376	@ 0x178
34181232:	d235      	bcs.n	341812a0 <HAL_BSEC_OTP_Reload+0x90>
    status_reg = FuseId / 32U;
34181234:	0972      	lsrs	r2, r6, #5
    status_bit = (uint32_t)(1UL << (FuseId % 32U));
34181236:	f006 001f 	and.w	r0, r6, #31
3418123a:	2101      	movs	r1, #1
3418123c:	4081      	lsls	r1, r0
    if ((hbsec->Instance->SRLOCKx[status_reg] & status_bit) == 0U)
3418123e:	f502 7208 	add.w	r2, r2, #544	@ 0x220
34181242:	f853 2022 	ldr.w	r2, [r3, r2, lsl #2]
34181246:	420a      	tst	r2, r1
34181248:	d126      	bne.n	34181298 <HAL_BSEC_OTP_Reload+0x88>
      MODIFY_REG(hbsec->Instance->OTPCR, (BSEC_OTPCR_PPLOCK | BSEC_OTPCR_PROG | BSEC_OTPCR_ADDR), FuseId);
3418124a:	f8d3 2c04 	ldr.w	r2, [r3, #3076]	@ 0xc04
3418124e:	f422 42c3 	bic.w	r2, r2, #24960	@ 0x6180
34181252:	f022 027f 	bic.w	r2, r2, #127	@ 0x7f
34181256:	4332      	orrs	r2, r6
34181258:	f8c3 2c04 	str.w	r2, [r3, #3076]	@ 0xc04
      while ((hbsec->Instance->OTPSR & BSEC_OTPSR_BUSY) != 0U)
3418125c:	6823      	ldr	r3, [r4, #0]
3418125e:	f8d3 2e44 	ldr.w	r2, [r3, #3652]	@ 0xe44
34181262:	f012 0f01 	tst.w	r2, #1
34181266:	d009      	beq.n	3418127c <HAL_BSEC_OTP_Reload+0x6c>
        if ((HAL_GetTick() - tick_start) > BSEC_TIMEOUT)
34181268:	f006 fb88 	bl	3418797c <HAL_GetTick>
3418126c:	1b43      	subs	r3, r0, r5
3418126e:	f5b3 7f7a 	cmp.w	r3, #1000	@ 0x3e8
34181272:	d9f3      	bls.n	3418125c <HAL_BSEC_OTP_Reload+0x4c>
          hbsec->ErrorCode = HAL_BSEC_ERROR_TIMEOUT;
34181274:	230a      	movs	r3, #10
34181276:	6063      	str	r3, [r4, #4]
          return HAL_ERROR;
34181278:	2001      	movs	r0, #1
3418127a:	e7d7      	b.n	3418122c <HAL_BSEC_OTP_Reload+0x1c>
      if ((hbsec->Instance->OTPSR & BSEC_OTPSR_RELOAD_ERRORS) != 0U)
3418127c:	f8d3 2e44 	ldr.w	r2, [r3, #3652]	@ 0xe44
34181280:	f412 0f8c 	tst.w	r2, #4587520	@ 0x460000
34181284:	d101      	bne.n	3418128a <HAL_BSEC_OTP_Reload+0x7a>
  return HAL_OK;
34181286:	2000      	movs	r0, #0
34181288:	e7d0      	b.n	3418122c <HAL_BSEC_OTP_Reload+0x1c>
        hbsec->ErrorCode = (hbsec->Instance->OTPSR & BSEC_OTPSR_RELOAD_ERRORS);
3418128a:	f8d3 3e44 	ldr.w	r3, [r3, #3652]	@ 0xe44
3418128e:	f403 038c 	and.w	r3, r3, #4587520	@ 0x460000
34181292:	6063      	str	r3, [r4, #4]
        return HAL_ERROR;
34181294:	2001      	movs	r0, #1
34181296:	e7c9      	b.n	3418122c <HAL_BSEC_OTP_Reload+0x1c>
      hbsec->ErrorCode = HAL_BSEC_ERROR_LOCK;
34181298:	2304      	movs	r3, #4
3418129a:	6063      	str	r3, [r4, #4]
      return HAL_ERROR;
3418129c:	2001      	movs	r0, #1
3418129e:	e7c5      	b.n	3418122c <HAL_BSEC_OTP_Reload+0x1c>
    hbsec->ErrorCode = HAL_BSEC_ERROR_INVALID_PARAM;
341812a0:	2001      	movs	r0, #1
341812a2:	6060      	str	r0, [r4, #4]
    return HAL_ERROR;
341812a4:	e7c2      	b.n	3418122c <HAL_BSEC_OTP_Reload+0x1c>
    return HAL_ERROR;
341812a6:	2001      	movs	r0, #1
341812a8:	e7c0      	b.n	3418122c <HAL_BSEC_OTP_Reload+0x1c>
341812aa:	bf00      	nop
341812ac:	56009000 	.word	0x56009000

341812b0 <HAL_BSEC_OTP_Read>:
  if (hbsec == NULL)
341812b0:	b1c8      	cbz	r0, 341812e6 <HAL_BSEC_OTP_Read+0x36>
{
341812b2:	b570      	push	{r4, r5, r6, lr}
341812b4:	460d      	mov	r5, r1
341812b6:	4614      	mov	r4, r2
341812b8:	4606      	mov	r6, r0
 if ((pFuseData == NULL) || (hbsec->Instance != BSEC))
341812ba:	b11a      	cbz	r2, 341812c4 <HAL_BSEC_OTP_Read+0x14>
341812bc:	6802      	ldr	r2, [r0, #0]
341812be:	4b0c      	ldr	r3, [pc, #48]	@ (341812f0 <HAL_BSEC_OTP_Read+0x40>)
341812c0:	429a      	cmp	r2, r3
341812c2:	d002      	beq.n	341812ca <HAL_BSEC_OTP_Read+0x1a>
    hbsec->ErrorCode = HAL_BSEC_ERROR_INVALID_PARAM;
341812c4:	2001      	movs	r0, #1
341812c6:	6070      	str	r0, [r6, #4]
}
341812c8:	bd70      	pop	{r4, r5, r6, pc}
  if (FuseId < BSEC_NB_FUSES)
341812ca:	f5b1 7fbc 	cmp.w	r1, #376	@ 0x178
341812ce:	d302      	bcc.n	341812d6 <HAL_BSEC_OTP_Read+0x26>
    hbsec->ErrorCode = HAL_BSEC_ERROR_INVALID_PARAM;
341812d0:	2001      	movs	r0, #1
341812d2:	6070      	str	r0, [r6, #4]
    return HAL_ERROR;
341812d4:	e7f8      	b.n	341812c8 <HAL_BSEC_OTP_Read+0x18>
    if (HAL_BSEC_OTP_Reload(hbsec, FuseId) == HAL_OK)
341812d6:	f7ff ff9b 	bl	34181210 <HAL_BSEC_OTP_Reload>
341812da:	b930      	cbnz	r0, 341812ea <HAL_BSEC_OTP_Read+0x3a>
      *pFuseData = hbsec->Instance->FVRw[FuseId];
341812dc:	6833      	ldr	r3, [r6, #0]
341812de:	f853 3025 	ldr.w	r3, [r3, r5, lsl #2]
341812e2:	6023      	str	r3, [r4, #0]
  return HAL_OK;
341812e4:	e7f0      	b.n	341812c8 <HAL_BSEC_OTP_Read+0x18>
    return HAL_ERROR;
341812e6:	2001      	movs	r0, #1
}
341812e8:	4770      	bx	lr
      return HAL_ERROR;
341812ea:	2001      	movs	r0, #1
341812ec:	e7ec      	b.n	341812c8 <HAL_BSEC_OTP_Read+0x18>
341812ee:	bf00      	nop
341812f0:	56009000 	.word	0x56009000

341812f4 <HAL_NVIC_SetPriorityGrouping>:
__STATIC_INLINE void __NVIC_SetPriorityGrouping(uint32_t PriorityGroup)
{
  uint32_t reg_value;
  uint32_t PriorityGroupTmp = (PriorityGroup & (uint32_t)0x07UL);             /* only values 0..7 are used          */

  reg_value  =  SCB->AIRCR;                                                   /* read old register configuration    */
341812f4:	4a07      	ldr	r2, [pc, #28]	@ (34181314 <HAL_NVIC_SetPriorityGrouping+0x20>)
341812f6:	68d3      	ldr	r3, [r2, #12]
  reg_value &= ~((uint32_t)(SCB_AIRCR_VECTKEY_Msk | SCB_AIRCR_PRIGROUP_Msk)); /* clear bits to change               */
341812f8:	f423 63e0 	bic.w	r3, r3, #1792	@ 0x700
341812fc:	041b      	lsls	r3, r3, #16
341812fe:	0c1b      	lsrs	r3, r3, #16
  reg_value  =  (reg_value                                   |
                ((uint32_t)0x5FAUL << SCB_AIRCR_VECTKEY_Pos) |
                (PriorityGroupTmp << SCB_AIRCR_PRIGROUP_Pos)  );              /* Insert write key and priority group */
34181300:	0200      	lsls	r0, r0, #8
34181302:	f400 60e0 	and.w	r0, r0, #1792	@ 0x700
                ((uint32_t)0x5FAUL << SCB_AIRCR_VECTKEY_Pos) |
34181306:	4303      	orrs	r3, r0
  reg_value  =  (reg_value                                   |
34181308:	f043 63bf 	orr.w	r3, r3, #100139008	@ 0x5f80000
3418130c:	f443 3300 	orr.w	r3, r3, #131072	@ 0x20000
  SCB->AIRCR =  reg_value;
34181310:	60d3      	str	r3, [r2, #12]
  /* Check the parameters */
  assert_param(IS_NVIC_PRIORITY_GROUP(PriorityGroup));

  /* Set the PRIGROUP[10:8] bits according to the PriorityGroup parameter value */
  NVIC_SetPriorityGrouping(PriorityGroup);
}
34181312:	4770      	bx	lr
34181314:	e000ed00 	.word	0xe000ed00

34181318 <HAL_MPU_Disable>:
  __ASM volatile ("dmb 0xF":::"memory");
34181318:	f3bf 8f5f 	dmb	sy
void HAL_MPU_Disable(void)
{
  __DMB(); /* Force any outstanding transfers to complete before disabling MPU */

  /* Disable fault exceptions */
  SCB->SHCSR &= ~SCB_SHCSR_MEMFAULTENA_Msk;
3418131c:	4b07      	ldr	r3, [pc, #28]	@ (3418133c <HAL_MPU_Disable+0x24>)
3418131e:	6a5a      	ldr	r2, [r3, #36]	@ 0x24
34181320:	f422 3280 	bic.w	r2, r2, #65536	@ 0x10000
34181324:	625a      	str	r2, [r3, #36]	@ 0x24

  /* Disable the MPU */
  MPU->CTRL &= ~MPU_CTRL_ENABLE_Msk;
34181326:	f8d3 2094 	ldr.w	r2, [r3, #148]	@ 0x94
3418132a:	f022 0201 	bic.w	r2, r2, #1
3418132e:	f8c3 2094 	str.w	r2, [r3, #148]	@ 0x94
  __ASM volatile ("dsb 0xF":::"memory");
34181332:	f3bf 8f4f 	dsb	sy
  __ASM volatile ("isb 0xF":::"memory");
34181336:	f3bf 8f6f 	isb	sy

  /* Ensure MPU setting take effects */
  __DSB();
  __ISB();
}
3418133a:	4770      	bx	lr
3418133c:	e000ed00 	.word	0xe000ed00

34181340 <HAL_DMA_Abort>:
  *         is suspended while a data transfer is on-going, the current data will be transferred and the channel will be
  *         effectively suspended only after the transfer of any on-going data is finished.
  * @retval HAL status.
  */
HAL_StatusTypeDef HAL_DMA_Abort(DMA_HandleTypeDef *const hdma)
{
34181340:	b538      	push	{r3, r4, r5, lr}
34181342:	4604      	mov	r4, r0
  /* Get tick number */
  uint32_t tickstart =  HAL_GetTick();
34181344:	f006 fb1a 	bl	3418797c <HAL_GetTick>

  /* Check the DMA peripheral handle parameter */
  if (hdma == NULL)
34181348:	2c00      	cmp	r4, #0
3418134a:	d04d      	beq.n	341813e8 <HAL_DMA_Abort+0xa8>
3418134c:	4605      	mov	r5, r0
  {
    return HAL_ERROR;
  }

  /* Check DMA channel state */
  if (hdma->State != HAL_DMA_STATE_BUSY)
3418134e:	f894 3054 	ldrb.w	r3, [r4, #84]	@ 0x54
34181352:	b2db      	uxtb	r3, r3
34181354:	2b02      	cmp	r3, #2
34181356:	d006      	beq.n	34181366 <HAL_DMA_Abort+0x26>
  {
    /* Update the DMA channel error code */
    hdma->ErrorCode = HAL_DMA_ERROR_NO_XFER;
34181358:	2320      	movs	r3, #32
3418135a:	65a3      	str	r3, [r4, #88]	@ 0x58

    /* Process Unlocked */
    __HAL_UNLOCK(hdma);
3418135c:	2300      	movs	r3, #0
3418135e:	f884 304c 	strb.w	r3, [r4, #76]	@ 0x4c

    return HAL_ERROR;
34181362:	2001      	movs	r0, #1
    /* Process Unlocked */
    __HAL_UNLOCK(hdma);
  }

  return HAL_OK;
}
34181364:	bd38      	pop	{r3, r4, r5, pc}
    hdma->Instance->CCR |= DMA_CCR_SUSP;
34181366:	6822      	ldr	r2, [r4, #0]
34181368:	6953      	ldr	r3, [r2, #20]
3418136a:	f043 0304 	orr.w	r3, r3, #4
3418136e:	6153      	str	r3, [r2, #20]
    hdma->State = HAL_DMA_STATE_SUSPEND;
34181370:	2305      	movs	r3, #5
34181372:	f884 3054 	strb.w	r3, [r4, #84]	@ 0x54
    while ((hdma->Instance->CSR & DMA_CSR_SUSPF) == 0U)
34181376:	6823      	ldr	r3, [r4, #0]
34181378:	691a      	ldr	r2, [r3, #16]
3418137a:	f412 5f00 	tst.w	r2, #8192	@ 0x2000
3418137e:	d117      	bne.n	341813b0 <HAL_DMA_Abort+0x70>
      if ((HAL_GetTick() - tickstart) > HAL_TIMEOUT_DMA_ABORT)
34181380:	f006 fafc 	bl	3418797c <HAL_GetTick>
34181384:	1b43      	subs	r3, r0, r5
34181386:	2b05      	cmp	r3, #5
34181388:	d9f5      	bls.n	34181376 <HAL_DMA_Abort+0x36>
        hdma->ErrorCode |= HAL_DMA_ERROR_TIMEOUT;
3418138a:	6da3      	ldr	r3, [r4, #88]	@ 0x58
3418138c:	f043 0310 	orr.w	r3, r3, #16
34181390:	65a3      	str	r3, [r4, #88]	@ 0x58
        hdma->State = HAL_DMA_STATE_ERROR;
34181392:	2303      	movs	r3, #3
34181394:	f884 3054 	strb.w	r3, [r4, #84]	@ 0x54
        if ((hdma->Mode & DMA_LINKEDLIST) == DMA_LINKEDLIST)
34181398:	6d23      	ldr	r3, [r4, #80]	@ 0x50
3418139a:	f013 0f80 	tst.w	r3, #128	@ 0x80
3418139e:	d002      	beq.n	341813a6 <HAL_DMA_Abort+0x66>
          hdma->LinkedListQueue->State = HAL_DMA_QUEUE_STATE_READY;
341813a0:	6f63      	ldr	r3, [r4, #116]	@ 0x74
341813a2:	2201      	movs	r2, #1
341813a4:	731a      	strb	r2, [r3, #12]
        __HAL_UNLOCK(hdma);
341813a6:	2300      	movs	r3, #0
341813a8:	f884 304c 	strb.w	r3, [r4, #76]	@ 0x4c
        return HAL_ERROR;
341813ac:	2001      	movs	r0, #1
341813ae:	e7d9      	b.n	34181364 <HAL_DMA_Abort+0x24>
    hdma->Instance->CCR |= DMA_CCR_RESET;
341813b0:	695a      	ldr	r2, [r3, #20]
341813b2:	f042 0202 	orr.w	r2, r2, #2
341813b6:	615a      	str	r2, [r3, #20]
    hdma->State = HAL_DMA_STATE_ABORT;
341813b8:	2304      	movs	r3, #4
341813ba:	f884 3054 	strb.w	r3, [r4, #84]	@ 0x54
    __HAL_DMA_CLEAR_FLAG(hdma, (DMA_FLAG_TC | DMA_FLAG_HT | DMA_FLAG_DTE | DMA_FLAG_ULE | DMA_FLAG_USE | DMA_FLAG_SUSP |
341813be:	6823      	ldr	r3, [r4, #0]
341813c0:	f44f 42fe 	mov.w	r2, #32512	@ 0x7f00
341813c4:	60da      	str	r2, [r3, #12]
    hdma->State = HAL_DMA_STATE_READY;
341813c6:	2301      	movs	r3, #1
341813c8:	f884 3054 	strb.w	r3, [r4, #84]	@ 0x54
    if ((hdma->Mode & DMA_LINKEDLIST) == DMA_LINKEDLIST)
341813cc:	6d23      	ldr	r3, [r4, #80]	@ 0x50
341813ce:	f013 0f80 	tst.w	r3, #128	@ 0x80
341813d2:	d005      	beq.n	341813e0 <HAL_DMA_Abort+0xa0>
      hdma->LinkedListQueue->State = HAL_DMA_QUEUE_STATE_READY;
341813d4:	6f63      	ldr	r3, [r4, #116]	@ 0x74
341813d6:	2201      	movs	r2, #1
341813d8:	731a      	strb	r2, [r3, #12]
      hdma->Instance->CBR1 = 0U;
341813da:	6823      	ldr	r3, [r4, #0]
341813dc:	2200      	movs	r2, #0
341813de:	649a      	str	r2, [r3, #72]	@ 0x48
    __HAL_UNLOCK(hdma);
341813e0:	2000      	movs	r0, #0
341813e2:	f884 004c 	strb.w	r0, [r4, #76]	@ 0x4c
  return HAL_OK;
341813e6:	e7bd      	b.n	34181364 <HAL_DMA_Abort+0x24>
    return HAL_ERROR;
341813e8:	2001      	movs	r0, #1
341813ea:	e7bb      	b.n	34181364 <HAL_DMA_Abort+0x24>

341813ec <HAL_GPIO_Init>:
  * @param  GPIO_Init pointer to a GPIO_InitTypeDef structure that contains
  *         the configuration information for the specified GPIO peripheral.
  * @retval None
  */
void HAL_GPIO_Init(GPIO_TypeDef  *GPIOx, const GPIO_InitTypeDef *GPIO_Init)
{
341813ec:	b5f0      	push	{r4, r5, r6, r7, lr}
  uint32_t position = 0x00u;
341813ee:	2300      	movs	r3, #0
  assert_param(IS_GPIO_ALL_INSTANCE(GPIOx));
  assert_param(IS_GPIO_PIN(GPIO_Init->Pin));
  assert_param(IS_GPIO_MODE(GPIO_Init->Mode));

  /* Configure the port pins */
  while (((GPIO_Init->Pin) >> position) != 0x00u)
341813f0:	e069      	b.n	341814c6 <HAL_GPIO_Init+0xda>
      {
        /* Check the Speed parameter */
        assert_param(IS_GPIO_SPEED(GPIO_Init->Speed));

        /* Configure the IO Speed */
        temp = GPIOx->OSPEEDR;
341813f2:	6885      	ldr	r5, [r0, #8]
        temp &= ~(GPIO_OSPEEDR_OSPEED0 << (position * GPIO_OSPEEDR_OSPEED1_Pos));
341813f4:	005e      	lsls	r6, r3, #1
341813f6:	2403      	movs	r4, #3
341813f8:	40b4      	lsls	r4, r6
341813fa:	ea25 0504 	bic.w	r5, r5, r4
        temp |= (GPIO_Init->Speed << (position * GPIO_OSPEEDR_OSPEED1_Pos));
341813fe:	68cc      	ldr	r4, [r1, #12]
34181400:	40b4      	lsls	r4, r6
34181402:	432c      	orrs	r4, r5
        GPIOx->OSPEEDR = temp;
34181404:	6084      	str	r4, [r0, #8]

        /* Configure the IO Output Type */
        temp = GPIOx->OTYPER;
34181406:	6845      	ldr	r5, [r0, #4]
        temp &= ~(GPIO_OTYPER_OT0 << position) ;
34181408:	ea25 050c 	bic.w	r5, r5, ip
        temp |= (((GPIO_Init->Mode & OUTPUT_TYPE) >> OUTPUT_TYPE_Pos) << position);
3418140c:	684c      	ldr	r4, [r1, #4]
3418140e:	f3c4 1400 	ubfx	r4, r4, #4, #1
34181412:	409c      	lsls	r4, r3
34181414:	432c      	orrs	r4, r5
        GPIOx->OTYPER = temp;
34181416:	6044      	str	r4, [r0, #4]
34181418:	e067      	b.n	341814ea <HAL_GPIO_Init+0xfe>
      }

      if (((GPIO_Init->Mode & GPIO_MODE) != MODE_ANALOG) ||
          (((GPIO_Init->Mode & GPIO_MODE) == MODE_ANALOG) && (GPIO_Init->Pull != GPIO_PULLUP)))
3418141a:	688c      	ldr	r4, [r1, #8]
      if (((GPIO_Init->Mode & GPIO_MODE) != MODE_ANALOG) ||
3418141c:	2c01      	cmp	r4, #1
3418141e:	d169      	bne.n	341814f4 <HAL_GPIO_Init+0x108>
34181420:	e077      	b.n	34181512 <HAL_GPIO_Init+0x126>
        /* Check the Alternate function parameters */
        assert_param(IS_GPIO_AF_INSTANCE(GPIOx));
        assert_param(IS_GPIO_AF(GPIO_Init->Alternate));

        /* Configure Alternate function mapped with the current IO */
        temp = GPIOx->AFR[position >> 3u];
34181422:	08dd      	lsrs	r5, r3, #3
34181424:	3508      	adds	r5, #8
34181426:	f850 4025 	ldr.w	r4, [r0, r5, lsl #2]
        temp &= ~(0xFu << ((position & 0x07u) * GPIO_AFRL_AFSEL1_Pos));
3418142a:	f003 0c07 	and.w	ip, r3, #7
3418142e:	ea4f 0c8c 	mov.w	ip, ip, lsl #2
34181432:	f04f 0e0f 	mov.w	lr, #15
34181436:	fa0e fe0c 	lsl.w	lr, lr, ip
3418143a:	ea24 0e0e 	bic.w	lr, r4, lr
        temp |= ((GPIO_Init->Alternate) << ((position & 0x07u) * GPIO_AFRL_AFSEL1_Pos));
3418143e:	690c      	ldr	r4, [r1, #16]
34181440:	fa04 f40c 	lsl.w	r4, r4, ip
34181444:	ea44 040e 	orr.w	r4, r4, lr
        GPIOx->AFR[position >> 3u] = temp;
34181448:	f840 4025 	str.w	r4, [r0, r5, lsl #2]
3418144c:	e066      	b.n	3418151c <HAL_GPIO_Init+0x130>
      /* Configure the External Interrupt or event for the current IO */
      if ((GPIO_Init->Mode & EXTI_MODE) != 0x00u)
      {
        temp = EXTI->EXTICR[position >> 2u];
        temp &= ~(0x0FuL << ((position & 0x03u) * EXTI_EXTICR1_EXTI1_Pos));
        temp |= (GPIO_GET_INDEX(GPIOx) << ((position & 0x03u) * EXTI_EXTICR1_EXTI1_Pos));
3418144e:	240b      	movs	r4, #11
34181450:	e000      	b.n	34181454 <HAL_GPIO_Init+0x68>
34181452:	2400      	movs	r4, #0
34181454:	fa04 f40e 	lsl.w	r4, r4, lr
34181458:	432c      	orrs	r4, r5
        EXTI->EXTICR[position >> 2u] = temp;
3418145a:	4d67      	ldr	r5, [pc, #412]	@ (341815f8 <HAL_GPIO_Init+0x20c>)
3418145c:	f10c 0c18 	add.w	ip, ip, #24
34181460:	f845 402c 	str.w	r4, [r5, ip, lsl #2]

        /* Clear EXTI line configuration */
        temp = EXTI->IMR1;
34181464:	f8d5 5080 	ldr.w	r5, [r5, #128]	@ 0x80
        temp &= ~(iocurrent);
34181468:	43d4      	mvns	r4, r2
3418146a:	ea25 0602 	bic.w	r6, r5, r2
        if ((GPIO_Init->Mode & EXTI_IT) != 0x00u)
3418146e:	684f      	ldr	r7, [r1, #4]
34181470:	f417 3f80 	tst.w	r7, #65536	@ 0x10000
34181474:	d001      	beq.n	3418147a <HAL_GPIO_Init+0x8e>
        {
          temp |= iocurrent;
34181476:	ea42 0605 	orr.w	r6, r2, r5
        }
        EXTI->IMR1 = temp;
3418147a:	4d5f      	ldr	r5, [pc, #380]	@ (341815f8 <HAL_GPIO_Init+0x20c>)
3418147c:	f8c5 6080 	str.w	r6, [r5, #128]	@ 0x80

        temp = EXTI->EMR1;
34181480:	f8d5 5084 	ldr.w	r5, [r5, #132]	@ 0x84
        temp &= ~(iocurrent);
34181484:	ea04 0605 	and.w	r6, r4, r5
        if ((GPIO_Init->Mode & EXTI_EVT) != 0x00u)
34181488:	684f      	ldr	r7, [r1, #4]
3418148a:	f417 3f00 	tst.w	r7, #131072	@ 0x20000
3418148e:	d001      	beq.n	34181494 <HAL_GPIO_Init+0xa8>
        {
          temp |= iocurrent;
34181490:	ea42 0605 	orr.w	r6, r2, r5
        }
        EXTI->EMR1 = temp;
34181494:	4d58      	ldr	r5, [pc, #352]	@ (341815f8 <HAL_GPIO_Init+0x20c>)
34181496:	f8c5 6084 	str.w	r6, [r5, #132]	@ 0x84

        /* Clear Rising Falling edge configuration */
        temp = EXTI->RTSR1;
3418149a:	682d      	ldr	r5, [r5, #0]
        temp &= ~(iocurrent);
3418149c:	ea04 0605 	and.w	r6, r4, r5
        if ((GPIO_Init->Mode & TRIGGER_RISING) != 0x00u)
341814a0:	684f      	ldr	r7, [r1, #4]
341814a2:	f417 1f80 	tst.w	r7, #1048576	@ 0x100000
341814a6:	d001      	beq.n	341814ac <HAL_GPIO_Init+0xc0>
        {
          temp |= iocurrent;
341814a8:	ea42 0605 	orr.w	r6, r2, r5
        }
        EXTI->RTSR1 = temp;
341814ac:	4d52      	ldr	r5, [pc, #328]	@ (341815f8 <HAL_GPIO_Init+0x20c>)
341814ae:	602e      	str	r6, [r5, #0]

        temp = EXTI->FTSR1;
341814b0:	686d      	ldr	r5, [r5, #4]
        temp &= ~(iocurrent);
341814b2:	402c      	ands	r4, r5
        if ((GPIO_Init->Mode & TRIGGER_FALLING) != 0x00u)
341814b4:	684e      	ldr	r6, [r1, #4]
341814b6:	f416 1f00 	tst.w	r6, #2097152	@ 0x200000
341814ba:	d001      	beq.n	341814c0 <HAL_GPIO_Init+0xd4>
        {
          temp |= iocurrent;
341814bc:	ea42 0405 	orr.w	r4, r2, r5
        }
        EXTI->FTSR1 = temp;
341814c0:	4a4d      	ldr	r2, [pc, #308]	@ (341815f8 <HAL_GPIO_Init+0x20c>)
341814c2:	6054      	str	r4, [r2, #4]
      }
    }

    position++;
341814c4:	3301      	adds	r3, #1
  while (((GPIO_Init->Pin) >> position) != 0x00u)
341814c6:	680a      	ldr	r2, [r1, #0]
341814c8:	fa32 f403 	lsrs.w	r4, r2, r3
341814cc:	f000 8092 	beq.w	341815f4 <HAL_GPIO_Init+0x208>
    iocurrent = (GPIO_Init->Pin) & (1uL << position);
341814d0:	f04f 0c01 	mov.w	ip, #1
341814d4:	fa0c fc03 	lsl.w	ip, ip, r3
    if (iocurrent != 0x00u)
341814d8:	ea1c 0202 	ands.w	r2, ip, r2
341814dc:	d0f2      	beq.n	341814c4 <HAL_GPIO_Init+0xd8>
      if (((GPIO_Init->Mode & GPIO_MODE) == MODE_OUTPUT) || ((GPIO_Init->Mode & GPIO_MODE) == MODE_AF))
341814de:	684c      	ldr	r4, [r1, #4]
341814e0:	f004 0403 	and.w	r4, r4, #3
341814e4:	3c01      	subs	r4, #1
341814e6:	2c01      	cmp	r4, #1
341814e8:	d983      	bls.n	341813f2 <HAL_GPIO_Init+0x6>
      if (((GPIO_Init->Mode & GPIO_MODE) != MODE_ANALOG) ||
341814ea:	684c      	ldr	r4, [r1, #4]
341814ec:	f004 0403 	and.w	r4, r4, #3
341814f0:	2c03      	cmp	r4, #3
341814f2:	d092      	beq.n	3418141a <HAL_GPIO_Init+0x2e>
        temp = GPIOx->PUPDR;
341814f4:	68c4      	ldr	r4, [r0, #12]
        temp &= ~(GPIO_PUPDR_PUPD0 << (position * GPIO_PUPDR_PUPD1_Pos));
341814f6:	ea4f 0e43 	mov.w	lr, r3, lsl #1
341814fa:	f04f 0c03 	mov.w	ip, #3
341814fe:	fa0c fc0e 	lsl.w	ip, ip, lr
34181502:	ea24 0c0c 	bic.w	ip, r4, ip
        temp |= ((GPIO_Init->Pull) << (position * GPIO_PUPDR_PUPD1_Pos));
34181506:	688c      	ldr	r4, [r1, #8]
34181508:	fa04 f40e 	lsl.w	r4, r4, lr
3418150c:	ea44 040c 	orr.w	r4, r4, ip
        GPIOx->PUPDR = temp;
34181510:	60c4      	str	r4, [r0, #12]
      if ((GPIO_Init->Mode & GPIO_MODE) == MODE_AF)
34181512:	684c      	ldr	r4, [r1, #4]
34181514:	f004 0403 	and.w	r4, r4, #3
34181518:	2c02      	cmp	r4, #2
3418151a:	d082      	beq.n	34181422 <HAL_GPIO_Init+0x36>
      temp = GPIOx->MODER;
3418151c:	6804      	ldr	r4, [r0, #0]
      temp &= ~(GPIO_MODER_MODE0 << (position * GPIO_MODER_MODE1_Pos));
3418151e:	ea4f 0e43 	mov.w	lr, r3, lsl #1
34181522:	f04f 0c03 	mov.w	ip, #3
34181526:	fa0c fc0e 	lsl.w	ip, ip, lr
3418152a:	ea24 0c0c 	bic.w	ip, r4, ip
      temp |= ((GPIO_Init->Mode & GPIO_MODE) << (position * GPIO_MODER_MODE1_Pos));
3418152e:	684c      	ldr	r4, [r1, #4]
34181530:	f004 0403 	and.w	r4, r4, #3
34181534:	fa04 f40e 	lsl.w	r4, r4, lr
34181538:	ea44 040c 	orr.w	r4, r4, ip
      GPIOx->MODER = temp;
3418153c:	6004      	str	r4, [r0, #0]
      if ((GPIO_Init->Mode & EXTI_MODE) != 0x00u)
3418153e:	684c      	ldr	r4, [r1, #4]
34181540:	f414 3f40 	tst.w	r4, #196608	@ 0x30000
34181544:	d0be      	beq.n	341814c4 <HAL_GPIO_Init+0xd8>
        temp = EXTI->EXTICR[position >> 2u];
34181546:	ea4f 0c93 	mov.w	ip, r3, lsr #2
3418154a:	f10c 0518 	add.w	r5, ip, #24
3418154e:	4c2a      	ldr	r4, [pc, #168]	@ (341815f8 <HAL_GPIO_Init+0x20c>)
34181550:	f854 5025 	ldr.w	r5, [r4, r5, lsl #2]
        temp &= ~(0x0FuL << ((position & 0x03u) * EXTI_EXTICR1_EXTI1_Pos));
34181554:	f003 0e03 	and.w	lr, r3, #3
34181558:	ea4f 0ece 	mov.w	lr, lr, lsl #3
3418155c:	240f      	movs	r4, #15
3418155e:	fa04 f40e 	lsl.w	r4, r4, lr
34181562:	ea25 0504 	bic.w	r5, r5, r4
        temp |= (GPIO_GET_INDEX(GPIOx) << ((position & 0x03u) * EXTI_EXTICR1_EXTI1_Pos));
34181566:	4c25      	ldr	r4, [pc, #148]	@ (341815fc <HAL_GPIO_Init+0x210>)
34181568:	42a0      	cmp	r0, r4
3418156a:	f43f af72 	beq.w	34181452 <HAL_GPIO_Init+0x66>
3418156e:	f504 6480 	add.w	r4, r4, #1024	@ 0x400
34181572:	42a0      	cmp	r0, r4
34181574:	d02a      	beq.n	341815cc <HAL_GPIO_Init+0x1e0>
34181576:	f504 6480 	add.w	r4, r4, #1024	@ 0x400
3418157a:	42a0      	cmp	r0, r4
3418157c:	d028      	beq.n	341815d0 <HAL_GPIO_Init+0x1e4>
3418157e:	f504 6480 	add.w	r4, r4, #1024	@ 0x400
34181582:	42a0      	cmp	r0, r4
34181584:	d026      	beq.n	341815d4 <HAL_GPIO_Init+0x1e8>
34181586:	f504 6480 	add.w	r4, r4, #1024	@ 0x400
3418158a:	42a0      	cmp	r0, r4
3418158c:	d024      	beq.n	341815d8 <HAL_GPIO_Init+0x1ec>
3418158e:	f504 6480 	add.w	r4, r4, #1024	@ 0x400
34181592:	42a0      	cmp	r0, r4
34181594:	d022      	beq.n	341815dc <HAL_GPIO_Init+0x1f0>
34181596:	f504 6480 	add.w	r4, r4, #1024	@ 0x400
3418159a:	42a0      	cmp	r0, r4
3418159c:	d020      	beq.n	341815e0 <HAL_GPIO_Init+0x1f4>
3418159e:	f504 6480 	add.w	r4, r4, #1024	@ 0x400
341815a2:	42a0      	cmp	r0, r4
341815a4:	d01e      	beq.n	341815e4 <HAL_GPIO_Init+0x1f8>
341815a6:	f504 54c0 	add.w	r4, r4, #6144	@ 0x1800
341815aa:	42a0      	cmp	r0, r4
341815ac:	d01c      	beq.n	341815e8 <HAL_GPIO_Init+0x1fc>
341815ae:	f504 6480 	add.w	r4, r4, #1024	@ 0x400
341815b2:	42a0      	cmp	r0, r4
341815b4:	d01a      	beq.n	341815ec <HAL_GPIO_Init+0x200>
341815b6:	f504 6480 	add.w	r4, r4, #1024	@ 0x400
341815ba:	42a0      	cmp	r0, r4
341815bc:	d018      	beq.n	341815f0 <HAL_GPIO_Init+0x204>
341815be:	f504 6480 	add.w	r4, r4, #1024	@ 0x400
341815c2:	42a0      	cmp	r0, r4
341815c4:	f43f af43 	beq.w	3418144e <HAL_GPIO_Init+0x62>
341815c8:	2410      	movs	r4, #16
341815ca:	e743      	b.n	34181454 <HAL_GPIO_Init+0x68>
341815cc:	2401      	movs	r4, #1
341815ce:	e741      	b.n	34181454 <HAL_GPIO_Init+0x68>
341815d0:	2402      	movs	r4, #2
341815d2:	e73f      	b.n	34181454 <HAL_GPIO_Init+0x68>
341815d4:	2403      	movs	r4, #3
341815d6:	e73d      	b.n	34181454 <HAL_GPIO_Init+0x68>
341815d8:	2404      	movs	r4, #4
341815da:	e73b      	b.n	34181454 <HAL_GPIO_Init+0x68>
341815dc:	2405      	movs	r4, #5
341815de:	e739      	b.n	34181454 <HAL_GPIO_Init+0x68>
341815e0:	2406      	movs	r4, #6
341815e2:	e737      	b.n	34181454 <HAL_GPIO_Init+0x68>
341815e4:	2407      	movs	r4, #7
341815e6:	e735      	b.n	34181454 <HAL_GPIO_Init+0x68>
341815e8:	2408      	movs	r4, #8
341815ea:	e733      	b.n	34181454 <HAL_GPIO_Init+0x68>
341815ec:	2409      	movs	r4, #9
341815ee:	e731      	b.n	34181454 <HAL_GPIO_Init+0x68>
341815f0:	240a      	movs	r4, #10
341815f2:	e72f      	b.n	34181454 <HAL_GPIO_Init+0x68>
  }
}
341815f4:	bdf0      	pop	{r4, r5, r6, r7, pc}
341815f6:	bf00      	nop
341815f8:	56025000 	.word	0x56025000
341815fc:	56020000 	.word	0x56020000

34181600 <HAL_PWREx_ConfigSupply>:
  * @note: The power supply configuration is not reset by wakeup from Standby mode and
  *        application reset, but only reset by VDD POR.
  * @retval HAL status.
  */
HAL_StatusTypeDef HAL_PWREx_ConfigSupply(uint32_t SupplySource)
{
34181600:	b510      	push	{r4, lr}

  /* Check the parameters */
  assert_param(IS_PWR_SUPPLY(SupplySource));

  /* Set the power supply configuration */
  MODIFY_REG(PWR->CR1, PWR_SUPPLY_CONFIG_MASK, SupplySource);
34181602:	4a0c      	ldr	r2, [pc, #48]	@ (34181634 <HAL_PWREx_ConfigSupply+0x34>)
34181604:	6813      	ldr	r3, [r2, #0]
34181606:	f023 0304 	bic.w	r3, r3, #4
3418160a:	4303      	orrs	r3, r0
3418160c:	6013      	str	r3, [r2, #0]

  /* Get tick */
  tickstart = HAL_GetTick();
3418160e:	f006 f9b5 	bl	3418797c <HAL_GetTick>
34181612:	4604      	mov	r4, r0

  /* Wait till voltage level flag is set */
  while ((PWR->VOSCR & PWR_VOSCR_ACTVOSRDY) == 0U)
34181614:	4b07      	ldr	r3, [pc, #28]	@ (34181634 <HAL_PWREx_ConfigSupply+0x34>)
34181616:	6a1b      	ldr	r3, [r3, #32]
34181618:	f413 3f00 	tst.w	r3, #131072	@ 0x20000
3418161c:	d107      	bne.n	3418162e <HAL_PWREx_ConfigSupply+0x2e>
  {
    if ((HAL_GetTick() - tickstart) > PWR_FLAG_SETTING_DELAY)
3418161e:	f006 f9ad 	bl	3418797c <HAL_GetTick>
34181622:	1b00      	subs	r0, r0, r4
34181624:	f5b0 7f7a 	cmp.w	r0, #1000	@ 0x3e8
34181628:	d9f4      	bls.n	34181614 <HAL_PWREx_ConfigSupply+0x14>
    {
      return HAL_ERROR;
3418162a:	2001      	movs	r0, #1
3418162c:	e000      	b.n	34181630 <HAL_PWREx_ConfigSupply+0x30>
    }
  }

  return HAL_OK;
3418162e:	2000      	movs	r0, #0
}
34181630:	bd10      	pop	{r4, pc}
34181632:	bf00      	nop
34181634:	56024800 	.word	0x56024800

34181638 <HAL_PWREx_ConfigVddIORange>:
{
  /* Check the parameters */
  assert_param(IS_PWR_VDDIO(VddIOPort));
  assert_param(IS_PWR_VDDIO_RANGE(VoltageRange));

  switch (VddIOPort)
34181638:	2804      	cmp	r0, #4
3418163a:	d82b      	bhi.n	34181694 <HAL_PWREx_ConfigVddIORange+0x5c>
3418163c:	e8df f000 	tbb	[pc, r0]
34181640:	1b130b03 	.word	0x1b130b03
34181644:	23          	.byte	0x23
34181645:	00          	.byte	0x00
  {
    case PWR_VDDIO:
      MODIFY_REG(PWR->SVMCR3, PWR_SVMCR3_VDDIOVRSEL, VoltageRange << PWR_SVMCR3_VDDIOVRSEL_Pos);
34181646:	4a14      	ldr	r2, [pc, #80]	@ (34181698 <HAL_PWREx_ConfigVddIORange+0x60>)
34181648:	6bd3      	ldr	r3, [r2, #60]	@ 0x3c
3418164a:	f023 7380 	bic.w	r3, r3, #16777216	@ 0x1000000
3418164e:	ea43 6301 	orr.w	r3, r3, r1, lsl #24
34181652:	63d3      	str	r3, [r2, #60]	@ 0x3c
      break;
34181654:	4770      	bx	lr

    case PWR_VDDIO2:
      MODIFY_REG(PWR->SVMCR3, PWR_SVMCR3_VDDIO2VRSEL, VoltageRange << PWR_SVMCR3_VDDIO2VRSEL_Pos);
34181656:	4a10      	ldr	r2, [pc, #64]	@ (34181698 <HAL_PWREx_ConfigVddIORange+0x60>)
34181658:	6bd3      	ldr	r3, [r2, #60]	@ 0x3c
3418165a:	f023 7300 	bic.w	r3, r3, #33554432	@ 0x2000000
3418165e:	ea43 6341 	orr.w	r3, r3, r1, lsl #25
34181662:	63d3      	str	r3, [r2, #60]	@ 0x3c
      break;
34181664:	4770      	bx	lr

    case PWR_VDDIO3:
      MODIFY_REG(PWR->SVMCR3, PWR_SVMCR3_VDDIO3VRSEL, VoltageRange << PWR_SVMCR3_VDDIO3VRSEL_Pos);
34181666:	4a0c      	ldr	r2, [pc, #48]	@ (34181698 <HAL_PWREx_ConfigVddIORange+0x60>)
34181668:	6bd3      	ldr	r3, [r2, #60]	@ 0x3c
3418166a:	f023 6380 	bic.w	r3, r3, #67108864	@ 0x4000000
3418166e:	ea43 6381 	orr.w	r3, r3, r1, lsl #26
34181672:	63d3      	str	r3, [r2, #60]	@ 0x3c
      break;
34181674:	4770      	bx	lr

    case PWR_VDDIO4:
      MODIFY_REG(PWR->SVMCR1, PWR_SVMCR1_VDDIO4VRSEL, VoltageRange << PWR_SVMCR1_VDDIO4VRSEL_Pos);
34181676:	4a08      	ldr	r2, [pc, #32]	@ (34181698 <HAL_PWREx_ConfigVddIORange+0x60>)
34181678:	6b53      	ldr	r3, [r2, #52]	@ 0x34
3418167a:	f023 7380 	bic.w	r3, r3, #16777216	@ 0x1000000
3418167e:	ea43 6301 	orr.w	r3, r3, r1, lsl #24
34181682:	6353      	str	r3, [r2, #52]	@ 0x34
      break;
34181684:	4770      	bx	lr

    case PWR_VDDIO5:
      MODIFY_REG(PWR->SVMCR2, PWR_SVMCR2_VDDIO5VRSEL, VoltageRange << PWR_SVMCR2_VDDIO5VRSEL_Pos);
34181686:	4a04      	ldr	r2, [pc, #16]	@ (34181698 <HAL_PWREx_ConfigVddIORange+0x60>)
34181688:	6b93      	ldr	r3, [r2, #56]	@ 0x38
3418168a:	f023 7380 	bic.w	r3, r3, #16777216	@ 0x1000000
3418168e:	ea43 6301 	orr.w	r3, r3, r1, lsl #24
34181692:	6393      	str	r3, [r2, #56]	@ 0x38
      break;

    default:
      break;
  }
}
34181694:	4770      	bx	lr
34181696:	bf00      	nop
34181698:	56024800 	.word	0x56024800

3418169c <HAL_PWREx_EnableVddIO3>:
  * @note   Setting this bit is mandatory to use PN[12:0] I/Os.
  * @retval None.
  */
void HAL_PWREx_EnableVddIO3(void)
{
  SET_BIT(PWR->SVMCR3, PWR_SVMCR3_VDDIO3SV);
3418169c:	4a02      	ldr	r2, [pc, #8]	@ (341816a8 <HAL_PWREx_EnableVddIO3+0xc>)
3418169e:	6bd3      	ldr	r3, [r2, #60]	@ 0x3c
341816a0:	f443 7300 	orr.w	r3, r3, #512	@ 0x200
341816a4:	63d3      	str	r3, [r2, #60]	@ 0x3c
}
341816a6:	4770      	bx	lr
341816a8:	56024800 	.word	0x56024800

341816ac <RCC_PLL_IsNewConfig>:
  * @param  pPLLInit Pointer to an RCC_PLLInitTypeDef structure that
  *                  contains the configuration parameters.  *
  * @retval 1 if success else 0
  */
static uint32_t RCC_PLL_IsNewConfig(uint32_t PLLnumber, const RCC_PLLInitTypeDef *pPLLInit)
{
341816ac:	b430      	push	{r4, r5}
  __IO const uint32_t *p_rcc_pll_cfgr1_reg, *p_rcc_pll_cfgr2_reg, *p_rcc_pll_cfgr3_reg;
  uint32_t ret = 0U;

  /* No assert since done in calling function */

  p_rcc_pll_cfgr1_reg = &(RCC->PLL1CFGR1) + (((uint32_t)0x4) * PLLnumber);
341816ae:	ea4f 1c00 	mov.w	ip, r0, lsl #4
341816b2:	4c21      	ldr	r4, [pc, #132]	@ (34181738 <RCC_PLL_IsNewConfig+0x8c>)
  p_rcc_pll_cfgr3_reg = &(RCC->PLL1CFGR3) + (((uint32_t)0x4) * PLLnumber);

  /* !!! WARNING: ONLY INTEGER AND FRACTIONAL MODES MANAGED TODAY !!! */

  /* Check for PLLCFGR1, PLLCFGR2 and PLLCFGR3 parameters updates */
  if ((*p_rcc_pll_cfgr1_reg & (RCC_PLL1CFGR1_PLL1SEL | RCC_PLL1CFGR1_PLL1DIVM | RCC_PLL1CFGR1_PLL1DIVN)) != \
341816b4:	f85c 2004 	ldr.w	r2, [ip, r4]
341816b8:	f022 420c 	bic.w	r2, r2, #2348810240	@ 0x8c000000
341816bc:	f022 02ff 	bic.w	r2, r2, #255	@ 0xff
      (pPLLInit->PLLSource | (pPLLInit->PLLM << RCC_PLL1CFGR1_PLL1DIVM_Pos) \
341816c0:	684b      	ldr	r3, [r1, #4]
341816c2:	688d      	ldr	r5, [r1, #8]
341816c4:	ea43 5305 	orr.w	r3, r3, r5, lsl #20
       | (pPLLInit->PLLN << RCC_PLL1CFGR1_PLL1DIVN_Pos)))
341816c8:	690d      	ldr	r5, [r1, #16]
341816ca:	ea43 2305 	orr.w	r3, r3, r5, lsl #8
  if ((*p_rcc_pll_cfgr1_reg & (RCC_PLL1CFGR1_PLL1SEL | RCC_PLL1CFGR1_PLL1DIVM | RCC_PLL1CFGR1_PLL1DIVN)) != \
341816ce:	429a      	cmp	r2, r3
341816d0:	d002      	beq.n	341816d8 <RCC_PLL_IsNewConfig+0x2c>
  {
    ret = 1U; /* New PLL configuration */
341816d2:	2001      	movs	r0, #1
      ret = 1U; /* New PLL configuration */
    }
  }

  return ret;
}
341816d4:	bc30      	pop	{r4, r5}
341816d6:	4770      	bx	lr
  else if ((*p_rcc_pll_cfgr2_reg & RCC_PLL1CFGR2_PLL1DIVNFRAC) != \
341816d8:	4b18      	ldr	r3, [pc, #96]	@ (3418173c <RCC_PLL_IsNewConfig+0x90>)
341816da:	f85c 3003 	ldr.w	r3, [ip, r3]
341816de:	f023 437f 	bic.w	r3, r3, #4278190080	@ 0xff000000
           (pPLLInit->PLLFractional << RCC_PLL1CFGR2_PLL1DIVNFRAC_Pos))
341816e2:	68ca      	ldr	r2, [r1, #12]
  else if ((*p_rcc_pll_cfgr2_reg & RCC_PLL1CFGR2_PLL1DIVNFRAC) != \
341816e4:	4293      	cmp	r3, r2
341816e6:	d001      	beq.n	341816ec <RCC_PLL_IsNewConfig+0x40>
    ret = 1U; /* New PLL configuration */
341816e8:	2001      	movs	r0, #1
341816ea:	e7f3      	b.n	341816d4 <RCC_PLL_IsNewConfig+0x28>
  else if ((*p_rcc_pll_cfgr3_reg & (RCC_PLL1CFGR3_PLL1PDIV1 | RCC_PLL1CFGR3_PLL1PDIV2)) != \
341816ec:	4b14      	ldr	r3, [pc, #80]	@ (34181740 <RCC_PLL_IsNewConfig+0x94>)
341816ee:	f85c 2003 	ldr.w	r2, [ip, r3]
341816f2:	f002 527c 	and.w	r2, r2, #1056964608	@ 0x3f000000
           ((pPLLInit->PLLP1 << RCC_PLL1CFGR3_PLL1PDIV1_Pos) | (pPLLInit->PLLP2 << RCC_PLL1CFGR3_PLL1PDIV2_Pos)))
341816f6:	698b      	ldr	r3, [r1, #24]
341816f8:	061b      	lsls	r3, r3, #24
341816fa:	694d      	ldr	r5, [r1, #20]
341816fc:	ea43 63c5 	orr.w	r3, r3, r5, lsl #27
  else if ((*p_rcc_pll_cfgr3_reg & (RCC_PLL1CFGR3_PLL1PDIV1 | RCC_PLL1CFGR3_PLL1PDIV2)) != \
34181700:	429a      	cmp	r2, r3
34181702:	d001      	beq.n	34181708 <RCC_PLL_IsNewConfig+0x5c>
    ret = 1U; /* New PLL configuration */
34181704:	2001      	movs	r0, #1
34181706:	e7e5      	b.n	341816d4 <RCC_PLL_IsNewConfig+0x28>
    if (READ_BIT(RCC->SR, (RCC_SR_PLL1RDY << PLLnumber)) == (RCC_SR_PLL1RDY << PLLnumber))
34181708:	4b0e      	ldr	r3, [pc, #56]	@ (34181744 <RCC_PLL_IsNewConfig+0x98>)
3418170a:	685a      	ldr	r2, [r3, #4]
3418170c:	f44f 7380 	mov.w	r3, #256	@ 0x100
34181710:	4083      	lsls	r3, r0
34181712:	4393      	bics	r3, r2
34181714:	d006      	beq.n	34181724 <RCC_PLL_IsNewConfig+0x78>
      if ((*p_rcc_pll_cfgr1_reg & RCC_PLL1CFGR1_PLL1BYP) != 0UL)
34181716:	f85c 3004 	ldr.w	r3, [ip, r4]
3418171a:	f013 6f00 	tst.w	r3, #134217728	@ 0x8000000
3418171e:	d007      	beq.n	34181730 <RCC_PLL_IsNewConfig+0x84>
        pllState = RCC_PLL_BYPASS;
34181720:	2303      	movs	r3, #3
34181722:	e000      	b.n	34181726 <RCC_PLL_IsNewConfig+0x7a>
      pllState = RCC_PLL_ON;
34181724:	2302      	movs	r3, #2
    if (pllState != pPLLInit->PLLState)
34181726:	680a      	ldr	r2, [r1, #0]
34181728:	429a      	cmp	r2, r3
3418172a:	d003      	beq.n	34181734 <RCC_PLL_IsNewConfig+0x88>
      ret = 1U; /* New PLL configuration */
3418172c:	2001      	movs	r0, #1
  return ret;
3418172e:	e7d1      	b.n	341816d4 <RCC_PLL_IsNewConfig+0x28>
        pllState = RCC_PLL_OFF;
34181730:	2301      	movs	r3, #1
34181732:	e7f8      	b.n	34181726 <RCC_PLL_IsNewConfig+0x7a>
  uint32_t ret = 0U;
34181734:	2000      	movs	r0, #0
34181736:	e7cd      	b.n	341816d4 <RCC_PLL_IsNewConfig+0x28>
34181738:	56028080 	.word	0x56028080
3418173c:	56028084 	.word	0x56028084
34181740:	56028088 	.word	0x56028088
34181744:	56028000 	.word	0x56028000

34181748 <RCC_PLL_Source_IsReady>:
{
  uint32_t ret = 1U;

  /* No assert since done in calling function */

  switch (PLLSource)
34181748:	f1b0 5f80 	cmp.w	r0, #268435456	@ 0x10000000
3418174c:	d00a      	beq.n	34181764 <RCC_PLL_Source_IsReady+0x1c>
3418174e:	f1b0 5f00 	cmp.w	r0, #536870912	@ 0x20000000
34181752:	d00d      	beq.n	34181770 <RCC_PLL_Source_IsReady+0x28>
34181754:	b990      	cbnz	r0, 3418177c <RCC_PLL_Source_IsReady+0x34>
  * @rmtoll SR           HSIRDY        LL_RCC_HSI_IsReady
  * @retval State of bit (1 or 0).
  */
__STATIC_INLINE uint32_t LL_RCC_HSI_IsReady(void)
{
  return ((READ_BIT(RCC->SR, RCC_SR_HSIRDY) != 0UL) ? 1UL : 0UL);
34181756:	4b0c      	ldr	r3, [pc, #48]	@ (34181788 <RCC_PLL_Source_IsReady+0x40>)
34181758:	6858      	ldr	r0, [r3, #4]
3418175a:	f010 0008 	ands.w	r0, r0, #8
3418175e:	d012      	beq.n	34181786 <RCC_PLL_Source_IsReady+0x3e>
  uint32_t ret = 1U;
34181760:	2001      	movs	r0, #1
34181762:	4770      	bx	lr
  * @rmtoll SR           MSIRDY        LL_RCC_MSI_IsReady
  * @retval State of bit (1 or 0).
  */
__STATIC_INLINE uint32_t LL_RCC_MSI_IsReady(void)
{
  return ((READ_BIT(RCC->SR, RCC_SR_MSIRDY) != 0UL) ? 1UL : 0UL);
34181764:	4b08      	ldr	r3, [pc, #32]	@ (34181788 <RCC_PLL_Source_IsReady+0x40>)
34181766:	6858      	ldr	r0, [r3, #4]
34181768:	f010 0004 	ands.w	r0, r0, #4
3418176c:	d108      	bne.n	34181780 <RCC_PLL_Source_IsReady+0x38>
3418176e:	4770      	bx	lr
  return ((READ_BIT(RCC->SR, RCC_SR_HSERDY) != 0UL) ? 1UL : 0UL);
34181770:	4b05      	ldr	r3, [pc, #20]	@ (34181788 <RCC_PLL_Source_IsReady+0x40>)
34181772:	6858      	ldr	r0, [r3, #4]
34181774:	f010 0010 	ands.w	r0, r0, #16
34181778:	d104      	bne.n	34181784 <RCC_PLL_Source_IsReady+0x3c>
3418177a:	4770      	bx	lr
  switch (PLLSource)
3418177c:	2001      	movs	r0, #1
3418177e:	4770      	bx	lr
  uint32_t ret = 1U;
34181780:	2001      	movs	r0, #1
34181782:	4770      	bx	lr
34181784:	2001      	movs	r0, #1
    default:
      break;
  }

  return ret;
}
34181786:	4770      	bx	lr
34181788:	56028000 	.word	0x56028000

3418178c <RCC_IC_CheckPLLSources>:
  uint32_t ret = 1U;

  /* No assert since done in calling function */

  /* Check PLLSource1 clock source */
  switch (PLLSource1)
3418178c:	f1b0 5f00 	cmp.w	r0, #536870912	@ 0x20000000
34181790:	d032      	beq.n	341817f8 <RCC_IC_CheckPLLSources+0x6c>
34181792:	d812      	bhi.n	341817ba <RCC_IC_CheckPLLSources+0x2e>
34181794:	b318      	cbz	r0, 341817de <RCC_IC_CheckPLLSources+0x52>
34181796:	f1b0 5f80 	cmp.w	r0, #268435456	@ 0x10000000
3418179a:	d10c      	bne.n	341817b6 <RCC_IC_CheckPLLSources+0x2a>
  * @rmtoll SR           PLL2RDY         LL_RCC_PLL2_IsReady
  * @retval State of bit (1 or 0).
  */
__STATIC_INLINE uint32_t LL_RCC_PLL2_IsReady(void)
{
  return ((READ_BIT(RCC->SR, RCC_SR_PLL2RDY) == (RCC_SR_PLL2RDY)) ? 1UL : 0UL);
3418179c:	4b42      	ldr	r3, [pc, #264]	@ (341818a8 <RCC_IC_CheckPLLSources+0x11c>)
3418179e:	685b      	ldr	r3, [r3, #4]
341817a0:	f413 7f00 	tst.w	r3, #512	@ 0x200
341817a4:	d14b      	bne.n	3418183e <RCC_IC_CheckPLLSources+0xb2>
  * @rmtoll PLL2CFGR1    PLL2BYP         LL_RCC_PLL2_IsEnabledBypass
  * @retval State of bit (1 or 0).
  */
__STATIC_INLINE uint32_t LL_RCC_PLL2_IsEnabledBypass(void)
{
  return ((READ_BIT(RCC->PLL2CFGR1, RCC_PLL2CFGR1_PLL2BYP) == RCC_PLL2CFGR1_PLL2BYP) ? 1UL : 0UL);
341817a6:	4b40      	ldr	r3, [pc, #256]	@ (341818a8 <RCC_IC_CheckPLLSources+0x11c>)
341817a8:	f8d3 0090 	ldr.w	r0, [r3, #144]	@ 0x90
341817ac:	f010 6000 	ands.w	r0, r0, #134217728	@ 0x8000000
341817b0:	d030      	beq.n	34181814 <RCC_IC_CheckPLLSources+0x88>
  uint32_t ret = 1U;
341817b2:	2001      	movs	r0, #1
341817b4:	e02e      	b.n	34181814 <RCC_IC_CheckPLLSources+0x88>
  switch (PLLSource1)
341817b6:	2000      	movs	r0, #0
341817b8:	e02c      	b.n	34181814 <RCC_IC_CheckPLLSources+0x88>
341817ba:	f1b0 5f40 	cmp.w	r0, #805306368	@ 0x30000000
341817be:	d10c      	bne.n	341817da <RCC_IC_CheckPLLSources+0x4e>
  * @rmtoll SR           PLL4RDY         LL_RCC_PLL4_IsReady
  * @retval State of bit (1 or 0).
  */
__STATIC_INLINE uint32_t LL_RCC_PLL4_IsReady(void)
{
  return ((READ_BIT(RCC->SR, RCC_SR_PLL4RDY) == (RCC_SR_PLL4RDY)) ? 1UL : 0UL);
341817c0:	4b39      	ldr	r3, [pc, #228]	@ (341818a8 <RCC_IC_CheckPLLSources+0x11c>)
341817c2:	685b      	ldr	r3, [r3, #4]
341817c4:	f413 6f00 	tst.w	r3, #2048	@ 0x800
341817c8:	d13d      	bne.n	34181846 <RCC_IC_CheckPLLSources+0xba>
  * @rmtoll PLL4CFGR1    PLL4BYP         LL_RCC_PLL4_IsEnabledBypass
  * @retval State of bit (1 or 0).
  */
__STATIC_INLINE uint32_t LL_RCC_PLL4_IsEnabledBypass(void)
{
  return ((READ_BIT(RCC->PLL4CFGR1, RCC_PLL4CFGR1_PLL4BYP) == RCC_PLL4CFGR1_PLL4BYP) ? 1UL : 0UL);
341817ca:	4b37      	ldr	r3, [pc, #220]	@ (341818a8 <RCC_IC_CheckPLLSources+0x11c>)
341817cc:	f8d3 00b0 	ldr.w	r0, [r3, #176]	@ 0xb0
341817d0:	f010 6000 	ands.w	r0, r0, #134217728	@ 0x8000000
341817d4:	d01e      	beq.n	34181814 <RCC_IC_CheckPLLSources+0x88>
  uint32_t ret = 1U;
341817d6:	2001      	movs	r0, #1
341817d8:	e01c      	b.n	34181814 <RCC_IC_CheckPLLSources+0x88>
  switch (PLLSource1)
341817da:	2000      	movs	r0, #0
341817dc:	e01a      	b.n	34181814 <RCC_IC_CheckPLLSources+0x88>
  return ((READ_BIT(RCC->SR, RCC_SR_PLL1RDY) == (RCC_SR_PLL1RDY)) ? 1UL : 0UL);
341817de:	4b32      	ldr	r3, [pc, #200]	@ (341818a8 <RCC_IC_CheckPLLSources+0x11c>)
341817e0:	685b      	ldr	r3, [r3, #4]
341817e2:	f413 7f80 	tst.w	r3, #256	@ 0x100
341817e6:	d114      	bne.n	34181812 <RCC_IC_CheckPLLSources+0x86>
  return ((READ_BIT(RCC->PLL1CFGR1, RCC_PLL1CFGR1_PLL1BYP) == RCC_PLL1CFGR1_PLL1BYP) ? 1UL : 0UL);
341817e8:	4b2f      	ldr	r3, [pc, #188]	@ (341818a8 <RCC_IC_CheckPLLSources+0x11c>)
341817ea:	f8d3 0080 	ldr.w	r0, [r3, #128]	@ 0x80
341817ee:	f010 6000 	ands.w	r0, r0, #134217728	@ 0x8000000
341817f2:	d00f      	beq.n	34181814 <RCC_IC_CheckPLLSources+0x88>
  uint32_t ret = 1U;
341817f4:	2001      	movs	r0, #1
341817f6:	e00d      	b.n	34181814 <RCC_IC_CheckPLLSources+0x88>
  return ((READ_BIT(RCC->SR, RCC_SR_PLL3RDY) == (RCC_SR_PLL3RDY)) ? 1UL : 0UL);
341817f8:	4b2b      	ldr	r3, [pc, #172]	@ (341818a8 <RCC_IC_CheckPLLSources+0x11c>)
341817fa:	685b      	ldr	r3, [r3, #4]
341817fc:	f413 6f80 	tst.w	r3, #1024	@ 0x400
34181800:	d11f      	bne.n	34181842 <RCC_IC_CheckPLLSources+0xb6>
  return ((READ_BIT(RCC->PLL3CFGR1, RCC_PLL3CFGR1_PLL3BYP) == RCC_PLL3CFGR1_PLL3BYP) ? 1UL : 0UL);
34181802:	4b29      	ldr	r3, [pc, #164]	@ (341818a8 <RCC_IC_CheckPLLSources+0x11c>)
34181804:	f8d3 00a0 	ldr.w	r0, [r3, #160]	@ 0xa0
34181808:	f010 6000 	ands.w	r0, r0, #134217728	@ 0x8000000
3418180c:	d002      	beq.n	34181814 <RCC_IC_CheckPLLSources+0x88>
3418180e:	2001      	movs	r0, #1
34181810:	e000      	b.n	34181814 <RCC_IC_CheckPLLSources+0x88>
34181812:	2001      	movs	r0, #1
      ret = 0U;
      break;
  }

  /* Check PLLSource2 clock source */
  switch (PLLSource2)
34181814:	f1b1 5f00 	cmp.w	r1, #536870912	@ 0x20000000
34181818:	d038      	beq.n	3418188c <RCC_IC_CheckPLLSources+0x100>
3418181a:	d818      	bhi.n	3418184e <RCC_IC_CheckPLLSources+0xc2>
3418181c:	b349      	cbz	r1, 34181872 <RCC_IC_CheckPLLSources+0xe6>
3418181e:	f1b1 5f80 	cmp.w	r1, #268435456	@ 0x10000000
34181822:	d112      	bne.n	3418184a <RCC_IC_CheckPLLSources+0xbe>
  return ((READ_BIT(RCC->SR, RCC_SR_PLL2RDY) == (RCC_SR_PLL2RDY)) ? 1UL : 0UL);
34181824:	4b20      	ldr	r3, [pc, #128]	@ (341818a8 <RCC_IC_CheckPLLSources+0x11c>)
34181826:	685b      	ldr	r3, [r3, #4]
34181828:	f413 7f00 	tst.w	r3, #512	@ 0x200
3418182c:	d11e      	bne.n	3418186c <RCC_IC_CheckPLLSources+0xe0>
  return ((READ_BIT(RCC->PLL2CFGR1, RCC_PLL2CFGR1_PLL2BYP) == RCC_PLL2CFGR1_PLL2BYP) ? 1UL : 0UL);
3418182e:	4b1e      	ldr	r3, [pc, #120]	@ (341818a8 <RCC_IC_CheckPLLSources+0x11c>)
34181830:	f8d3 3090 	ldr.w	r3, [r3, #144]	@ 0x90
34181834:	f013 6300 	ands.w	r3, r3, #134217728	@ 0x8000000
34181838:	d118      	bne.n	3418186c <RCC_IC_CheckPLLSources+0xe0>
    case LL_RCC_ICCLKSOURCE_PLL2:
      if (LL_RCC_PLL2_IsReady() == 0U)
      {
        if (LL_RCC_PLL2_IsEnabledBypass() == 0U)
        {
          ret = 0U;
3418183a:	4618      	mov	r0, r3
3418183c:	4770      	bx	lr
  uint32_t ret = 1U;
3418183e:	2001      	movs	r0, #1
34181840:	e7e8      	b.n	34181814 <RCC_IC_CheckPLLSources+0x88>
34181842:	2001      	movs	r0, #1
34181844:	e7e6      	b.n	34181814 <RCC_IC_CheckPLLSources+0x88>
34181846:	2001      	movs	r0, #1
34181848:	e7e4      	b.n	34181814 <RCC_IC_CheckPLLSources+0x88>
  switch (PLLSource2)
3418184a:	2000      	movs	r0, #0
3418184c:	4770      	bx	lr
3418184e:	f1b1 5f40 	cmp.w	r1, #805306368	@ 0x30000000
34181852:	d10c      	bne.n	3418186e <RCC_IC_CheckPLLSources+0xe2>
  return ((READ_BIT(RCC->SR, RCC_SR_PLL4RDY) == (RCC_SR_PLL4RDY)) ? 1UL : 0UL);
34181854:	4b14      	ldr	r3, [pc, #80]	@ (341818a8 <RCC_IC_CheckPLLSources+0x11c>)
34181856:	685b      	ldr	r3, [r3, #4]
34181858:	f413 6f00 	tst.w	r3, #2048	@ 0x800
3418185c:	d106      	bne.n	3418186c <RCC_IC_CheckPLLSources+0xe0>
  return ((READ_BIT(RCC->PLL4CFGR1, RCC_PLL4CFGR1_PLL4BYP) == RCC_PLL4CFGR1_PLL4BYP) ? 1UL : 0UL);
3418185e:	4b12      	ldr	r3, [pc, #72]	@ (341818a8 <RCC_IC_CheckPLLSources+0x11c>)
34181860:	f8d3 30b0 	ldr.w	r3, [r3, #176]	@ 0xb0
34181864:	f013 6300 	ands.w	r3, r3, #134217728	@ 0x8000000
34181868:	d100      	bne.n	3418186c <RCC_IC_CheckPLLSources+0xe0>
    case LL_RCC_ICCLKSOURCE_PLL4:
      if (LL_RCC_PLL4_IsReady() == 0U)
      {
        if (LL_RCC_PLL4_IsEnabledBypass() == 0U)
        {
          ret = 0U;
3418186a:	4618      	mov	r0, r3
      ret = 0U;
      break;
  }

  return ret;
}
3418186c:	4770      	bx	lr
  switch (PLLSource2)
3418186e:	2000      	movs	r0, #0
34181870:	4770      	bx	lr
  return ((READ_BIT(RCC->SR, RCC_SR_PLL1RDY) == (RCC_SR_PLL1RDY)) ? 1UL : 0UL);
34181872:	4b0d      	ldr	r3, [pc, #52]	@ (341818a8 <RCC_IC_CheckPLLSources+0x11c>)
34181874:	685b      	ldr	r3, [r3, #4]
34181876:	f413 7f80 	tst.w	r3, #256	@ 0x100
3418187a:	d1f7      	bne.n	3418186c <RCC_IC_CheckPLLSources+0xe0>
  return ((READ_BIT(RCC->PLL1CFGR1, RCC_PLL1CFGR1_PLL1BYP) == RCC_PLL1CFGR1_PLL1BYP) ? 1UL : 0UL);
3418187c:	4b0a      	ldr	r3, [pc, #40]	@ (341818a8 <RCC_IC_CheckPLLSources+0x11c>)
3418187e:	f8d3 3080 	ldr.w	r3, [r3, #128]	@ 0x80
34181882:	f013 6300 	ands.w	r3, r3, #134217728	@ 0x8000000
34181886:	d1f1      	bne.n	3418186c <RCC_IC_CheckPLLSources+0xe0>
          ret = 0U;
34181888:	4618      	mov	r0, r3
3418188a:	4770      	bx	lr
  return ((READ_BIT(RCC->SR, RCC_SR_PLL3RDY) == (RCC_SR_PLL3RDY)) ? 1UL : 0UL);
3418188c:	4b06      	ldr	r3, [pc, #24]	@ (341818a8 <RCC_IC_CheckPLLSources+0x11c>)
3418188e:	685b      	ldr	r3, [r3, #4]
34181890:	f413 6f80 	tst.w	r3, #1024	@ 0x400
34181894:	d1ea      	bne.n	3418186c <RCC_IC_CheckPLLSources+0xe0>
  return ((READ_BIT(RCC->PLL3CFGR1, RCC_PLL3CFGR1_PLL3BYP) == RCC_PLL3CFGR1_PLL3BYP) ? 1UL : 0UL);
34181896:	4b04      	ldr	r3, [pc, #16]	@ (341818a8 <RCC_IC_CheckPLLSources+0x11c>)
34181898:	f8d3 30a0 	ldr.w	r3, [r3, #160]	@ 0xa0
3418189c:	f013 6300 	ands.w	r3, r3, #134217728	@ 0x8000000
341818a0:	d1e4      	bne.n	3418186c <RCC_IC_CheckPLLSources+0xe0>
          ret = 0U;
341818a2:	4618      	mov	r0, r3
341818a4:	4770      	bx	lr
341818a6:	bf00      	nop
341818a8:	56028000 	.word	0x56028000

341818ac <RCC_PLL_Config>:
{
341818ac:	e92d 47f0 	stmdb	sp!, {r4, r5, r6, r7, r8, r9, sl, lr}
341818b0:	4607      	mov	r7, r0
341818b2:	460c      	mov	r4, r1
  p_rcc_pll_cfgr1_reg = &(RCC->PLL1CFGR1) + (((uint32_t)0x4) * PLLnumber);
341818b4:	0106      	lsls	r6, r0, #4
341818b6:	f8df 9194 	ldr.w	r9, [pc, #404]	@ 34181a4c <RCC_PLL_Config+0x1a0>
  p_rcc_pll_cfgr3_reg = &(RCC->PLL1CFGR3) + (((uint32_t)0x4) * PLLnumber);
341818ba:	f8df 8194 	ldr.w	r8, [pc, #404]	@ 34181a50 <RCC_PLL_Config+0x1a4>
  if (pPLLInit->PLLState == RCC_PLL_ON)
341818be:	680b      	ldr	r3, [r1, #0]
341818c0:	2b02      	cmp	r3, #2
341818c2:	d007      	beq.n	341818d4 <RCC_PLL_Config+0x28>
  else if (pPLLInit->PLLState == RCC_PLL_BYPASS)
341818c4:	2b03      	cmp	r3, #3
341818c6:	d072      	beq.n	341819ae <RCC_PLL_Config+0x102>
  else if (pPLLInit->PLLState == RCC_PLL_OFF)
341818c8:	2b01      	cmp	r3, #1
341818ca:	f000 8097 	beq.w	341819fc <RCC_PLL_Config+0x150>
  HAL_StatusTypeDef ret = HAL_OK;
341818ce:	2000      	movs	r0, #0
}
341818d0:	e8bd 87f0 	ldmia.w	sp!, {r4, r5, r6, r7, r8, r9, sl, pc}
341818d4:	f8df a17c 	ldr.w	sl, [pc, #380]	@ 34181a54 <RCC_PLL_Config+0x1a8>
    WRITE_REG(RCC->CCR, RCC_CCR_PLL1ONC << PLLnumber);
341818d8:	f44f 7580 	mov.w	r5, #256	@ 0x100
341818dc:	4085      	lsls	r5, r0
341818de:	4b58      	ldr	r3, [pc, #352]	@ (34181a40 <RCC_PLL_Config+0x194>)
341818e0:	601d      	str	r5, [r3, #0]
    tickstart = HAL_GetTick();
341818e2:	f006 f84b 	bl	3418797c <HAL_GetTick>
341818e6:	4607      	mov	r7, r0
    while (READ_BIT(RCC->SR, (RCC_SR_PLL1RDY << PLLnumber)) == (RCC_SR_PLL1RDY << PLLnumber))
341818e8:	4b56      	ldr	r3, [pc, #344]	@ (34181a44 <RCC_PLL_Config+0x198>)
341818ea:	685b      	ldr	r3, [r3, #4]
341818ec:	ea35 0303 	bics.w	r3, r5, r3
341818f0:	d106      	bne.n	34181900 <RCC_PLL_Config+0x54>
      if ((HAL_GetTick() - tickstart) > RCC_PLL_TIMEOUT_VALUE)
341818f2:	f006 f843 	bl	3418797c <HAL_GetTick>
341818f6:	1bc3      	subs	r3, r0, r7
341818f8:	2b01      	cmp	r3, #1
341818fa:	d9f5      	bls.n	341818e8 <RCC_PLL_Config+0x3c>
        return HAL_TIMEOUT;
341818fc:	2003      	movs	r0, #3
341818fe:	e7e7      	b.n	341818d0 <RCC_PLL_Config+0x24>
    SET_BIT(*p_rcc_pll_cfgr3_reg, RCC_PLL1CFGR3_PLL1MODSSDIS);
34181900:	f856 3008 	ldr.w	r3, [r6, r8]
34181904:	f043 0304 	orr.w	r3, r3, #4
34181908:	f846 3008 	str.w	r3, [r6, r8]
    CLEAR_BIT(*p_rcc_pll_cfgr1_reg, RCC_PLL1CFGR1_PLL1BYP);
3418190c:	f856 3009 	ldr.w	r3, [r6, r9]
34181910:	f023 6300 	bic.w	r3, r3, #134217728	@ 0x8000000
34181914:	f846 3009 	str.w	r3, [r6, r9]
    MODIFY_REG(*p_rcc_pll_cfgr1_reg, (RCC_PLL1CFGR1_PLL1SEL | RCC_PLL1CFGR1_PLL1DIVM | RCC_PLL1CFGR1_PLL1DIVN), \
34181918:	f856 2009 	ldr.w	r2, [r6, r9]
3418191c:	4b4a      	ldr	r3, [pc, #296]	@ (34181a48 <RCC_PLL_Config+0x19c>)
3418191e:	4013      	ands	r3, r2
34181920:	6862      	ldr	r2, [r4, #4]
34181922:	68a1      	ldr	r1, [r4, #8]
34181924:	ea42 5201 	orr.w	r2, r2, r1, lsl #20
34181928:	6921      	ldr	r1, [r4, #16]
3418192a:	ea42 2201 	orr.w	r2, r2, r1, lsl #8
3418192e:	4313      	orrs	r3, r2
34181930:	f846 3009 	str.w	r3, [r6, r9]
    MODIFY_REG(*p_rcc_pll_cfgr3_reg, (RCC_PLL1CFGR3_PLL1PDIV1 | RCC_PLL1CFGR3_PLL1PDIV2), \
34181934:	f856 3008 	ldr.w	r3, [r6, r8]
34181938:	f023 537c 	bic.w	r3, r3, #1056964608	@ 0x3f000000
3418193c:	6961      	ldr	r1, [r4, #20]
3418193e:	69a2      	ldr	r2, [r4, #24]
34181940:	0612      	lsls	r2, r2, #24
34181942:	ea42 62c1 	orr.w	r2, r2, r1, lsl #27
34181946:	4313      	orrs	r3, r2
34181948:	f846 3008 	str.w	r3, [r6, r8]
    MODIFY_REG(*p_rcc_pll_cfgr2_reg, RCC_PLL1CFGR2_PLL1DIVNFRAC, \
3418194c:	f856 300a 	ldr.w	r3, [r6, sl]
34181950:	f003 437f 	and.w	r3, r3, #4278190080	@ 0xff000000
34181954:	68e2      	ldr	r2, [r4, #12]
34181956:	4313      	orrs	r3, r2
34181958:	f846 300a 	str.w	r3, [r6, sl]
    CLEAR_BIT(*p_rcc_pll_cfgr3_reg, RCC_PLL1CFGR3_PLL1MODDSEN);
3418195c:	f856 3008 	ldr.w	r3, [r6, r8]
34181960:	f023 0308 	bic.w	r3, r3, #8
34181964:	f846 3008 	str.w	r3, [r6, r8]
    if (pPLLInit->PLLFractional != 0U)
34181968:	68e3      	ldr	r3, [r4, #12]
3418196a:	b12b      	cbz	r3, 34181978 <RCC_PLL_Config+0xcc>
      SET_BIT(*p_rcc_pll_cfgr3_reg, (RCC_PLL1CFGR3_PLL1MODDSEN | RCC_PLL1CFGR3_PLL1DACEN));
3418196c:	f856 3008 	ldr.w	r3, [r6, r8]
34181970:	f043 030a 	orr.w	r3, r3, #10
34181974:	f846 3008 	str.w	r3, [r6, r8]
    SET_BIT(*p_rcc_pll_cfgr3_reg, (RCC_PLL1CFGR3_PLL1MODSSRST | RCC_PLL1CFGR3_PLL1PDIVEN));
34181978:	f856 3008 	ldr.w	r3, [r6, r8]
3418197c:	f043 4380 	orr.w	r3, r3, #1073741824	@ 0x40000000
34181980:	f043 0301 	orr.w	r3, r3, #1
34181984:	f846 3008 	str.w	r3, [r6, r8]
    WRITE_REG(RCC->CSR, RCC_CSR_PLL1ONS << PLLnumber);
34181988:	4b2e      	ldr	r3, [pc, #184]	@ (34181a44 <RCC_PLL_Config+0x198>)
3418198a:	f8c3 5800 	str.w	r5, [r3, #2048]	@ 0x800
    tickstart = HAL_GetTick();
3418198e:	f005 fff5 	bl	3418797c <HAL_GetTick>
34181992:	4604      	mov	r4, r0
    while (READ_BIT(RCC->SR, (RCC_SR_PLL1RDY << PLLnumber)) == 0U)
34181994:	4b2b      	ldr	r3, [pc, #172]	@ (34181a44 <RCC_PLL_Config+0x198>)
34181996:	685b      	ldr	r3, [r3, #4]
34181998:	421d      	tst	r5, r3
3418199a:	d106      	bne.n	341819aa <RCC_PLL_Config+0xfe>
      if ((HAL_GetTick() - tickstart) > RCC_PLL_TIMEOUT_VALUE)
3418199c:	f005 ffee 	bl	3418797c <HAL_GetTick>
341819a0:	1b00      	subs	r0, r0, r4
341819a2:	2801      	cmp	r0, #1
341819a4:	d9f6      	bls.n	34181994 <RCC_PLL_Config+0xe8>
        return HAL_TIMEOUT;
341819a6:	2003      	movs	r0, #3
341819a8:	e792      	b.n	341818d0 <RCC_PLL_Config+0x24>
  HAL_StatusTypeDef ret = HAL_OK;
341819aa:	2000      	movs	r0, #0
341819ac:	e790      	b.n	341818d0 <RCC_PLL_Config+0x24>
    if (RCC_PLL_Source_IsReady(pPLLInit->PLLSource) == 1U)
341819ae:	6848      	ldr	r0, [r1, #4]
341819b0:	f7ff feca 	bl	34181748 <RCC_PLL_Source_IsReady>
341819b4:	2801      	cmp	r0, #1
341819b6:	d001      	beq.n	341819bc <RCC_PLL_Config+0x110>
      ret = HAL_ERROR;
341819b8:	2001      	movs	r0, #1
341819ba:	e789      	b.n	341818d0 <RCC_PLL_Config+0x24>
      WRITE_REG(RCC->CCR, RCC_CCR_PLL1ONC << PLLnumber);
341819bc:	f44f 7580 	mov.w	r5, #256	@ 0x100
341819c0:	40bd      	lsls	r5, r7
341819c2:	4b1f      	ldr	r3, [pc, #124]	@ (34181a40 <RCC_PLL_Config+0x194>)
341819c4:	601d      	str	r5, [r3, #0]
      tickstart = HAL_GetTick();
341819c6:	f005 ffd9 	bl	3418797c <HAL_GetTick>
341819ca:	4607      	mov	r7, r0
      while (READ_BIT(RCC->SR, (RCC_SR_PLL1RDY << PLLnumber)) == (RCC_SR_PLL1RDY << PLLnumber))
341819cc:	4b1d      	ldr	r3, [pc, #116]	@ (34181a44 <RCC_PLL_Config+0x198>)
341819ce:	685b      	ldr	r3, [r3, #4]
341819d0:	ea35 0303 	bics.w	r3, r5, r3
341819d4:	d106      	bne.n	341819e4 <RCC_PLL_Config+0x138>
        if ((HAL_GetTick() - tickstart) > RCC_PLL_TIMEOUT_VALUE)
341819d6:	f005 ffd1 	bl	3418797c <HAL_GetTick>
341819da:	1bc0      	subs	r0, r0, r7
341819dc:	2801      	cmp	r0, #1
341819de:	d9f5      	bls.n	341819cc <RCC_PLL_Config+0x120>
          return HAL_TIMEOUT;
341819e0:	2003      	movs	r0, #3
341819e2:	e775      	b.n	341818d0 <RCC_PLL_Config+0x24>
      MODIFY_REG(*p_rcc_pll_cfgr1_reg, (RCC_PLL1CFGR1_PLL1BYP | RCC_PLL1CFGR1_PLL1SEL), \
341819e4:	f856 3009 	ldr.w	r3, [r6, r9]
341819e8:	f023 43f0 	bic.w	r3, r3, #2013265920	@ 0x78000000
341819ec:	6862      	ldr	r2, [r4, #4]
341819ee:	4313      	orrs	r3, r2
341819f0:	f043 6300 	orr.w	r3, r3, #134217728	@ 0x8000000
341819f4:	f846 3009 	str.w	r3, [r6, r9]
  HAL_StatusTypeDef ret = HAL_OK;
341819f8:	2000      	movs	r0, #0
341819fa:	e769      	b.n	341818d0 <RCC_PLL_Config+0x24>
    CLEAR_BIT(*p_rcc_pll_cfgr3_reg, RCC_PLL1CFGR3_PLL1PDIVEN);
341819fc:	f856 3008 	ldr.w	r3, [r6, r8]
34181a00:	f023 4380 	bic.w	r3, r3, #1073741824	@ 0x40000000
34181a04:	f846 3008 	str.w	r3, [r6, r8]
    WRITE_REG(RCC->CCR, RCC_CCR_PLL1ONC << PLLnumber);
34181a08:	f44f 7480 	mov.w	r4, #256	@ 0x100
34181a0c:	4084      	lsls	r4, r0
34181a0e:	4b0c      	ldr	r3, [pc, #48]	@ (34181a40 <RCC_PLL_Config+0x194>)
34181a10:	601c      	str	r4, [r3, #0]
    tickstart = HAL_GetTick();
34181a12:	f005 ffb3 	bl	3418797c <HAL_GetTick>
34181a16:	4605      	mov	r5, r0
    while (READ_BIT(RCC->SR, (RCC_SR_PLL1RDY << PLLnumber)) == (RCC_SR_PLL1RDY << PLLnumber))
34181a18:	4b0a      	ldr	r3, [pc, #40]	@ (34181a44 <RCC_PLL_Config+0x198>)
34181a1a:	685b      	ldr	r3, [r3, #4]
34181a1c:	ea34 0303 	bics.w	r3, r4, r3
34181a20:	d106      	bne.n	34181a30 <RCC_PLL_Config+0x184>
      if ((HAL_GetTick() - tickstart) > RCC_PLL_TIMEOUT_VALUE)
34181a22:	f005 ffab 	bl	3418797c <HAL_GetTick>
34181a26:	1b43      	subs	r3, r0, r5
34181a28:	2b01      	cmp	r3, #1
34181a2a:	d9f5      	bls.n	34181a18 <RCC_PLL_Config+0x16c>
        return HAL_TIMEOUT;
34181a2c:	2003      	movs	r0, #3
34181a2e:	e74f      	b.n	341818d0 <RCC_PLL_Config+0x24>
    CLEAR_BIT(*p_rcc_pll_cfgr1_reg, RCC_PLL1CFGR1_PLL1BYP);
34181a30:	f856 3009 	ldr.w	r3, [r6, r9]
34181a34:	f023 6300 	bic.w	r3, r3, #134217728	@ 0x8000000
34181a38:	f846 3009 	str.w	r3, [r6, r9]
  HAL_StatusTypeDef ret = HAL_OK;
34181a3c:	2000      	movs	r0, #0
34181a3e:	e747      	b.n	341818d0 <RCC_PLL_Config+0x24>
34181a40:	56029000 	.word	0x56029000
34181a44:	56028000 	.word	0x56028000
34181a48:	8c0000ff 	.word	0x8c0000ff
34181a4c:	56028080 	.word	0x56028080
34181a50:	56028088 	.word	0x56028088
34181a54:	56028084 	.word	0x56028084

34181a58 <RCC_PLL_Enable>:
{
34181a58:	b538      	push	{r3, r4, r5, lr}
  WRITE_REG(RCC->CSR, RCC_CSR_PLL1ONS << PLLnumber);
34181a5a:	f44f 7480 	mov.w	r4, #256	@ 0x100
34181a5e:	4084      	lsls	r4, r0
34181a60:	4b09      	ldr	r3, [pc, #36]	@ (34181a88 <RCC_PLL_Enable+0x30>)
34181a62:	f8c3 4800 	str.w	r4, [r3, #2048]	@ 0x800
  tickstart = HAL_GetTick();
34181a66:	f005 ff89 	bl	3418797c <HAL_GetTick>
34181a6a:	4605      	mov	r5, r0
  while (READ_BIT(RCC->SR, (RCC_SR_PLL1RDY << PLLnumber)) == 0U)
34181a6c:	4b06      	ldr	r3, [pc, #24]	@ (34181a88 <RCC_PLL_Enable+0x30>)
34181a6e:	685b      	ldr	r3, [r3, #4]
34181a70:	421c      	tst	r4, r3
34181a72:	d106      	bne.n	34181a82 <RCC_PLL_Enable+0x2a>
    if ((HAL_GetTick() - tickstart) > RCC_PLL_TIMEOUT_VALUE)
34181a74:	f005 ff82 	bl	3418797c <HAL_GetTick>
34181a78:	1b40      	subs	r0, r0, r5
34181a7a:	2801      	cmp	r0, #1
34181a7c:	d9f6      	bls.n	34181a6c <RCC_PLL_Enable+0x14>
      return HAL_TIMEOUT;
34181a7e:	2003      	movs	r0, #3
34181a80:	e000      	b.n	34181a84 <RCC_PLL_Enable+0x2c>
  return ret;
34181a82:	2000      	movs	r0, #0
}
34181a84:	bd38      	pop	{r3, r4, r5, pc}
34181a86:	bf00      	nop
34181a88:	56028000 	.word	0x56028000

34181a8c <RCC_GetSysClockFreq>:
  return (uint32_t)(READ_BIT(RCC->CFGR1, RCC_CFGR1_SYSSWS));
34181a8c:	4b24      	ldr	r3, [pc, #144]	@ (34181b20 <RCC_GetSysClockFreq+0x94>)
34181a8e:	6a1b      	ldr	r3, [r3, #32]
34181a90:	f003 5340 	and.w	r3, r3, #805306368	@ 0x30000000
  switch (LL_RCC_GetSysClkSource())
34181a94:	f1b3 5f00 	cmp.w	r3, #536870912	@ 0x20000000
34181a98:	d03e      	beq.n	34181b18 <RCC_GetSysClockFreq+0x8c>
{
34181a9a:	b510      	push	{r4, lr}
34181a9c:	460c      	mov	r4, r1
  switch (LL_RCC_GetSysClkSource())
34181a9e:	d80c      	bhi.n	34181aba <RCC_GetSysClockFreq+0x2e>
34181aa0:	b1eb      	cbz	r3, 34181ade <RCC_GetSysClockFreq+0x52>
34181aa2:	f1b3 5f80 	cmp.w	r3, #268435456	@ 0x10000000
34181aa6:	d106      	bne.n	34181ab6 <RCC_GetSysClockFreq+0x2a>
      frequency = RCC_GET_MSI_FREQUENCY();
34181aa8:	4b1d      	ldr	r3, [pc, #116]	@ (34181b20 <RCC_GetSysClockFreq+0x94>)
34181aaa:	6c5b      	ldr	r3, [r3, #68]	@ 0x44
34181aac:	f413 7f00 	tst.w	r3, #512	@ 0x200
34181ab0:	d034      	beq.n	34181b1c <RCC_GetSysClockFreq+0x90>
34181ab2:	481c      	ldr	r0, [pc, #112]	@ (34181b24 <RCC_GetSysClockFreq+0x98>)
34181ab4:	e019      	b.n	34181aea <RCC_GetSysClockFreq+0x5e>
  switch (LL_RCC_GetSysClkSource())
34181ab6:	2000      	movs	r0, #0
34181ab8:	e017      	b.n	34181aea <RCC_GetSysClockFreq+0x5e>
34181aba:	f1b3 5f40 	cmp.w	r3, #805306368	@ 0x30000000
34181abe:	d10c      	bne.n	34181ada <RCC_GetSysClockFreq+0x4e>
      switch (icx_source)
34181ac0:	f1b0 5f00 	cmp.w	r0, #536870912	@ 0x20000000
34181ac4:	d023      	beq.n	34181b0e <RCC_GetSysClockFreq+0x82>
34181ac6:	d813      	bhi.n	34181af0 <RCC_GetSysClockFreq+0x64>
34181ac8:	b1e0      	cbz	r0, 34181b04 <RCC_GetSysClockFreq+0x78>
34181aca:	f1b0 5f80 	cmp.w	r0, #268435456	@ 0x10000000
34181ace:	d10d      	bne.n	34181aec <RCC_GetSysClockFreq+0x60>
          frequency = HAL_RCCEx_GetPLL2CLKFreq();
34181ad0:	f002 fc98 	bl	34184404 <HAL_RCCEx_GetPLL2CLKFreq>
          frequency = frequency / icx_divider;
34181ad4:	fbb0 f0f4 	udiv	r0, r0, r4
          break;
34181ad8:	e007      	b.n	34181aea <RCC_GetSysClockFreq+0x5e>
  switch (LL_RCC_GetSysClkSource())
34181ada:	2000      	movs	r0, #0
34181adc:	e005      	b.n	34181aea <RCC_GetSysClockFreq+0x5e>
  return (READ_BIT(RCC->HSICFGR, RCC_HSICFGR_HSIDIV));
34181ade:	4b10      	ldr	r3, [pc, #64]	@ (34181b20 <RCC_GetSysClockFreq+0x94>)
34181ae0:	6c9b      	ldr	r3, [r3, #72]	@ 0x48
      frequency = HSI_VALUE >> (LL_RCC_HSI_GetDivider() >> RCC_HSICFGR_HSIDIV_Pos);
34181ae2:	f3c3 13c1 	ubfx	r3, r3, #7, #2
34181ae6:	4810      	ldr	r0, [pc, #64]	@ (34181b28 <RCC_GetSysClockFreq+0x9c>)
34181ae8:	40d8      	lsrs	r0, r3
}
34181aea:	bd10      	pop	{r4, pc}
      switch (icx_source)
34181aec:	2000      	movs	r0, #0
34181aee:	e7fc      	b.n	34181aea <RCC_GetSysClockFreq+0x5e>
34181af0:	f1b0 5f40 	cmp.w	r0, #805306368	@ 0x30000000
34181af4:	d104      	bne.n	34181b00 <RCC_GetSysClockFreq+0x74>
          frequency = HAL_RCCEx_GetPLL4CLKFreq();
34181af6:	f002 fd15 	bl	34184524 <HAL_RCCEx_GetPLL4CLKFreq>
          frequency = frequency / icx_divider;
34181afa:	fbb0 f0f4 	udiv	r0, r0, r4
          break;
34181afe:	e7f4      	b.n	34181aea <RCC_GetSysClockFreq+0x5e>
      switch (icx_source)
34181b00:	2000      	movs	r0, #0
34181b02:	e7f2      	b.n	34181aea <RCC_GetSysClockFreq+0x5e>
          frequency = HAL_RCCEx_GetPLL1CLKFreq();
34181b04:	f002 fc36 	bl	34184374 <HAL_RCCEx_GetPLL1CLKFreq>
          frequency = frequency / icx_divider;
34181b08:	fbb0 f0f4 	udiv	r0, r0, r4
          break;
34181b0c:	e7ed      	b.n	34181aea <RCC_GetSysClockFreq+0x5e>
          frequency = HAL_RCCEx_GetPLL3CLKFreq();
34181b0e:	f002 fcc1 	bl	34184494 <HAL_RCCEx_GetPLL3CLKFreq>
          frequency = frequency / icx_divider;
34181b12:	fbb0 f0f4 	udiv	r0, r0, r4
          break;
34181b16:	e7e8      	b.n	34181aea <RCC_GetSysClockFreq+0x5e>
      frequency = HSE_VALUE;
34181b18:	4804      	ldr	r0, [pc, #16]	@ (34181b2c <RCC_GetSysClockFreq+0xa0>)
}
34181b1a:	4770      	bx	lr
      frequency = RCC_GET_MSI_FREQUENCY();
34181b1c:	4804      	ldr	r0, [pc, #16]	@ (34181b30 <RCC_GetSysClockFreq+0xa4>)
  return frequency;
34181b1e:	e7e4      	b.n	34181aea <RCC_GetSysClockFreq+0x5e>
34181b20:	56028000 	.word	0x56028000
34181b24:	00f42400 	.word	0x00f42400
34181b28:	03d09000 	.word	0x03d09000
34181b2c:	02dc6c00 	.word	0x02dc6c00
34181b30:	003d0900 	.word	0x003d0900

34181b34 <HAL_RCC_OscConfig>:
  if (pRCC_OscInitStruct == NULL)
34181b34:	2800      	cmp	r0, #0
34181b36:	f000 8365 	beq.w	34182204 <HAL_RCC_OscConfig+0x6d0>
{
34181b3a:	e92d 4ff0 	stmdb	sp!, {r4, r5, r6, r7, r8, r9, sl, fp, lr}
34181b3e:	b083      	sub	sp, #12
34181b40:	4604      	mov	r4, r0
  return (uint32_t)(READ_BIT(RCC->CFGR1, RCC_CFGR1_CPUSWS));
34181b42:	4ba4      	ldr	r3, [pc, #656]	@ (34181dd4 <HAL_RCC_OscConfig+0x2a0>)
34181b44:	6a1d      	ldr	r5, [r3, #32]
34181b46:	f405 1540 	and.w	r5, r5, #3145728	@ 0x300000
  return (uint32_t)(READ_BIT(RCC->CFGR1, RCC_CFGR1_SYSSWS));
34181b4a:	6a1e      	ldr	r6, [r3, #32]
34181b4c:	f006 5640 	and.w	r6, r6, #805306368	@ 0x30000000
  return (uint32_t)(READ_BIT(RCC->PLL1CFGR1, RCC_PLL1CFGR1_PLL1SEL));
34181b50:	f8d3 7080 	ldr.w	r7, [r3, #128]	@ 0x80
34181b54:	f007 47e0 	and.w	r7, r7, #1879048192	@ 0x70000000
  return (uint32_t)(READ_BIT(RCC->PLL2CFGR1, RCC_PLL2CFGR1_PLL2SEL));
34181b58:	f8d3 2090 	ldr.w	r2, [r3, #144]	@ 0x90
34181b5c:	f002 48e0 	and.w	r8, r2, #1879048192	@ 0x70000000
  return (uint32_t)(READ_BIT(RCC->PLL3CFGR1, RCC_PLL3CFGR1_PLL3SEL));
34181b60:	f8d3 20a0 	ldr.w	r2, [r3, #160]	@ 0xa0
34181b64:	f002 49e0 	and.w	r9, r2, #1879048192	@ 0x70000000
  return (uint32_t)(READ_BIT(RCC->PLL4CFGR1, RCC_PLL4CFGR1_PLL4SEL));
34181b68:	f8d3 20b0 	ldr.w	r2, [r3, #176]	@ 0xb0
34181b6c:	f002 4ae0 	and.w	sl, r2, #1879048192	@ 0x70000000
  rccsr = RCC->SR;
34181b70:	f8d3 b004 	ldr.w	fp, [r3, #4]
  if (((pRCC_OscInitStruct->OscillatorType) & RCC_OSCILLATORTYPE_HSE) == RCC_OSCILLATORTYPE_HSE)
34181b74:	6803      	ldr	r3, [r0, #0]
34181b76:	f013 0f01 	tst.w	r3, #1
34181b7a:	d02c      	beq.n	34181bd6 <HAL_RCC_OscConfig+0xa2>
    if ((cpuclksrc == RCC_CPUCLKSOURCE_STATUS_HSE) || (sysclksrc == RCC_SYSCLKSOURCE_STATUS_HSE) ||
34181b7c:	f5b5 1f00 	cmp.w	r5, #2097152	@ 0x200000
34181b80:	d025      	beq.n	34181bce <HAL_RCC_OscConfig+0x9a>
34181b82:	f1b6 5f00 	cmp.w	r6, #536870912	@ 0x20000000
34181b86:	d022      	beq.n	34181bce <HAL_RCC_OscConfig+0x9a>
34181b88:	f1b7 5f00 	cmp.w	r7, #536870912	@ 0x20000000
34181b8c:	d01c      	beq.n	34181bc8 <HAL_RCC_OscConfig+0x94>
        ((pll1src == LL_RCC_PLLSOURCE_HSE) && (((rccsr & RCC_SR_PLL1RDY) == RCC_SR_PLL1RDY))) ||
34181b8e:	f1b8 5f00 	cmp.w	r8, #536870912	@ 0x20000000
34181b92:	f000 808b 	beq.w	34181cac <HAL_RCC_OscConfig+0x178>
        ((pll2src == LL_RCC_PLLSOURCE_HSE) && (((rccsr & RCC_SR_PLL2RDY) == RCC_SR_PLL2RDY))) ||
34181b96:	f1b9 5f00 	cmp.w	r9, #536870912	@ 0x20000000
34181b9a:	f000 808b 	beq.w	34181cb4 <HAL_RCC_OscConfig+0x180>
        ((pll3src == LL_RCC_PLLSOURCE_HSE) && (((rccsr & RCC_SR_PLL3RDY) == RCC_SR_PLL3RDY))) ||
34181b9e:	f1ba 5f00 	cmp.w	sl, #536870912	@ 0x20000000
34181ba2:	f000 808b 	beq.w	34181cbc <HAL_RCC_OscConfig+0x188>
      __HAL_RCC_HSE_CONFIG(pRCC_OscInitStruct->HSEState);
34181ba6:	6863      	ldr	r3, [r4, #4]
34181ba8:	2b10      	cmp	r3, #16
34181baa:	f000 808c 	beq.w	34181cc6 <HAL_RCC_OscConfig+0x192>
34181bae:	2b00      	cmp	r3, #0
34181bb0:	f040 80a1 	bne.w	34181cf6 <HAL_RCC_OscConfig+0x1c2>
34181bb4:	4b87      	ldr	r3, [pc, #540]	@ (34181dd4 <HAL_RCC_OscConfig+0x2a0>)
34181bb6:	f503 5280 	add.w	r2, r3, #4096	@ 0x1000
34181bba:	2110      	movs	r1, #16
34181bbc:	6011      	str	r1, [r2, #0]
34181bbe:	6d5a      	ldr	r2, [r3, #84]	@ 0x54
34181bc0:	f422 32c0 	bic.w	r2, r2, #98304	@ 0x18000
34181bc4:	655a      	str	r2, [r3, #84]	@ 0x54
34181bc6:	e082      	b.n	34181cce <HAL_RCC_OscConfig+0x19a>
        ((pll1src == LL_RCC_PLLSOURCE_HSE) && (((rccsr & RCC_SR_PLL1RDY) == RCC_SR_PLL1RDY))) ||
34181bc8:	f41b 7f80 	tst.w	fp, #256	@ 0x100
34181bcc:	d0df      	beq.n	34181b8e <HAL_RCC_OscConfig+0x5a>
      if (pRCC_OscInitStruct->HSEState == RCC_HSE_OFF)
34181bce:	6863      	ldr	r3, [r4, #4]
34181bd0:	2b00      	cmp	r3, #0
34181bd2:	f000 8319 	beq.w	34182208 <HAL_RCC_OscConfig+0x6d4>
  if (((pRCC_OscInitStruct->OscillatorType) & RCC_OSCILLATORTYPE_HSI) == RCC_OSCILLATORTYPE_HSI)
34181bd6:	6823      	ldr	r3, [r4, #0]
34181bd8:	f013 0f02 	tst.w	r3, #2
34181bdc:	d02b      	beq.n	34181c36 <HAL_RCC_OscConfig+0x102>
    if ((cpuclksrc == RCC_CPUCLKSOURCE_STATUS_HSI) || (sysclksrc == RCC_SYSCLKSOURCE_STATUS_HSI) ||
34181bde:	b1c5      	cbz	r5, 34181c12 <HAL_RCC_OscConfig+0xde>
34181be0:	b1be      	cbz	r6, 34181c12 <HAL_RCC_OscConfig+0xde>
34181be2:	b917      	cbnz	r7, 34181bea <HAL_RCC_OscConfig+0xb6>
        ((pll1src == LL_RCC_PLLSOURCE_HSI) && (((rccsr & RCC_SR_PLL1RDY) == RCC_SR_PLL1RDY))) ||
34181be4:	f41b 7f80 	tst.w	fp, #256	@ 0x100
34181be8:	d113      	bne.n	34181c12 <HAL_RCC_OscConfig+0xde>
34181bea:	f1b8 0f00 	cmp.w	r8, #0
34181bee:	d102      	bne.n	34181bf6 <HAL_RCC_OscConfig+0xc2>
        ((pll2src == LL_RCC_PLLSOURCE_HSI) && (((rccsr & RCC_SR_PLL2RDY) == RCC_SR_PLL2RDY))) ||
34181bf0:	f41b 7f00 	tst.w	fp, #512	@ 0x200
34181bf4:	d10d      	bne.n	34181c12 <HAL_RCC_OscConfig+0xde>
34181bf6:	f1b9 0f00 	cmp.w	r9, #0
34181bfa:	d102      	bne.n	34181c02 <HAL_RCC_OscConfig+0xce>
        ((pll3src == LL_RCC_PLLSOURCE_HSI) && (((rccsr & RCC_SR_PLL3RDY) == RCC_SR_PLL3RDY))) ||
34181bfc:	f41b 6f80 	tst.w	fp, #1024	@ 0x400
34181c00:	d107      	bne.n	34181c12 <HAL_RCC_OscConfig+0xde>
34181c02:	f1ba 0f00 	cmp.w	sl, #0
34181c06:	f040 80ab 	bne.w	34181d60 <HAL_RCC_OscConfig+0x22c>
        ((pll4src == LL_RCC_PLLSOURCE_HSI) && (((rccsr & RCC_SR_PLL4RDY) == RCC_SR_PLL4RDY))))
34181c0a:	f41b 6f00 	tst.w	fp, #2048	@ 0x800
34181c0e:	f000 80a7 	beq.w	34181d60 <HAL_RCC_OscConfig+0x22c>
      if (pRCC_OscInitStruct->HSIState == RCC_HSI_OFF)
34181c12:	68e3      	ldr	r3, [r4, #12]
34181c14:	2b00      	cmp	r3, #0
34181c16:	f000 82f9 	beq.w	3418220c <HAL_RCC_OscConfig+0x6d8>
        __HAL_RCC_HSI_DIVIDER_CONFIG(pRCC_OscInitStruct->HSIDiv);
34181c1a:	6923      	ldr	r3, [r4, #16]
  MODIFY_REG(RCC->HSICFGR, RCC_HSICFGR_HSIDIV, Divider);
34181c1c:	4a6d      	ldr	r2, [pc, #436]	@ (34181dd4 <HAL_RCC_OscConfig+0x2a0>)
34181c1e:	6c91      	ldr	r1, [r2, #72]	@ 0x48
34181c20:	f421 71c0 	bic.w	r1, r1, #384	@ 0x180
34181c24:	430b      	orrs	r3, r1
34181c26:	6493      	str	r3, [r2, #72]	@ 0x48
        __HAL_RCC_HSI_CALIBRATIONVALUE_ADJUST(pRCC_OscInitStruct->HSICalibrationValue);
34181c28:	6961      	ldr	r1, [r4, #20]
  MODIFY_REG(RCC->HSICFGR, RCC_HSICFGR_HSITRIM, Value << RCC_HSICFGR_HSITRIM_Pos);
34181c2a:	6c93      	ldr	r3, [r2, #72]	@ 0x48
34181c2c:	f423 03fe 	bic.w	r3, r3, #8323072	@ 0x7f0000
34181c30:	ea43 4301 	orr.w	r3, r3, r1, lsl #16
34181c34:	6493      	str	r3, [r2, #72]	@ 0x48
  if (((pRCC_OscInitStruct->OscillatorType) & RCC_OSCILLATORTYPE_MSI) == RCC_OSCILLATORTYPE_MSI)
34181c36:	6823      	ldr	r3, [r4, #0]
34181c38:	f013 0f10 	tst.w	r3, #16
34181c3c:	f000 80e0 	beq.w	34181e00 <HAL_RCC_OscConfig+0x2cc>
    if ((cpuclksrc == RCC_CPUCLKSOURCE_STATUS_MSI) || (sysclksrc == RCC_SYSCLKSOURCE_STATUS_MSI) ||
34181c40:	f5b5 1f80 	cmp.w	r5, #1048576	@ 0x100000
34181c44:	f000 80d0 	beq.w	34181de8 <HAL_RCC_OscConfig+0x2b4>
34181c48:	f1b6 5f80 	cmp.w	r6, #268435456	@ 0x10000000
34181c4c:	f000 80cc 	beq.w	34181de8 <HAL_RCC_OscConfig+0x2b4>
34181c50:	f1b7 5f80 	cmp.w	r7, #268435456	@ 0x10000000
34181c54:	f000 80c4 	beq.w	34181de0 <HAL_RCC_OscConfig+0x2ac>
        ((pll1src == LL_RCC_PLLSOURCE_MSI) && (((rccsr & RCC_SR_PLL1RDY) == RCC_SR_PLL1RDY))) ||
34181c58:	f1b8 5f80 	cmp.w	r8, #268435456	@ 0x10000000
34181c5c:	f000 80ea 	beq.w	34181e34 <HAL_RCC_OscConfig+0x300>
        ((pll2src == LL_RCC_PLLSOURCE_MSI) && (((rccsr & RCC_SR_PLL2RDY) == RCC_SR_PLL2RDY))) ||
34181c60:	f1b9 5f80 	cmp.w	r9, #268435456	@ 0x10000000
34181c64:	f000 80ea 	beq.w	34181e3c <HAL_RCC_OscConfig+0x308>
        ((pll3src == LL_RCC_PLLSOURCE_MSI) && (((rccsr & RCC_SR_PLL3RDY) == RCC_SR_PLL3RDY))) ||
34181c68:	f1ba 5f80 	cmp.w	sl, #268435456	@ 0x10000000
34181c6c:	f000 80ea 	beq.w	34181e44 <HAL_RCC_OscConfig+0x310>
      if ((pRCC_OscInitStruct->MSIState) != RCC_MSI_OFF)
34181c70:	69e3      	ldr	r3, [r4, #28]
34181c72:	2b00      	cmp	r3, #0
34181c74:	f000 80f4 	beq.w	34181e60 <HAL_RCC_OscConfig+0x32c>
        __HAL_RCC_MSI_FREQUENCY_CONFIG(pRCC_OscInitStruct->MSIFrequency);
34181c78:	6a22      	ldr	r2, [r4, #32]
  MODIFY_REG(RCC->MSICFGR, RCC_MSICFGR_MSIFREQSEL, Value);
34181c7a:	4b56      	ldr	r3, [pc, #344]	@ (34181dd4 <HAL_RCC_OscConfig+0x2a0>)
34181c7c:	6c59      	ldr	r1, [r3, #68]	@ 0x44
34181c7e:	f421 7100 	bic.w	r1, r1, #512	@ 0x200
34181c82:	430a      	orrs	r2, r1
34181c84:	645a      	str	r2, [r3, #68]	@ 0x44
  WRITE_REG(RCC->CSR, RCC_CSR_MSIONS);
34181c86:	2204      	movs	r2, #4
34181c88:	f8c3 2800 	str.w	r2, [r3, #2048]	@ 0x800
        tickstart = HAL_GetTick();
34181c8c:	f005 fe76 	bl	3418797c <HAL_GetTick>
34181c90:	4607      	mov	r7, r0
  return ((READ_BIT(RCC->SR, RCC_SR_MSIRDY) != 0UL) ? 1UL : 0UL);
34181c92:	4b50      	ldr	r3, [pc, #320]	@ (34181dd4 <HAL_RCC_OscConfig+0x2a0>)
34181c94:	685b      	ldr	r3, [r3, #4]
34181c96:	f013 0f04 	tst.w	r3, #4
34181c9a:	f040 80d8 	bne.w	34181e4e <HAL_RCC_OscConfig+0x31a>
          if ((HAL_GetTick() - tickstart) > RCC_MSI_TIMEOUT_VALUE)
34181c9e:	f005 fe6d 	bl	3418797c <HAL_GetTick>
34181ca2:	1bc0      	subs	r0, r0, r7
34181ca4:	2801      	cmp	r0, #1
34181ca6:	d9f4      	bls.n	34181c92 <HAL_RCC_OscConfig+0x15e>
            return HAL_TIMEOUT;
34181ca8:	2003      	movs	r0, #3
34181caa:	e179      	b.n	34181fa0 <HAL_RCC_OscConfig+0x46c>
        ((pll2src == LL_RCC_PLLSOURCE_HSE) && (((rccsr & RCC_SR_PLL2RDY) == RCC_SR_PLL2RDY))) ||
34181cac:	f41b 7f00 	tst.w	fp, #512	@ 0x200
34181cb0:	d18d      	bne.n	34181bce <HAL_RCC_OscConfig+0x9a>
34181cb2:	e770      	b.n	34181b96 <HAL_RCC_OscConfig+0x62>
        ((pll3src == LL_RCC_PLLSOURCE_HSE) && (((rccsr & RCC_SR_PLL3RDY) == RCC_SR_PLL3RDY))) ||
34181cb4:	f41b 6f80 	tst.w	fp, #1024	@ 0x400
34181cb8:	d189      	bne.n	34181bce <HAL_RCC_OscConfig+0x9a>
34181cba:	e770      	b.n	34181b9e <HAL_RCC_OscConfig+0x6a>
        ((pll4src == LL_RCC_PLLSOURCE_HSE) && (((rccsr & RCC_SR_PLL4RDY) == RCC_SR_PLL4RDY))))
34181cbc:	f41b 6f00 	tst.w	fp, #2048	@ 0x800
34181cc0:	f43f af71 	beq.w	34181ba6 <HAL_RCC_OscConfig+0x72>
34181cc4:	e783      	b.n	34181bce <HAL_RCC_OscConfig+0x9a>
      __HAL_RCC_HSE_CONFIG(pRCC_OscInitStruct->HSEState);
34181cc6:	4b43      	ldr	r3, [pc, #268]	@ (34181dd4 <HAL_RCC_OscConfig+0x2a0>)
34181cc8:	2210      	movs	r2, #16
34181cca:	f8c3 2800 	str.w	r2, [r3, #2048]	@ 0x800
      tickstart = HAL_GetTick();
34181cce:	f005 fe55 	bl	3418797c <HAL_GetTick>
34181cd2:	9001      	str	r0, [sp, #4]
      if (pRCC_OscInitStruct->HSEState != RCC_HSE_OFF)
34181cd4:	6863      	ldr	r3, [r4, #4]
34181cd6:	2b00      	cmp	r3, #0
34181cd8:	d134      	bne.n	34181d44 <HAL_RCC_OscConfig+0x210>
        while (READ_BIT(RCC->SR, RCC_SR_HSERDY) != 0U)
34181cda:	4b3e      	ldr	r3, [pc, #248]	@ (34181dd4 <HAL_RCC_OscConfig+0x2a0>)
34181cdc:	685b      	ldr	r3, [r3, #4]
34181cde:	f013 0f10 	tst.w	r3, #16
34181ce2:	f43f af78 	beq.w	34181bd6 <HAL_RCC_OscConfig+0xa2>
          if ((HAL_GetTick() - tickstart) > RCC_HSE_TIMEOUT_VALUE)
34181ce6:	f005 fe49 	bl	3418797c <HAL_GetTick>
34181cea:	9b01      	ldr	r3, [sp, #4]
34181cec:	1ac0      	subs	r0, r0, r3
34181cee:	2864      	cmp	r0, #100	@ 0x64
34181cf0:	d9f3      	bls.n	34181cda <HAL_RCC_OscConfig+0x1a6>
            return HAL_TIMEOUT;
34181cf2:	2003      	movs	r0, #3
34181cf4:	e154      	b.n	34181fa0 <HAL_RCC_OscConfig+0x46c>
      __HAL_RCC_HSE_CONFIG(pRCC_OscInitStruct->HSEState);
34181cf6:	f248 0210 	movw	r2, #32784	@ 0x8010
34181cfa:	4293      	cmp	r3, r2
34181cfc:	d00c      	beq.n	34181d18 <HAL_RCC_OscConfig+0x1e4>
34181cfe:	4a36      	ldr	r2, [pc, #216]	@ (34181dd8 <HAL_RCC_OscConfig+0x2a4>)
34181d00:	4293      	cmp	r3, r2
34181d02:	d016      	beq.n	34181d32 <HAL_RCC_OscConfig+0x1fe>
34181d04:	4b33      	ldr	r3, [pc, #204]	@ (34181dd4 <HAL_RCC_OscConfig+0x2a0>)
34181d06:	f503 5280 	add.w	r2, r3, #4096	@ 0x1000
34181d0a:	2110      	movs	r1, #16
34181d0c:	6011      	str	r1, [r2, #0]
34181d0e:	6d5a      	ldr	r2, [r3, #84]	@ 0x54
34181d10:	f422 32c0 	bic.w	r2, r2, #98304	@ 0x18000
34181d14:	655a      	str	r2, [r3, #84]	@ 0x54
34181d16:	e7da      	b.n	34181cce <HAL_RCC_OscConfig+0x19a>
34181d18:	4b2e      	ldr	r3, [pc, #184]	@ (34181dd4 <HAL_RCC_OscConfig+0x2a0>)
34181d1a:	6d5a      	ldr	r2, [r3, #84]	@ 0x54
34181d1c:	f442 4200 	orr.w	r2, r2, #32768	@ 0x8000
34181d20:	655a      	str	r2, [r3, #84]	@ 0x54
34181d22:	6d5a      	ldr	r2, [r3, #84]	@ 0x54
34181d24:	f422 3280 	bic.w	r2, r2, #65536	@ 0x10000
34181d28:	655a      	str	r2, [r3, #84]	@ 0x54
34181d2a:	2210      	movs	r2, #16
34181d2c:	f8c3 2800 	str.w	r2, [r3, #2048]	@ 0x800
34181d30:	e7cd      	b.n	34181cce <HAL_RCC_OscConfig+0x19a>
34181d32:	4b28      	ldr	r3, [pc, #160]	@ (34181dd4 <HAL_RCC_OscConfig+0x2a0>)
34181d34:	6d5a      	ldr	r2, [r3, #84]	@ 0x54
34181d36:	f442 32c0 	orr.w	r2, r2, #98304	@ 0x18000
34181d3a:	655a      	str	r2, [r3, #84]	@ 0x54
34181d3c:	2210      	movs	r2, #16
34181d3e:	f8c3 2800 	str.w	r2, [r3, #2048]	@ 0x800
34181d42:	e7c4      	b.n	34181cce <HAL_RCC_OscConfig+0x19a>
        while (READ_BIT(RCC->SR, RCC_SR_HSERDY) == 0U)
34181d44:	4b23      	ldr	r3, [pc, #140]	@ (34181dd4 <HAL_RCC_OscConfig+0x2a0>)
34181d46:	685b      	ldr	r3, [r3, #4]
34181d48:	f013 0f10 	tst.w	r3, #16
34181d4c:	f47f af43 	bne.w	34181bd6 <HAL_RCC_OscConfig+0xa2>
          if ((HAL_GetTick() - tickstart) > RCC_HSE_TIMEOUT_VALUE)
34181d50:	f005 fe14 	bl	3418797c <HAL_GetTick>
34181d54:	9b01      	ldr	r3, [sp, #4]
34181d56:	1ac0      	subs	r0, r0, r3
34181d58:	2864      	cmp	r0, #100	@ 0x64
34181d5a:	d9f3      	bls.n	34181d44 <HAL_RCC_OscConfig+0x210>
            return HAL_TIMEOUT;
34181d5c:	2003      	movs	r0, #3
34181d5e:	e11f      	b.n	34181fa0 <HAL_RCC_OscConfig+0x46c>
      if (pRCC_OscInitStruct->HSIState != RCC_HSI_OFF)
34181d60:	68e3      	ldr	r3, [r4, #12]
34181d62:	b313      	cbz	r3, 34181daa <HAL_RCC_OscConfig+0x276>
  WRITE_REG(RCC->CSR, RCC_CSR_HSIONS);
34181d64:	4b1b      	ldr	r3, [pc, #108]	@ (34181dd4 <HAL_RCC_OscConfig+0x2a0>)
34181d66:	2208      	movs	r2, #8
34181d68:	f8c3 2800 	str.w	r2, [r3, #2048]	@ 0x800
        tickstart = HAL_GetTick();
34181d6c:	f005 fe06 	bl	3418797c <HAL_GetTick>
34181d70:	9001      	str	r0, [sp, #4]
  return ((READ_BIT(RCC->SR, RCC_SR_HSIRDY) != 0UL) ? 1UL : 0UL);
34181d72:	4b18      	ldr	r3, [pc, #96]	@ (34181dd4 <HAL_RCC_OscConfig+0x2a0>)
34181d74:	685b      	ldr	r3, [r3, #4]
34181d76:	f013 0f08 	tst.w	r3, #8
34181d7a:	d00e      	beq.n	34181d9a <HAL_RCC_OscConfig+0x266>
        __HAL_RCC_HSI_DIVIDER_CONFIG(pRCC_OscInitStruct->HSIDiv);
34181d7c:	6923      	ldr	r3, [r4, #16]
  MODIFY_REG(RCC->HSICFGR, RCC_HSICFGR_HSIDIV, Divider);
34181d7e:	4a15      	ldr	r2, [pc, #84]	@ (34181dd4 <HAL_RCC_OscConfig+0x2a0>)
34181d80:	6c91      	ldr	r1, [r2, #72]	@ 0x48
34181d82:	f421 71c0 	bic.w	r1, r1, #384	@ 0x180
34181d86:	430b      	orrs	r3, r1
34181d88:	6493      	str	r3, [r2, #72]	@ 0x48
        __HAL_RCC_HSI_CALIBRATIONVALUE_ADJUST(pRCC_OscInitStruct->HSICalibrationValue);
34181d8a:	6961      	ldr	r1, [r4, #20]
  MODIFY_REG(RCC->HSICFGR, RCC_HSICFGR_HSITRIM, Value << RCC_HSICFGR_HSITRIM_Pos);
34181d8c:	6c93      	ldr	r3, [r2, #72]	@ 0x48
34181d8e:	f423 03fe 	bic.w	r3, r3, #8323072	@ 0x7f0000
34181d92:	ea43 4301 	orr.w	r3, r3, r1, lsl #16
34181d96:	6493      	str	r3, [r2, #72]	@ 0x48
}
34181d98:	e74d      	b.n	34181c36 <HAL_RCC_OscConfig+0x102>
          if ((HAL_GetTick() - tickstart) > RCC_HSI_TIMEOUT_VALUE)
34181d9a:	f005 fdef 	bl	3418797c <HAL_GetTick>
34181d9e:	9b01      	ldr	r3, [sp, #4]
34181da0:	1ac3      	subs	r3, r0, r3
34181da2:	2b01      	cmp	r3, #1
34181da4:	d9e5      	bls.n	34181d72 <HAL_RCC_OscConfig+0x23e>
            return HAL_TIMEOUT;
34181da6:	2003      	movs	r0, #3
34181da8:	e0fa      	b.n	34181fa0 <HAL_RCC_OscConfig+0x46c>
  WRITE_REG(RCC->CCR, RCC_CCR_HSIONC);
34181daa:	4b0c      	ldr	r3, [pc, #48]	@ (34181ddc <HAL_RCC_OscConfig+0x2a8>)
34181dac:	2208      	movs	r2, #8
34181dae:	601a      	str	r2, [r3, #0]
        tickstart = HAL_GetTick();
34181db0:	f005 fde4 	bl	3418797c <HAL_GetTick>
34181db4:	9001      	str	r0, [sp, #4]
  return ((READ_BIT(RCC->SR, RCC_SR_HSIRDY) != 0UL) ? 1UL : 0UL);
34181db6:	4b07      	ldr	r3, [pc, #28]	@ (34181dd4 <HAL_RCC_OscConfig+0x2a0>)
34181db8:	685b      	ldr	r3, [r3, #4]
34181dba:	f013 0f08 	tst.w	r3, #8
34181dbe:	f43f af3a 	beq.w	34181c36 <HAL_RCC_OscConfig+0x102>
          if ((HAL_GetTick() - tickstart) > RCC_HSI_TIMEOUT_VALUE)
34181dc2:	f005 fddb 	bl	3418797c <HAL_GetTick>
34181dc6:	9b01      	ldr	r3, [sp, #4]
34181dc8:	1ac3      	subs	r3, r0, r3
34181dca:	2b01      	cmp	r3, #1
34181dcc:	d9f3      	bls.n	34181db6 <HAL_RCC_OscConfig+0x282>
            return HAL_TIMEOUT;
34181dce:	2003      	movs	r0, #3
34181dd0:	e0e6      	b.n	34181fa0 <HAL_RCC_OscConfig+0x46c>
34181dd2:	bf00      	nop
34181dd4:	56028000 	.word	0x56028000
34181dd8:	00018010 	.word	0x00018010
34181ddc:	56029000 	.word	0x56029000
        ((pll1src == LL_RCC_PLLSOURCE_MSI) && (((rccsr & RCC_SR_PLL1RDY) == RCC_SR_PLL1RDY))) ||
34181de0:	f41b 7f80 	tst.w	fp, #256	@ 0x100
34181de4:	f43f af38 	beq.w	34181c58 <HAL_RCC_OscConfig+0x124>
      if (pRCC_OscInitStruct->MSIState == RCC_MSI_OFF)
34181de8:	69e3      	ldr	r3, [r4, #28]
34181dea:	2b00      	cmp	r3, #0
34181dec:	f000 8210 	beq.w	34182210 <HAL_RCC_OscConfig+0x6dc>
        __HAL_RCC_MSI_CALIBRATIONVALUE_ADJUST(pRCC_OscInitStruct->MSICalibrationValue);
34181df0:	6a61      	ldr	r1, [r4, #36]	@ 0x24
  MODIFY_REG(RCC->MSICFGR, RCC_MSICFGR_MSITRIM, Value << RCC_MSICFGR_MSITRIM_Pos);
34181df2:	4a9d      	ldr	r2, [pc, #628]	@ (34182068 <HAL_RCC_OscConfig+0x534>)
34181df4:	6c53      	ldr	r3, [r2, #68]	@ 0x44
34181df6:	f423 13f8 	bic.w	r3, r3, #2031616	@ 0x1f0000
34181dfa:	ea43 4301 	orr.w	r3, r3, r1, lsl #16
34181dfe:	6453      	str	r3, [r2, #68]	@ 0x44
  if (((pRCC_OscInitStruct->OscillatorType) & RCC_OSCILLATORTYPE_LSI) == RCC_OSCILLATORTYPE_LSI)
34181e00:	6823      	ldr	r3, [r4, #0]
34181e02:	f013 0f08 	tst.w	r3, #8
34181e06:	d04f      	beq.n	34181ea8 <HAL_RCC_OscConfig+0x374>
    if ((pRCC_OscInitStruct->LSIState) != RCC_LSI_OFF)
34181e08:	69a3      	ldr	r3, [r4, #24]
34181e0a:	2b00      	cmp	r3, #0
34181e0c:	d03a      	beq.n	34181e84 <HAL_RCC_OscConfig+0x350>
  WRITE_REG(RCC->CSR, RCC_CSR_LSIONS);
34181e0e:	4b96      	ldr	r3, [pc, #600]	@ (34182068 <HAL_RCC_OscConfig+0x534>)
34181e10:	2201      	movs	r2, #1
34181e12:	f8c3 2800 	str.w	r2, [r3, #2048]	@ 0x800
      tickstart = HAL_GetTick();
34181e16:	f005 fdb1 	bl	3418797c <HAL_GetTick>
34181e1a:	4607      	mov	r7, r0
  return ((READ_BIT(RCC->SR, RCC_SR_LSIRDY) != 0UL) ? 1UL : 0UL);
34181e1c:	4b92      	ldr	r3, [pc, #584]	@ (34182068 <HAL_RCC_OscConfig+0x534>)
34181e1e:	685b      	ldr	r3, [r3, #4]
      while (LL_RCC_LSI_IsReady() == 0U)
34181e20:	f013 0f01 	tst.w	r3, #1
34181e24:	d140      	bne.n	34181ea8 <HAL_RCC_OscConfig+0x374>
        if ((HAL_GetTick() - tickstart) > RCC_LSI_TIMEOUT_VALUE)
34181e26:	f005 fda9 	bl	3418797c <HAL_GetTick>
34181e2a:	1bc0      	subs	r0, r0, r7
34181e2c:	2801      	cmp	r0, #1
34181e2e:	d9f5      	bls.n	34181e1c <HAL_RCC_OscConfig+0x2e8>
          return HAL_TIMEOUT;
34181e30:	2003      	movs	r0, #3
34181e32:	e0b5      	b.n	34181fa0 <HAL_RCC_OscConfig+0x46c>
        ((pll2src == LL_RCC_PLLSOURCE_MSI) && (((rccsr & RCC_SR_PLL2RDY) == RCC_SR_PLL2RDY))) ||
34181e34:	f41b 7f00 	tst.w	fp, #512	@ 0x200
34181e38:	d1d6      	bne.n	34181de8 <HAL_RCC_OscConfig+0x2b4>
34181e3a:	e711      	b.n	34181c60 <HAL_RCC_OscConfig+0x12c>
        ((pll3src == LL_RCC_PLLSOURCE_MSI) && (((rccsr & RCC_SR_PLL3RDY) == RCC_SR_PLL3RDY))) ||
34181e3c:	f41b 6f80 	tst.w	fp, #1024	@ 0x400
34181e40:	d1d2      	bne.n	34181de8 <HAL_RCC_OscConfig+0x2b4>
34181e42:	e711      	b.n	34181c68 <HAL_RCC_OscConfig+0x134>
        ((pll4src == LL_RCC_PLLSOURCE_MSI) && (((rccsr & RCC_SR_PLL4RDY) == RCC_SR_PLL4RDY))))
34181e44:	f41b 6f00 	tst.w	fp, #2048	@ 0x800
34181e48:	f43f af12 	beq.w	34181c70 <HAL_RCC_OscConfig+0x13c>
34181e4c:	e7cc      	b.n	34181de8 <HAL_RCC_OscConfig+0x2b4>
        __HAL_RCC_MSI_CALIBRATIONVALUE_ADJUST(pRCC_OscInitStruct->MSICalibrationValue);
34181e4e:	6a61      	ldr	r1, [r4, #36]	@ 0x24
  MODIFY_REG(RCC->MSICFGR, RCC_MSICFGR_MSITRIM, Value << RCC_MSICFGR_MSITRIM_Pos);
34181e50:	4a85      	ldr	r2, [pc, #532]	@ (34182068 <HAL_RCC_OscConfig+0x534>)
34181e52:	6c53      	ldr	r3, [r2, #68]	@ 0x44
34181e54:	f423 13f8 	bic.w	r3, r3, #2031616	@ 0x1f0000
34181e58:	ea43 4301 	orr.w	r3, r3, r1, lsl #16
34181e5c:	6453      	str	r3, [r2, #68]	@ 0x44
}
34181e5e:	e7cf      	b.n	34181e00 <HAL_RCC_OscConfig+0x2cc>
  WRITE_REG(RCC->CCR, RCC_CCR_MSIONC);
34181e60:	4b82      	ldr	r3, [pc, #520]	@ (3418206c <HAL_RCC_OscConfig+0x538>)
34181e62:	2204      	movs	r2, #4
34181e64:	601a      	str	r2, [r3, #0]
        tickstart = HAL_GetTick();
34181e66:	f005 fd89 	bl	3418797c <HAL_GetTick>
34181e6a:	4607      	mov	r7, r0
  return ((READ_BIT(RCC->SR, RCC_SR_MSIRDY) != 0UL) ? 1UL : 0UL);
34181e6c:	4b7e      	ldr	r3, [pc, #504]	@ (34182068 <HAL_RCC_OscConfig+0x534>)
34181e6e:	685b      	ldr	r3, [r3, #4]
34181e70:	f013 0f04 	tst.w	r3, #4
34181e74:	d0c4      	beq.n	34181e00 <HAL_RCC_OscConfig+0x2cc>
          if ((HAL_GetTick() - tickstart) > RCC_MSI_TIMEOUT_VALUE)
34181e76:	f005 fd81 	bl	3418797c <HAL_GetTick>
34181e7a:	1bc0      	subs	r0, r0, r7
34181e7c:	2801      	cmp	r0, #1
34181e7e:	d9f5      	bls.n	34181e6c <HAL_RCC_OscConfig+0x338>
            return HAL_TIMEOUT;
34181e80:	2003      	movs	r0, #3
34181e82:	e08d      	b.n	34181fa0 <HAL_RCC_OscConfig+0x46c>
  WRITE_REG(RCC->CCR, RCC_CCR_LSIONC);
34181e84:	4b79      	ldr	r3, [pc, #484]	@ (3418206c <HAL_RCC_OscConfig+0x538>)
34181e86:	2201      	movs	r2, #1
34181e88:	601a      	str	r2, [r3, #0]
      tickstart = HAL_GetTick();
34181e8a:	f005 fd77 	bl	3418797c <HAL_GetTick>
34181e8e:	4607      	mov	r7, r0
  return ((READ_BIT(RCC->SR, RCC_SR_LSIRDY) != 0UL) ? 1UL : 0UL);
34181e90:	4b75      	ldr	r3, [pc, #468]	@ (34182068 <HAL_RCC_OscConfig+0x534>)
34181e92:	685b      	ldr	r3, [r3, #4]
      while (LL_RCC_LSI_IsReady() != 0U)
34181e94:	f013 0f01 	tst.w	r3, #1
34181e98:	d006      	beq.n	34181ea8 <HAL_RCC_OscConfig+0x374>
        if ((HAL_GetTick() - tickstart) > RCC_LSI_TIMEOUT_VALUE)
34181e9a:	f005 fd6f 	bl	3418797c <HAL_GetTick>
34181e9e:	1bc0      	subs	r0, r0, r7
34181ea0:	2801      	cmp	r0, #1
34181ea2:	d9f5      	bls.n	34181e90 <HAL_RCC_OscConfig+0x35c>
          return HAL_TIMEOUT;
34181ea4:	2003      	movs	r0, #3
34181ea6:	e07b      	b.n	34181fa0 <HAL_RCC_OscConfig+0x46c>
  if (((pRCC_OscInitStruct->OscillatorType) & RCC_OSCILLATORTYPE_LSE) == RCC_OSCILLATORTYPE_LSE)
34181ea8:	6823      	ldr	r3, [r4, #0]
34181eaa:	f013 0f04 	tst.w	r3, #4
34181eae:	d069      	beq.n	34181f84 <HAL_RCC_OscConfig+0x450>
    __HAL_RCC_LSE_CONFIG(pRCC_OscInitStruct->LSEState);
34181eb0:	68a3      	ldr	r3, [r4, #8]
34181eb2:	2b02      	cmp	r3, #2
34181eb4:	d00e      	beq.n	34181ed4 <HAL_RCC_OscConfig+0x3a0>
34181eb6:	bb2b      	cbnz	r3, 34181f04 <HAL_RCC_OscConfig+0x3d0>
34181eb8:	4b6b      	ldr	r3, [pc, #428]	@ (34182068 <HAL_RCC_OscConfig+0x534>)
34181eba:	f503 5280 	add.w	r2, r3, #4096	@ 0x1000
34181ebe:	2102      	movs	r1, #2
34181ec0:	6011      	str	r1, [r2, #0]
34181ec2:	6c1a      	ldr	r2, [r3, #64]	@ 0x40
34181ec4:	f422 3280 	bic.w	r2, r2, #65536	@ 0x10000
34181ec8:	641a      	str	r2, [r3, #64]	@ 0x40
34181eca:	6c1a      	ldr	r2, [r3, #64]	@ 0x40
34181ecc:	f422 4200 	bic.w	r2, r2, #32768	@ 0x8000
34181ed0:	641a      	str	r2, [r3, #64]	@ 0x40
34181ed2:	e003      	b.n	34181edc <HAL_RCC_OscConfig+0x3a8>
34181ed4:	4b64      	ldr	r3, [pc, #400]	@ (34182068 <HAL_RCC_OscConfig+0x534>)
34181ed6:	2202      	movs	r2, #2
34181ed8:	f8c3 2800 	str.w	r2, [r3, #2048]	@ 0x800
    if ((pRCC_OscInitStruct->LSEState) != RCC_LSE_OFF)
34181edc:	68a3      	ldr	r3, [r4, #8]
34181ede:	2b00      	cmp	r3, #0
34181ee0:	d03f      	beq.n	34181f62 <HAL_RCC_OscConfig+0x42e>
      tickstart = HAL_GetTick();
34181ee2:	f005 fd4b 	bl	3418797c <HAL_GetTick>
34181ee6:	4607      	mov	r7, r0
  return ((READ_BIT(RCC->SR, RCC_SR_LSERDY) != 0UL) ? 1UL : 0UL);
34181ee8:	4b5f      	ldr	r3, [pc, #380]	@ (34182068 <HAL_RCC_OscConfig+0x534>)
34181eea:	685b      	ldr	r3, [r3, #4]
34181eec:	f013 0f02 	tst.w	r3, #2
34181ef0:	d148      	bne.n	34181f84 <HAL_RCC_OscConfig+0x450>
        if ((HAL_GetTick() - tickstart) > RCC_LSE_TIMEOUT_VALUE)
34181ef2:	f005 fd43 	bl	3418797c <HAL_GetTick>
34181ef6:	1bc3      	subs	r3, r0, r7
34181ef8:	f241 3288 	movw	r2, #5000	@ 0x1388
34181efc:	4293      	cmp	r3, r2
34181efe:	d9f3      	bls.n	34181ee8 <HAL_RCC_OscConfig+0x3b4>
          return HAL_TIMEOUT;
34181f00:	2003      	movs	r0, #3
34181f02:	e04d      	b.n	34181fa0 <HAL_RCC_OscConfig+0x46c>
    __HAL_RCC_LSE_CONFIG(pRCC_OscInitStruct->LSEState);
34181f04:	f248 0202 	movw	r2, #32770	@ 0x8002
34181f08:	4293      	cmp	r3, r2
34181f0a:	d010      	beq.n	34181f2e <HAL_RCC_OscConfig+0x3fa>
34181f0c:	4a58      	ldr	r2, [pc, #352]	@ (34182070 <HAL_RCC_OscConfig+0x53c>)
34181f0e:	4293      	cmp	r3, r2
34181f10:	d01a      	beq.n	34181f48 <HAL_RCC_OscConfig+0x414>
34181f12:	4b55      	ldr	r3, [pc, #340]	@ (34182068 <HAL_RCC_OscConfig+0x534>)
34181f14:	f503 5280 	add.w	r2, r3, #4096	@ 0x1000
34181f18:	2102      	movs	r1, #2
34181f1a:	6011      	str	r1, [r2, #0]
34181f1c:	6c1a      	ldr	r2, [r3, #64]	@ 0x40
34181f1e:	f422 4200 	bic.w	r2, r2, #32768	@ 0x8000
34181f22:	641a      	str	r2, [r3, #64]	@ 0x40
34181f24:	6c1a      	ldr	r2, [r3, #64]	@ 0x40
34181f26:	f422 3280 	bic.w	r2, r2, #65536	@ 0x10000
34181f2a:	641a      	str	r2, [r3, #64]	@ 0x40
34181f2c:	e7d6      	b.n	34181edc <HAL_RCC_OscConfig+0x3a8>
34181f2e:	4b4e      	ldr	r3, [pc, #312]	@ (34182068 <HAL_RCC_OscConfig+0x534>)
34181f30:	6c1a      	ldr	r2, [r3, #64]	@ 0x40
34181f32:	f442 4200 	orr.w	r2, r2, #32768	@ 0x8000
34181f36:	641a      	str	r2, [r3, #64]	@ 0x40
34181f38:	6c1a      	ldr	r2, [r3, #64]	@ 0x40
34181f3a:	f422 3280 	bic.w	r2, r2, #65536	@ 0x10000
34181f3e:	641a      	str	r2, [r3, #64]	@ 0x40
34181f40:	2202      	movs	r2, #2
34181f42:	f8c3 2800 	str.w	r2, [r3, #2048]	@ 0x800
34181f46:	e7c9      	b.n	34181edc <HAL_RCC_OscConfig+0x3a8>
34181f48:	4b47      	ldr	r3, [pc, #284]	@ (34182068 <HAL_RCC_OscConfig+0x534>)
34181f4a:	6c1a      	ldr	r2, [r3, #64]	@ 0x40
34181f4c:	f442 4200 	orr.w	r2, r2, #32768	@ 0x8000
34181f50:	641a      	str	r2, [r3, #64]	@ 0x40
34181f52:	6c1a      	ldr	r2, [r3, #64]	@ 0x40
34181f54:	f442 3280 	orr.w	r2, r2, #65536	@ 0x10000
34181f58:	641a      	str	r2, [r3, #64]	@ 0x40
34181f5a:	2202      	movs	r2, #2
34181f5c:	f8c3 2800 	str.w	r2, [r3, #2048]	@ 0x800
34181f60:	e7bc      	b.n	34181edc <HAL_RCC_OscConfig+0x3a8>
      tickstart = HAL_GetTick();
34181f62:	f005 fd0b 	bl	3418797c <HAL_GetTick>
34181f66:	4607      	mov	r7, r0
34181f68:	4b3f      	ldr	r3, [pc, #252]	@ (34182068 <HAL_RCC_OscConfig+0x534>)
34181f6a:	685b      	ldr	r3, [r3, #4]
34181f6c:	f013 0f02 	tst.w	r3, #2
34181f70:	d008      	beq.n	34181f84 <HAL_RCC_OscConfig+0x450>
        if ((HAL_GetTick() - tickstart) > RCC_LSE_TIMEOUT_VALUE)
34181f72:	f005 fd03 	bl	3418797c <HAL_GetTick>
34181f76:	1bc3      	subs	r3, r0, r7
34181f78:	f241 3288 	movw	r2, #5000	@ 0x1388
34181f7c:	4293      	cmp	r3, r2
34181f7e:	d9f3      	bls.n	34181f68 <HAL_RCC_OscConfig+0x434>
          return HAL_TIMEOUT;
34181f80:	2003      	movs	r0, #3
34181f82:	e00d      	b.n	34181fa0 <HAL_RCC_OscConfig+0x46c>
  if (pRCC_OscInitStruct->PLL1.PLLState != RCC_PLL_NONE)
34181f84:	6aa3      	ldr	r3, [r4, #40]	@ 0x28
34181f86:	b973      	cbnz	r3, 34181fa6 <HAL_RCC_OscConfig+0x472>
  if (pRCC_OscInitStruct->PLL2.PLLState != RCC_PLL_NONE)
34181f88:	6c63      	ldr	r3, [r4, #68]	@ 0x44
34181f8a:	2b00      	cmp	r3, #0
34181f8c:	d151      	bne.n	34182032 <HAL_RCC_OscConfig+0x4fe>
  if (pRCC_OscInitStruct->PLL3.PLLState != RCC_PLL_NONE)
34181f8e:	6e23      	ldr	r3, [r4, #96]	@ 0x60
34181f90:	2b00      	cmp	r3, #0
34181f92:	f040 80a0 	bne.w	341820d6 <HAL_RCC_OscConfig+0x5a2>
  if (pRCC_OscInitStruct->PLL4.PLLState != RCC_PLL_NONE)
34181f96:	6fe3      	ldr	r3, [r4, #124]	@ 0x7c
34181f98:	2b00      	cmp	r3, #0
34181f9a:	f040 80e7 	bne.w	3418216c <HAL_RCC_OscConfig+0x638>
  return HAL_OK;
34181f9e:	2000      	movs	r0, #0
}
34181fa0:	b003      	add	sp, #12
34181fa2:	e8bd 8ff0 	ldmia.w	sp!, {r4, r5, r6, r7, r8, r9, sl, fp, pc}
    uint32_t new_pll_config = RCC_PLL_IsNewConfig(RCC_PLL1_CONFIG, &(pRCC_OscInitStruct->PLL1));
34181fa6:	f104 0728 	add.w	r7, r4, #40	@ 0x28
34181faa:	4639      	mov	r1, r7
34181fac:	2000      	movs	r0, #0
34181fae:	f7ff fb7d 	bl	341816ac <RCC_PLL_IsNewConfig>
  return ((READ_BIT(RCC->SR, RCC_SR_PLL1RDY) == (RCC_SR_PLL1RDY)) ? 1UL : 0UL);
34181fb2:	4b2d      	ldr	r3, [pc, #180]	@ (34182068 <HAL_RCC_OscConfig+0x534>)
34181fb4:	685b      	ldr	r3, [r3, #4]
34181fb6:	f413 7380 	ands.w	r3, r3, #256	@ 0x100
34181fba:	d000      	beq.n	34181fbe <HAL_RCC_OscConfig+0x48a>
34181fbc:	2301      	movs	r3, #1
    if (new_pll_config == 1U)
34181fbe:	2801      	cmp	r0, #1
34181fc0:	d00b      	beq.n	34181fda <HAL_RCC_OscConfig+0x4a6>
    else if ((pRCC_OscInitStruct->PLL1.PLLState == RCC_PLL_ON) && (pll1_ready == 0U))
34181fc2:	6aa2      	ldr	r2, [r4, #40]	@ 0x28
34181fc4:	2a02      	cmp	r2, #2
34181fc6:	d1df      	bne.n	34181f88 <HAL_RCC_OscConfig+0x454>
34181fc8:	2b00      	cmp	r3, #0
34181fca:	d1dd      	bne.n	34181f88 <HAL_RCC_OscConfig+0x454>
      if (RCC_PLL_Enable(RCC_PLL1_CONFIG) != HAL_OK)
34181fcc:	2000      	movs	r0, #0
34181fce:	f7ff fd43 	bl	34181a58 <RCC_PLL_Enable>
34181fd2:	2800      	cmp	r0, #0
34181fd4:	d0d8      	beq.n	34181f88 <HAL_RCC_OscConfig+0x454>
        return HAL_ERROR;
34181fd6:	2001      	movs	r0, #1
34181fd8:	e7e2      	b.n	34181fa0 <HAL_RCC_OscConfig+0x46c>
  *         @arg @ref LL_RCC_ICCLKSOURCE_PLL3
  *         @arg @ref LL_RCC_ICCLKSOURCE_PLL4
  */
__STATIC_INLINE uint32_t LL_RCC_IC1_GetSource(void)
{
  return (uint32_t)(READ_BIT(RCC->IC1CFGR, RCC_IC1CFGR_IC1SEL));
34181fda:	4b23      	ldr	r3, [pc, #140]	@ (34182068 <HAL_RCC_OscConfig+0x534>)
34181fdc:	f8d3 10c4 	ldr.w	r1, [r3, #196]	@ 0xc4
34181fe0:	f001 5140 	and.w	r1, r1, #805306368	@ 0x30000000
  *         @arg @ref LL_RCC_ICCLKSOURCE_PLL3
  *         @arg @ref LL_RCC_ICCLKSOURCE_PLL4
  */
__STATIC_INLINE uint32_t LL_RCC_IC2_GetSource(void)
{
  return (uint32_t)(READ_BIT(RCC->IC2CFGR, RCC_IC2CFGR_IC2SEL));
34181fe4:	f8d3 20c8 	ldr.w	r2, [r3, #200]	@ 0xc8
34181fe8:	f002 5240 	and.w	r2, r2, #805306368	@ 0x30000000
  *         @arg @ref LL_RCC_ICCLKSOURCE_PLL3
  *         @arg @ref LL_RCC_ICCLKSOURCE_PLL4
  */
__STATIC_INLINE uint32_t LL_RCC_IC6_GetSource(void)
{
  return (uint32_t)(READ_BIT(RCC->IC6CFGR, RCC_IC6CFGR_IC6SEL));
34181fec:	f8d3 00d8 	ldr.w	r0, [r3, #216]	@ 0xd8
34181ff0:	f000 5040 	and.w	r0, r0, #805306368	@ 0x30000000
  *         @arg @ref LL_RCC_ICCLKSOURCE_PLL3
  *         @arg @ref LL_RCC_ICCLKSOURCE_PLL4
  */
__STATIC_INLINE uint32_t LL_RCC_IC11_GetSource(void)
{
  return (uint32_t)(READ_BIT(RCC->IC11CFGR, RCC_IC11CFGR_IC11SEL));
34181ff4:	f8d3 30ec 	ldr.w	r3, [r3, #236]	@ 0xec
34181ff8:	f003 5340 	and.w	r3, r3, #805306368	@ 0x30000000
      if ((cpuclksrc == RCC_CPUCLKSOURCE_STATUS_IC1) && (ic1src == LL_RCC_ICCLKSOURCE_PLL1))
34181ffc:	f5b5 1f40 	cmp.w	r5, #3145728	@ 0x300000
34182000:	d013      	beq.n	3418202a <HAL_RCC_OscConfig+0x4f6>
      if ((sysclksrc == RCC_SYSCLKSOURCE_STATUS_IC2_IC6_IC11) && ((ic2src == LL_RCC_ICCLKSOURCE_PLL1) ||
34182002:	f1b6 5f40 	cmp.w	r6, #805306368	@ 0x30000000
34182006:	d108      	bne.n	3418201a <HAL_RCC_OscConfig+0x4e6>
34182008:	2a00      	cmp	r2, #0
3418200a:	f000 8103 	beq.w	34182214 <HAL_RCC_OscConfig+0x6e0>
3418200e:	2800      	cmp	r0, #0
34182010:	f000 8102 	beq.w	34182218 <HAL_RCC_OscConfig+0x6e4>
                                                                  (ic6src == LL_RCC_ICCLKSOURCE_PLL1) ||
34182014:	2b00      	cmp	r3, #0
34182016:	f000 8101 	beq.w	3418221c <HAL_RCC_OscConfig+0x6e8>
      if (RCC_PLL_Config(RCC_PLL1_CONFIG, &(pRCC_OscInitStruct->PLL1)) != HAL_OK)
3418201a:	4639      	mov	r1, r7
3418201c:	2000      	movs	r0, #0
3418201e:	f7ff fc45 	bl	341818ac <RCC_PLL_Config>
34182022:	2800      	cmp	r0, #0
34182024:	d0b0      	beq.n	34181f88 <HAL_RCC_OscConfig+0x454>
        return HAL_ERROR;
34182026:	2001      	movs	r0, #1
34182028:	e7ba      	b.n	34181fa0 <HAL_RCC_OscConfig+0x46c>
      if ((cpuclksrc == RCC_CPUCLKSOURCE_STATUS_IC1) && (ic1src == LL_RCC_ICCLKSOURCE_PLL1))
3418202a:	2900      	cmp	r1, #0
3418202c:	d1e9      	bne.n	34182002 <HAL_RCC_OscConfig+0x4ce>
        return HAL_ERROR;
3418202e:	2001      	movs	r0, #1
34182030:	e7b6      	b.n	34181fa0 <HAL_RCC_OscConfig+0x46c>
    uint32_t new_pll_config = RCC_PLL_IsNewConfig(RCC_PLL2_CONFIG, &(pRCC_OscInitStruct->PLL2));
34182032:	f104 0744 	add.w	r7, r4, #68	@ 0x44
34182036:	4639      	mov	r1, r7
34182038:	2001      	movs	r0, #1
3418203a:	f7ff fb37 	bl	341816ac <RCC_PLL_IsNewConfig>
  return ((READ_BIT(RCC->SR, RCC_SR_PLL2RDY) == (RCC_SR_PLL2RDY)) ? 1UL : 0UL);
3418203e:	4b0a      	ldr	r3, [pc, #40]	@ (34182068 <HAL_RCC_OscConfig+0x534>)
34182040:	685b      	ldr	r3, [r3, #4]
34182042:	f413 7300 	ands.w	r3, r3, #512	@ 0x200
34182046:	d000      	beq.n	3418204a <HAL_RCC_OscConfig+0x516>
34182048:	2301      	movs	r3, #1
    if (new_pll_config == 1U)
3418204a:	2801      	cmp	r0, #1
3418204c:	d012      	beq.n	34182074 <HAL_RCC_OscConfig+0x540>
    else if ((pRCC_OscInitStruct->PLL2.PLLState == RCC_PLL_ON) && (pll2_ready == 0U))
3418204e:	6c62      	ldr	r2, [r4, #68]	@ 0x44
34182050:	2a02      	cmp	r2, #2
34182052:	d19c      	bne.n	34181f8e <HAL_RCC_OscConfig+0x45a>
34182054:	2b00      	cmp	r3, #0
34182056:	d19a      	bne.n	34181f8e <HAL_RCC_OscConfig+0x45a>
      if (RCC_PLL_Enable(RCC_PLL2_CONFIG) != HAL_OK)
34182058:	2001      	movs	r0, #1
3418205a:	f7ff fcfd 	bl	34181a58 <RCC_PLL_Enable>
3418205e:	2800      	cmp	r0, #0
34182060:	d095      	beq.n	34181f8e <HAL_RCC_OscConfig+0x45a>
        return HAL_ERROR;
34182062:	2001      	movs	r0, #1
34182064:	e79c      	b.n	34181fa0 <HAL_RCC_OscConfig+0x46c>
34182066:	bf00      	nop
34182068:	56028000 	.word	0x56028000
3418206c:	56029000 	.word	0x56029000
34182070:	00018002 	.word	0x00018002
  return (uint32_t)(READ_BIT(RCC->IC1CFGR, RCC_IC1CFGR_IC1SEL));
34182074:	4b73      	ldr	r3, [pc, #460]	@ (34182244 <HAL_RCC_OscConfig+0x710>)
34182076:	f8d3 00c4 	ldr.w	r0, [r3, #196]	@ 0xc4
3418207a:	f000 5040 	and.w	r0, r0, #805306368	@ 0x30000000
  return (uint32_t)(READ_BIT(RCC->IC2CFGR, RCC_IC2CFGR_IC2SEL));
3418207e:	f8d3 20c8 	ldr.w	r2, [r3, #200]	@ 0xc8
34182082:	f002 5240 	and.w	r2, r2, #805306368	@ 0x30000000
  return (uint32_t)(READ_BIT(RCC->IC6CFGR, RCC_IC6CFGR_IC6SEL));
34182086:	f8d3 10d8 	ldr.w	r1, [r3, #216]	@ 0xd8
3418208a:	f001 5140 	and.w	r1, r1, #805306368	@ 0x30000000
  return (uint32_t)(READ_BIT(RCC->IC11CFGR, RCC_IC11CFGR_IC11SEL));
3418208e:	f8d3 30ec 	ldr.w	r3, [r3, #236]	@ 0xec
34182092:	f003 5340 	and.w	r3, r3, #805306368	@ 0x30000000
      if ((cpuclksrc == RCC_CPUCLKSOURCE_STATUS_IC1) && (ic1src == LL_RCC_ICCLKSOURCE_PLL2))
34182096:	f5b5 1f40 	cmp.w	r5, #3145728	@ 0x300000
3418209a:	d017      	beq.n	341820cc <HAL_RCC_OscConfig+0x598>
      if ((sysclksrc == RCC_SYSCLKSOURCE_STATUS_IC2_IC6_IC11) && ((ic2src == LL_RCC_ICCLKSOURCE_PLL2) ||
3418209c:	f1b6 5f40 	cmp.w	r6, #805306368	@ 0x30000000
341820a0:	d10b      	bne.n	341820ba <HAL_RCC_OscConfig+0x586>
341820a2:	f1b2 5f80 	cmp.w	r2, #268435456	@ 0x10000000
341820a6:	f000 80bb 	beq.w	34182220 <HAL_RCC_OscConfig+0x6ec>
341820aa:	f1b1 5f80 	cmp.w	r1, #268435456	@ 0x10000000
341820ae:	f000 80b9 	beq.w	34182224 <HAL_RCC_OscConfig+0x6f0>
                                                                  (ic6src == LL_RCC_ICCLKSOURCE_PLL2) ||
341820b2:	f1b3 5f80 	cmp.w	r3, #268435456	@ 0x10000000
341820b6:	f000 80b7 	beq.w	34182228 <HAL_RCC_OscConfig+0x6f4>
      if (RCC_PLL_Config(RCC_PLL2_CONFIG, &(pRCC_OscInitStruct->PLL2)) != HAL_OK)
341820ba:	4639      	mov	r1, r7
341820bc:	2001      	movs	r0, #1
341820be:	f7ff fbf5 	bl	341818ac <RCC_PLL_Config>
341820c2:	2800      	cmp	r0, #0
341820c4:	f43f af63 	beq.w	34181f8e <HAL_RCC_OscConfig+0x45a>
        return HAL_ERROR;
341820c8:	2001      	movs	r0, #1
341820ca:	e769      	b.n	34181fa0 <HAL_RCC_OscConfig+0x46c>
      if ((cpuclksrc == RCC_CPUCLKSOURCE_STATUS_IC1) && (ic1src == LL_RCC_ICCLKSOURCE_PLL2))
341820cc:	f1b0 5f80 	cmp.w	r0, #268435456	@ 0x10000000
341820d0:	d1e4      	bne.n	3418209c <HAL_RCC_OscConfig+0x568>
        return HAL_ERROR;
341820d2:	2001      	movs	r0, #1
341820d4:	e764      	b.n	34181fa0 <HAL_RCC_OscConfig+0x46c>
    uint32_t new_pll_config = RCC_PLL_IsNewConfig(RCC_PLL3_CONFIG, &(pRCC_OscInitStruct->PLL3));
341820d6:	f104 0760 	add.w	r7, r4, #96	@ 0x60
341820da:	4639      	mov	r1, r7
341820dc:	2002      	movs	r0, #2
341820de:	f7ff fae5 	bl	341816ac <RCC_PLL_IsNewConfig>
  return ((READ_BIT(RCC->SR, RCC_SR_PLL1RDY) == (RCC_SR_PLL1RDY)) ? 1UL : 0UL);
341820e2:	4b58      	ldr	r3, [pc, #352]	@ (34182244 <HAL_RCC_OscConfig+0x710>)
341820e4:	685b      	ldr	r3, [r3, #4]
341820e6:	f413 7380 	ands.w	r3, r3, #256	@ 0x100
341820ea:	d000      	beq.n	341820ee <HAL_RCC_OscConfig+0x5ba>
341820ec:	2301      	movs	r3, #1
    if (new_pll_config == 1U)
341820ee:	2801      	cmp	r0, #1
341820f0:	d00e      	beq.n	34182110 <HAL_RCC_OscConfig+0x5dc>
    else if ((pRCC_OscInitStruct->PLL3.PLLState == RCC_PLL_ON) && (pll3_ready == 0U))
341820f2:	6e22      	ldr	r2, [r4, #96]	@ 0x60
341820f4:	2a02      	cmp	r2, #2
341820f6:	f47f af4e 	bne.w	34181f96 <HAL_RCC_OscConfig+0x462>
341820fa:	2b00      	cmp	r3, #0
341820fc:	f47f af4b 	bne.w	34181f96 <HAL_RCC_OscConfig+0x462>
      if (RCC_PLL_Enable(RCC_PLL3_CONFIG) != HAL_OK)
34182100:	2002      	movs	r0, #2
34182102:	f7ff fca9 	bl	34181a58 <RCC_PLL_Enable>
34182106:	2800      	cmp	r0, #0
34182108:	f43f af45 	beq.w	34181f96 <HAL_RCC_OscConfig+0x462>
        return HAL_ERROR;
3418210c:	2001      	movs	r0, #1
3418210e:	e747      	b.n	34181fa0 <HAL_RCC_OscConfig+0x46c>
  return (uint32_t)(READ_BIT(RCC->IC1CFGR, RCC_IC1CFGR_IC1SEL));
34182110:	4b4c      	ldr	r3, [pc, #304]	@ (34182244 <HAL_RCC_OscConfig+0x710>)
34182112:	f8d3 00c4 	ldr.w	r0, [r3, #196]	@ 0xc4
34182116:	f000 5040 	and.w	r0, r0, #805306368	@ 0x30000000
  return (uint32_t)(READ_BIT(RCC->IC2CFGR, RCC_IC2CFGR_IC2SEL));
3418211a:	f8d3 20c8 	ldr.w	r2, [r3, #200]	@ 0xc8
3418211e:	f002 5240 	and.w	r2, r2, #805306368	@ 0x30000000
  return (uint32_t)(READ_BIT(RCC->IC6CFGR, RCC_IC6CFGR_IC6SEL));
34182122:	f8d3 10d8 	ldr.w	r1, [r3, #216]	@ 0xd8
34182126:	f001 5140 	and.w	r1, r1, #805306368	@ 0x30000000
  return (uint32_t)(READ_BIT(RCC->IC11CFGR, RCC_IC11CFGR_IC11SEL));
3418212a:	f8d3 30ec 	ldr.w	r3, [r3, #236]	@ 0xec
3418212e:	f003 5340 	and.w	r3, r3, #805306368	@ 0x30000000
      if ((cpuclksrc == RCC_CPUCLKSOURCE_STATUS_IC1) && (ic1src == LL_RCC_ICCLKSOURCE_PLL3))
34182132:	f5b5 1f40 	cmp.w	r5, #3145728	@ 0x300000
34182136:	d014      	beq.n	34182162 <HAL_RCC_OscConfig+0x62e>
      if ((sysclksrc == RCC_SYSCLKSOURCE_STATUS_IC2_IC6_IC11) && ((ic2src == LL_RCC_ICCLKSOURCE_PLL3) ||
34182138:	f1b6 5f40 	cmp.w	r6, #805306368	@ 0x30000000
3418213c:	d108      	bne.n	34182150 <HAL_RCC_OscConfig+0x61c>
3418213e:	f1b2 5f00 	cmp.w	r2, #536870912	@ 0x20000000
34182142:	d073      	beq.n	3418222c <HAL_RCC_OscConfig+0x6f8>
34182144:	f1b1 5f00 	cmp.w	r1, #536870912	@ 0x20000000
34182148:	d072      	beq.n	34182230 <HAL_RCC_OscConfig+0x6fc>
                                                                  (ic6src == LL_RCC_ICCLKSOURCE_PLL3) ||
3418214a:	f1b3 5f00 	cmp.w	r3, #536870912	@ 0x20000000
3418214e:	d071      	beq.n	34182234 <HAL_RCC_OscConfig+0x700>
      if (RCC_PLL_Config(RCC_PLL3_CONFIG, &(pRCC_OscInitStruct->PLL3)) != HAL_OK)
34182150:	4639      	mov	r1, r7
34182152:	2002      	movs	r0, #2
34182154:	f7ff fbaa 	bl	341818ac <RCC_PLL_Config>
34182158:	2800      	cmp	r0, #0
3418215a:	f43f af1c 	beq.w	34181f96 <HAL_RCC_OscConfig+0x462>
        return HAL_ERROR;
3418215e:	2001      	movs	r0, #1
34182160:	e71e      	b.n	34181fa0 <HAL_RCC_OscConfig+0x46c>
      if ((cpuclksrc == RCC_CPUCLKSOURCE_STATUS_IC1) && (ic1src == LL_RCC_ICCLKSOURCE_PLL3))
34182162:	f1b0 5f00 	cmp.w	r0, #536870912	@ 0x20000000
34182166:	d1e7      	bne.n	34182138 <HAL_RCC_OscConfig+0x604>
        return HAL_ERROR;
34182168:	2001      	movs	r0, #1
3418216a:	e719      	b.n	34181fa0 <HAL_RCC_OscConfig+0x46c>
    uint32_t new_pll_config = RCC_PLL_IsNewConfig(RCC_PLL4_CONFIG, &(pRCC_OscInitStruct->PLL4));
3418216c:	f104 077c 	add.w	r7, r4, #124	@ 0x7c
34182170:	4639      	mov	r1, r7
34182172:	2003      	movs	r0, #3
34182174:	f7ff fa9a 	bl	341816ac <RCC_PLL_IsNewConfig>
  return ((READ_BIT(RCC->SR, RCC_SR_PLL4RDY) == (RCC_SR_PLL4RDY)) ? 1UL : 0UL);
34182178:	4b32      	ldr	r3, [pc, #200]	@ (34182244 <HAL_RCC_OscConfig+0x710>)
3418217a:	685b      	ldr	r3, [r3, #4]
3418217c:	f413 6300 	ands.w	r3, r3, #2048	@ 0x800
34182180:	d000      	beq.n	34182184 <HAL_RCC_OscConfig+0x650>
34182182:	2301      	movs	r3, #1
    if (new_pll_config == 1U)
34182184:	2801      	cmp	r0, #1
34182186:	d004      	beq.n	34182192 <HAL_RCC_OscConfig+0x65e>
    else if ((pRCC_OscInitStruct->PLL4.PLLState == RCC_PLL_ON) && (pll4_ready == 0U))
34182188:	6fe2      	ldr	r2, [r4, #124]	@ 0x7c
3418218a:	2a02      	cmp	r2, #2
3418218c:	d02f      	beq.n	341821ee <HAL_RCC_OscConfig+0x6ba>
  return HAL_OK;
3418218e:	2000      	movs	r0, #0
34182190:	e706      	b.n	34181fa0 <HAL_RCC_OscConfig+0x46c>
  return (uint32_t)(READ_BIT(RCC->IC1CFGR, RCC_IC1CFGR_IC1SEL));
34182192:	4b2c      	ldr	r3, [pc, #176]	@ (34182244 <HAL_RCC_OscConfig+0x710>)
34182194:	f8d3 00c4 	ldr.w	r0, [r3, #196]	@ 0xc4
34182198:	f000 5040 	and.w	r0, r0, #805306368	@ 0x30000000
  return (uint32_t)(READ_BIT(RCC->IC2CFGR, RCC_IC2CFGR_IC2SEL));
3418219c:	f8d3 20c8 	ldr.w	r2, [r3, #200]	@ 0xc8
341821a0:	f002 5240 	and.w	r2, r2, #805306368	@ 0x30000000
  return (uint32_t)(READ_BIT(RCC->IC6CFGR, RCC_IC6CFGR_IC6SEL));
341821a4:	f8d3 10d8 	ldr.w	r1, [r3, #216]	@ 0xd8
341821a8:	f001 5140 	and.w	r1, r1, #805306368	@ 0x30000000
  return (uint32_t)(READ_BIT(RCC->IC11CFGR, RCC_IC11CFGR_IC11SEL));
341821ac:	f8d3 30ec 	ldr.w	r3, [r3, #236]	@ 0xec
341821b0:	f003 5340 	and.w	r3, r3, #805306368	@ 0x30000000
      if ((cpuclksrc == RCC_CPUCLKSOURCE_STATUS_IC1) && (ic1src == LL_RCC_ICCLKSOURCE_PLL4))
341821b4:	f5b5 1f40 	cmp.w	r5, #3145728	@ 0x300000
341821b8:	d014      	beq.n	341821e4 <HAL_RCC_OscConfig+0x6b0>
      if ((sysclksrc == RCC_SYSCLKSOURCE_STATUS_IC2_IC6_IC11) && ((ic2src == LL_RCC_ICCLKSOURCE_PLL4) ||
341821ba:	f1b6 5f40 	cmp.w	r6, #805306368	@ 0x30000000
341821be:	d108      	bne.n	341821d2 <HAL_RCC_OscConfig+0x69e>
341821c0:	f1b2 5f40 	cmp.w	r2, #805306368	@ 0x30000000
341821c4:	d038      	beq.n	34182238 <HAL_RCC_OscConfig+0x704>
341821c6:	f1b1 5f40 	cmp.w	r1, #805306368	@ 0x30000000
341821ca:	d037      	beq.n	3418223c <HAL_RCC_OscConfig+0x708>
                                                                  (ic6src == LL_RCC_ICCLKSOURCE_PLL4) ||
341821cc:	f1b3 5f40 	cmp.w	r3, #805306368	@ 0x30000000
341821d0:	d036      	beq.n	34182240 <HAL_RCC_OscConfig+0x70c>
      if (RCC_PLL_Config(RCC_PLL4_CONFIG, &(pRCC_OscInitStruct->PLL4)) != HAL_OK)
341821d2:	4639      	mov	r1, r7
341821d4:	2003      	movs	r0, #3
341821d6:	f7ff fb69 	bl	341818ac <RCC_PLL_Config>
341821da:	2800      	cmp	r0, #0
341821dc:	f43f aee0 	beq.w	34181fa0 <HAL_RCC_OscConfig+0x46c>
        return HAL_ERROR;
341821e0:	2001      	movs	r0, #1
341821e2:	e6dd      	b.n	34181fa0 <HAL_RCC_OscConfig+0x46c>
      if ((cpuclksrc == RCC_CPUCLKSOURCE_STATUS_IC1) && (ic1src == LL_RCC_ICCLKSOURCE_PLL4))
341821e4:	f1b0 5f40 	cmp.w	r0, #805306368	@ 0x30000000
341821e8:	d1e7      	bne.n	341821ba <HAL_RCC_OscConfig+0x686>
        return HAL_ERROR;
341821ea:	2001      	movs	r0, #1
341821ec:	e6d8      	b.n	34181fa0 <HAL_RCC_OscConfig+0x46c>
    else if ((pRCC_OscInitStruct->PLL4.PLLState == RCC_PLL_ON) && (pll4_ready == 0U))
341821ee:	b10b      	cbz	r3, 341821f4 <HAL_RCC_OscConfig+0x6c0>
  return HAL_OK;
341821f0:	2000      	movs	r0, #0
341821f2:	e6d5      	b.n	34181fa0 <HAL_RCC_OscConfig+0x46c>
      if (RCC_PLL_Enable(RCC_PLL4_CONFIG) != HAL_OK)
341821f4:	2003      	movs	r0, #3
341821f6:	f7ff fc2f 	bl	34181a58 <RCC_PLL_Enable>
341821fa:	2800      	cmp	r0, #0
341821fc:	f43f aed0 	beq.w	34181fa0 <HAL_RCC_OscConfig+0x46c>
        return HAL_ERROR;
34182200:	2001      	movs	r0, #1
34182202:	e6cd      	b.n	34181fa0 <HAL_RCC_OscConfig+0x46c>
    return HAL_ERROR;
34182204:	2001      	movs	r0, #1
}
34182206:	4770      	bx	lr
        return HAL_ERROR;
34182208:	2001      	movs	r0, #1
3418220a:	e6c9      	b.n	34181fa0 <HAL_RCC_OscConfig+0x46c>
        return HAL_ERROR;
3418220c:	2001      	movs	r0, #1
3418220e:	e6c7      	b.n	34181fa0 <HAL_RCC_OscConfig+0x46c>
        return HAL_ERROR;
34182210:	2001      	movs	r0, #1
34182212:	e6c5      	b.n	34181fa0 <HAL_RCC_OscConfig+0x46c>
        return HAL_ERROR;
34182214:	2001      	movs	r0, #1
34182216:	e6c3      	b.n	34181fa0 <HAL_RCC_OscConfig+0x46c>
34182218:	2001      	movs	r0, #1
3418221a:	e6c1      	b.n	34181fa0 <HAL_RCC_OscConfig+0x46c>
3418221c:	2001      	movs	r0, #1
3418221e:	e6bf      	b.n	34181fa0 <HAL_RCC_OscConfig+0x46c>
        return HAL_ERROR;
34182220:	2001      	movs	r0, #1
34182222:	e6bd      	b.n	34181fa0 <HAL_RCC_OscConfig+0x46c>
34182224:	2001      	movs	r0, #1
34182226:	e6bb      	b.n	34181fa0 <HAL_RCC_OscConfig+0x46c>
34182228:	2001      	movs	r0, #1
3418222a:	e6b9      	b.n	34181fa0 <HAL_RCC_OscConfig+0x46c>
        return HAL_ERROR;
3418222c:	2001      	movs	r0, #1
3418222e:	e6b7      	b.n	34181fa0 <HAL_RCC_OscConfig+0x46c>
34182230:	2001      	movs	r0, #1
34182232:	e6b5      	b.n	34181fa0 <HAL_RCC_OscConfig+0x46c>
34182234:	2001      	movs	r0, #1
34182236:	e6b3      	b.n	34181fa0 <HAL_RCC_OscConfig+0x46c>
        return HAL_ERROR;
34182238:	2001      	movs	r0, #1
3418223a:	e6b1      	b.n	34181fa0 <HAL_RCC_OscConfig+0x46c>
3418223c:	2001      	movs	r0, #1
3418223e:	e6af      	b.n	34181fa0 <HAL_RCC_OscConfig+0x46c>
34182240:	2001      	movs	r0, #1
34182242:	e6ad      	b.n	34181fa0 <HAL_RCC_OscConfig+0x46c>
34182244:	56028000 	.word	0x56028000

34182248 <HAL_RCC_GetCpuClockFreq>:
  return (uint32_t)(READ_BIT(RCC->CFGR1, RCC_CFGR1_CPUSWS));
34182248:	4b29      	ldr	r3, [pc, #164]	@ (341822f0 <HAL_RCC_GetCpuClockFreq+0xa8>)
3418224a:	6a1b      	ldr	r3, [r3, #32]
3418224c:	f403 1340 	and.w	r3, r3, #3145728	@ 0x300000
  switch (LL_RCC_GetCpuClkSource())
34182250:	f5b3 1f00 	cmp.w	r3, #2097152	@ 0x200000
34182254:	d047      	beq.n	341822e6 <HAL_RCC_GetCpuClockFreq+0x9e>
34182256:	d80c      	bhi.n	34182272 <HAL_RCC_GetCpuClockFreq+0x2a>
34182258:	b343      	cbz	r3, 341822ac <HAL_RCC_GetCpuClockFreq+0x64>
3418225a:	f5b3 1f80 	cmp.w	r3, #1048576	@ 0x100000
3418225e:	d106      	bne.n	3418226e <HAL_RCC_GetCpuClockFreq+0x26>
      frequency = RCC_GET_MSI_FREQUENCY();
34182260:	4b23      	ldr	r3, [pc, #140]	@ (341822f0 <HAL_RCC_GetCpuClockFreq+0xa8>)
34182262:	6c5b      	ldr	r3, [r3, #68]	@ 0x44
34182264:	f413 7f00 	tst.w	r3, #512	@ 0x200
34182268:	d03f      	beq.n	341822ea <HAL_RCC_GetCpuClockFreq+0xa2>
3418226a:	4822      	ldr	r0, [pc, #136]	@ (341822f4 <HAL_RCC_GetCpuClockFreq+0xac>)
3418226c:	4770      	bx	lr
  switch (LL_RCC_GetCpuClkSource())
3418226e:	2000      	movs	r0, #0
34182270:	4770      	bx	lr
34182272:	f5b3 1f40 	cmp.w	r3, #3145728	@ 0x300000
34182276:	d117      	bne.n	341822a8 <HAL_RCC_GetCpuClockFreq+0x60>
{
34182278:	b510      	push	{r4, lr}
  return ((READ_BIT(RCC->IC1CFGR, RCC_IC1CFGR_IC1INT) >> RCC_IC1CFGR_IC1INT_Pos) + 1UL);
3418227a:	4b1d      	ldr	r3, [pc, #116]	@ (341822f0 <HAL_RCC_GetCpuClockFreq+0xa8>)
3418227c:	f8d3 00c4 	ldr.w	r0, [r3, #196]	@ 0xc4
34182280:	f3c0 4007 	ubfx	r0, r0, #16, #8
34182284:	1c44      	adds	r4, r0, #1
  return (uint32_t)(READ_BIT(RCC->IC1CFGR, RCC_IC1CFGR_IC1SEL));
34182286:	f8d3 30c4 	ldr.w	r3, [r3, #196]	@ 0xc4
3418228a:	f003 5340 	and.w	r3, r3, #805306368	@ 0x30000000
      switch (LL_RCC_IC1_GetSource())
3418228e:	f1b3 5f00 	cmp.w	r3, #536870912	@ 0x20000000
34182292:	d023      	beq.n	341822dc <HAL_RCC_GetCpuClockFreq+0x94>
34182294:	d813      	bhi.n	341822be <HAL_RCC_GetCpuClockFreq+0x76>
34182296:	b1e3      	cbz	r3, 341822d2 <HAL_RCC_GetCpuClockFreq+0x8a>
34182298:	f1b3 5f80 	cmp.w	r3, #268435456	@ 0x10000000
3418229c:	d10d      	bne.n	341822ba <HAL_RCC_GetCpuClockFreq+0x72>
          frequency = HAL_RCCEx_GetPLL2CLKFreq();
3418229e:	f002 f8b1 	bl	34184404 <HAL_RCCEx_GetPLL2CLKFreq>
          frequency = frequency / ic_divider;
341822a2:	fbb0 f0f4 	udiv	r0, r0, r4
          break;
341822a6:	e018      	b.n	341822da <HAL_RCC_GetCpuClockFreq+0x92>
  switch (LL_RCC_GetCpuClkSource())
341822a8:	2000      	movs	r0, #0
341822aa:	4770      	bx	lr
  return (READ_BIT(RCC->HSICFGR, RCC_HSICFGR_HSIDIV));
341822ac:	4b10      	ldr	r3, [pc, #64]	@ (341822f0 <HAL_RCC_GetCpuClockFreq+0xa8>)
341822ae:	6c9b      	ldr	r3, [r3, #72]	@ 0x48
      frequency = HSI_VALUE >> (LL_RCC_HSI_GetDivider() >> RCC_HSICFGR_HSIDIV_Pos);
341822b0:	f3c3 13c1 	ubfx	r3, r3, #7, #2
341822b4:	4810      	ldr	r0, [pc, #64]	@ (341822f8 <HAL_RCC_GetCpuClockFreq+0xb0>)
341822b6:	40d8      	lsrs	r0, r3
      break;
341822b8:	4770      	bx	lr
      switch (LL_RCC_IC1_GetSource())
341822ba:	2000      	movs	r0, #0
341822bc:	e00d      	b.n	341822da <HAL_RCC_GetCpuClockFreq+0x92>
341822be:	f1b3 5f40 	cmp.w	r3, #805306368	@ 0x30000000
341822c2:	d104      	bne.n	341822ce <HAL_RCC_GetCpuClockFreq+0x86>
          frequency = HAL_RCCEx_GetPLL4CLKFreq();
341822c4:	f002 f92e 	bl	34184524 <HAL_RCCEx_GetPLL4CLKFreq>
          frequency = frequency / ic_divider;
341822c8:	fbb0 f0f4 	udiv	r0, r0, r4
          break;
341822cc:	e005      	b.n	341822da <HAL_RCC_GetCpuClockFreq+0x92>
      switch (LL_RCC_IC1_GetSource())
341822ce:	2000      	movs	r0, #0
341822d0:	e003      	b.n	341822da <HAL_RCC_GetCpuClockFreq+0x92>
          frequency = HAL_RCCEx_GetPLL1CLKFreq();
341822d2:	f002 f84f 	bl	34184374 <HAL_RCCEx_GetPLL1CLKFreq>
          frequency = frequency / ic_divider;
341822d6:	fbb0 f0f4 	udiv	r0, r0, r4
}
341822da:	bd10      	pop	{r4, pc}
          frequency = HAL_RCCEx_GetPLL3CLKFreq();
341822dc:	f002 f8da 	bl	34184494 <HAL_RCCEx_GetPLL3CLKFreq>
          frequency = frequency / ic_divider;
341822e0:	fbb0 f0f4 	udiv	r0, r0, r4
          break;
341822e4:	e7f9      	b.n	341822da <HAL_RCC_GetCpuClockFreq+0x92>
      frequency = HSE_VALUE;
341822e6:	4805      	ldr	r0, [pc, #20]	@ (341822fc <HAL_RCC_GetCpuClockFreq+0xb4>)
341822e8:	4770      	bx	lr
      frequency = RCC_GET_MSI_FREQUENCY();
341822ea:	4805      	ldr	r0, [pc, #20]	@ (34182300 <HAL_RCC_GetCpuClockFreq+0xb8>)
}
341822ec:	4770      	bx	lr
341822ee:	bf00      	nop
341822f0:	56028000 	.word	0x56028000
341822f4:	00f42400 	.word	0x00f42400
341822f8:	03d09000 	.word	0x03d09000
341822fc:	02dc6c00 	.word	0x02dc6c00
34182300:	003d0900 	.word	0x003d0900

34182304 <HAL_RCC_ClockConfig>:
  if (pRCC_ClkInitStruct == NULL)
34182304:	2800      	cmp	r0, #0
34182306:	f000 8187 	beq.w	34182618 <HAL_RCC_ClockConfig+0x314>
{
3418230a:	b538      	push	{r3, r4, r5, lr}
3418230c:	4604      	mov	r4, r0
  if (((pRCC_ClkInitStruct->ClockType) & RCC_CLOCKTYPE_PCLK1) == RCC_CLOCKTYPE_PCLK1)
3418230e:	6803      	ldr	r3, [r0, #0]
34182310:	f013 0f08 	tst.w	r3, #8
34182314:	d00c      	beq.n	34182330 <HAL_RCC_ClockConfig+0x2c>
    if ((pRCC_ClkInitStruct->APB1CLKDivider) > (RCC->CFGR2 & RCC_CFGR2_PPRE1))
34182316:	6902      	ldr	r2, [r0, #16]
34182318:	4b90      	ldr	r3, [pc, #576]	@ (3418255c <HAL_RCC_ClockConfig+0x258>)
3418231a:	6a5b      	ldr	r3, [r3, #36]	@ 0x24
3418231c:	f003 0307 	and.w	r3, r3, #7
34182320:	429a      	cmp	r2, r3
34182322:	d905      	bls.n	34182330 <HAL_RCC_ClockConfig+0x2c>
      MODIFY_REG(RCC->CFGR2, RCC_CFGR2_PPRE1, (pRCC_ClkInitStruct->APB1CLKDivider));
34182324:	498d      	ldr	r1, [pc, #564]	@ (3418255c <HAL_RCC_ClockConfig+0x258>)
34182326:	6a4b      	ldr	r3, [r1, #36]	@ 0x24
34182328:	f023 0307 	bic.w	r3, r3, #7
3418232c:	431a      	orrs	r2, r3
3418232e:	624a      	str	r2, [r1, #36]	@ 0x24
  if (((pRCC_ClkInitStruct->ClockType) & RCC_CLOCKTYPE_PCLK2) == RCC_CLOCKTYPE_PCLK2)
34182330:	6823      	ldr	r3, [r4, #0]
34182332:	f013 0f10 	tst.w	r3, #16
34182336:	d00c      	beq.n	34182352 <HAL_RCC_ClockConfig+0x4e>
    if ((pRCC_ClkInitStruct->APB2CLKDivider) > (RCC->CFGR2 & RCC_CFGR2_PPRE2))
34182338:	6962      	ldr	r2, [r4, #20]
3418233a:	4b88      	ldr	r3, [pc, #544]	@ (3418255c <HAL_RCC_ClockConfig+0x258>)
3418233c:	6a5b      	ldr	r3, [r3, #36]	@ 0x24
3418233e:	f003 0370 	and.w	r3, r3, #112	@ 0x70
34182342:	429a      	cmp	r2, r3
34182344:	d905      	bls.n	34182352 <HAL_RCC_ClockConfig+0x4e>
      MODIFY_REG(RCC->CFGR2, RCC_CFGR2_PPRE2, (pRCC_ClkInitStruct->APB2CLKDivider));
34182346:	4985      	ldr	r1, [pc, #532]	@ (3418255c <HAL_RCC_ClockConfig+0x258>)
34182348:	6a4b      	ldr	r3, [r1, #36]	@ 0x24
3418234a:	f023 0370 	bic.w	r3, r3, #112	@ 0x70
3418234e:	431a      	orrs	r2, r3
34182350:	624a      	str	r2, [r1, #36]	@ 0x24
  if (((pRCC_ClkInitStruct->ClockType) & RCC_CLOCKTYPE_PCLK4) == RCC_CLOCKTYPE_PCLK4)
34182352:	6823      	ldr	r3, [r4, #0]
34182354:	f013 0f20 	tst.w	r3, #32
34182358:	d00c      	beq.n	34182374 <HAL_RCC_ClockConfig+0x70>
    if ((pRCC_ClkInitStruct->APB4CLKDivider) > (RCC->CFGR2 & RCC_CFGR2_PPRE4))
3418235a:	69a2      	ldr	r2, [r4, #24]
3418235c:	4b7f      	ldr	r3, [pc, #508]	@ (3418255c <HAL_RCC_ClockConfig+0x258>)
3418235e:	6a5b      	ldr	r3, [r3, #36]	@ 0x24
34182360:	f403 43e0 	and.w	r3, r3, #28672	@ 0x7000
34182364:	429a      	cmp	r2, r3
34182366:	d905      	bls.n	34182374 <HAL_RCC_ClockConfig+0x70>
      MODIFY_REG(RCC->CFGR2, RCC_CFGR2_PPRE4, (pRCC_ClkInitStruct->APB4CLKDivider));
34182368:	497c      	ldr	r1, [pc, #496]	@ (3418255c <HAL_RCC_ClockConfig+0x258>)
3418236a:	6a4b      	ldr	r3, [r1, #36]	@ 0x24
3418236c:	f423 43e0 	bic.w	r3, r3, #28672	@ 0x7000
34182370:	431a      	orrs	r2, r3
34182372:	624a      	str	r2, [r1, #36]	@ 0x24
  if (((pRCC_ClkInitStruct->ClockType) & RCC_CLOCKTYPE_PCLK5) == RCC_CLOCKTYPE_PCLK5)
34182374:	6823      	ldr	r3, [r4, #0]
34182376:	f013 0f40 	tst.w	r3, #64	@ 0x40
3418237a:	d00c      	beq.n	34182396 <HAL_RCC_ClockConfig+0x92>
    if ((pRCC_ClkInitStruct->APB5CLKDivider) > (RCC->CFGR2 & RCC_CFGR2_PPRE5))
3418237c:	69e2      	ldr	r2, [r4, #28]
3418237e:	4b77      	ldr	r3, [pc, #476]	@ (3418255c <HAL_RCC_ClockConfig+0x258>)
34182380:	6a5b      	ldr	r3, [r3, #36]	@ 0x24
34182382:	f403 23e0 	and.w	r3, r3, #458752	@ 0x70000
34182386:	429a      	cmp	r2, r3
34182388:	d905      	bls.n	34182396 <HAL_RCC_ClockConfig+0x92>
      MODIFY_REG(RCC->CFGR2, RCC_CFGR2_PPRE5, (pRCC_ClkInitStruct->APB5CLKDivider));
3418238a:	4974      	ldr	r1, [pc, #464]	@ (3418255c <HAL_RCC_ClockConfig+0x258>)
3418238c:	6a4b      	ldr	r3, [r1, #36]	@ 0x24
3418238e:	f423 23e0 	bic.w	r3, r3, #458752	@ 0x70000
34182392:	431a      	orrs	r2, r3
34182394:	624a      	str	r2, [r1, #36]	@ 0x24
  if (((pRCC_ClkInitStruct->ClockType) & RCC_CLOCKTYPE_HCLK) == RCC_CLOCKTYPE_HCLK)
34182396:	6823      	ldr	r3, [r4, #0]
34182398:	f013 0f04 	tst.w	r3, #4
3418239c:	d00c      	beq.n	341823b8 <HAL_RCC_ClockConfig+0xb4>
    if ((pRCC_ClkInitStruct->AHBCLKDivider) > (RCC->CFGR2 & RCC_CFGR2_HPRE))
3418239e:	68e2      	ldr	r2, [r4, #12]
341823a0:	4b6e      	ldr	r3, [pc, #440]	@ (3418255c <HAL_RCC_ClockConfig+0x258>)
341823a2:	6a5b      	ldr	r3, [r3, #36]	@ 0x24
341823a4:	f403 03e0 	and.w	r3, r3, #7340032	@ 0x700000
341823a8:	429a      	cmp	r2, r3
341823aa:	d905      	bls.n	341823b8 <HAL_RCC_ClockConfig+0xb4>
      MODIFY_REG(RCC->CFGR2, RCC_CFGR2_HPRE, pRCC_ClkInitStruct->AHBCLKDivider);
341823ac:	496b      	ldr	r1, [pc, #428]	@ (3418255c <HAL_RCC_ClockConfig+0x258>)
341823ae:	6a4b      	ldr	r3, [r1, #36]	@ 0x24
341823b0:	f423 03e0 	bic.w	r3, r3, #7340032	@ 0x700000
341823b4:	431a      	orrs	r2, r3
341823b6:	624a      	str	r2, [r1, #36]	@ 0x24
  if ((pRCC_ClkInitStruct->ClockType & RCC_CLOCKTYPE_CPUCLK) == RCC_CLOCKTYPE_CPUCLK)
341823b8:	6823      	ldr	r3, [r4, #0]
341823ba:	f013 0f01 	tst.w	r3, #1
341823be:	d053      	beq.n	34182468 <HAL_RCC_ClockConfig+0x164>
    if (pRCC_ClkInitStruct->CPUCLKSource == RCC_CPUCLKSOURCE_HSE)
341823c0:	6863      	ldr	r3, [r4, #4]
341823c2:	f5b3 3f00 	cmp.w	r3, #131072	@ 0x20000
341823c6:	d026      	beq.n	34182416 <HAL_RCC_ClockConfig+0x112>
    else if (pRCC_ClkInitStruct->CPUCLKSource == RCC_CPUCLKSOURCE_IC1)
341823c8:	f5b3 3f40 	cmp.w	r3, #196608	@ 0x30000
341823cc:	d02a      	beq.n	34182424 <HAL_RCC_ClockConfig+0x120>
    else if (pRCC_ClkInitStruct->CPUCLKSource == RCC_CPUCLKSOURCE_MSI)
341823ce:	f5b3 3f80 	cmp.w	r3, #65536	@ 0x10000
341823d2:	d03e      	beq.n	34182452 <HAL_RCC_ClockConfig+0x14e>
  return ((READ_BIT(RCC->SR, RCC_SR_HSIRDY) != 0UL) ? 1UL : 0UL);
341823d4:	4b61      	ldr	r3, [pc, #388]	@ (3418255c <HAL_RCC_ClockConfig+0x258>)
341823d6:	685b      	ldr	r3, [r3, #4]
341823d8:	f013 0f08 	tst.w	r3, #8
341823dc:	f000 8120 	beq.w	34182620 <HAL_RCC_ClockConfig+0x31c>
    MODIFY_REG(RCC->CFGR1, RCC_CFGR1_CPUSW, pRCC_ClkInitStruct->CPUCLKSource);
341823e0:	4a5e      	ldr	r2, [pc, #376]	@ (3418255c <HAL_RCC_ClockConfig+0x258>)
341823e2:	6a13      	ldr	r3, [r2, #32]
341823e4:	f423 3340 	bic.w	r3, r3, #196608	@ 0x30000
341823e8:	6861      	ldr	r1, [r4, #4]
341823ea:	430b      	orrs	r3, r1
341823ec:	6213      	str	r3, [r2, #32]
    tickstart = HAL_GetTick();
341823ee:	f005 fac5 	bl	3418797c <HAL_GetTick>
341823f2:	4605      	mov	r5, r0
  return (uint32_t)(READ_BIT(RCC->CFGR1, RCC_CFGR1_CPUSWS));
341823f4:	4b59      	ldr	r3, [pc, #356]	@ (3418255c <HAL_RCC_ClockConfig+0x258>)
341823f6:	6a1b      	ldr	r3, [r3, #32]
341823f8:	f403 1340 	and.w	r3, r3, #3145728	@ 0x300000
    while (__HAL_RCC_GET_CPUCLK_SOURCE() != (pRCC_ClkInitStruct->CPUCLKSource << 4U))
341823fc:	6862      	ldr	r2, [r4, #4]
341823fe:	ebb3 1f02 	cmp.w	r3, r2, lsl #4
34182402:	d02d      	beq.n	34182460 <HAL_RCC_ClockConfig+0x15c>
      if ((HAL_GetTick() - tickstart) > RCC_CLOCKSWITCH_TIMEOUT_VALUE)
34182404:	f005 faba 	bl	3418797c <HAL_GetTick>
34182408:	1b40      	subs	r0, r0, r5
3418240a:	f241 3388 	movw	r3, #5000	@ 0x1388
3418240e:	4298      	cmp	r0, r3
34182410:	d9f0      	bls.n	341823f4 <HAL_RCC_ClockConfig+0xf0>
        return HAL_TIMEOUT;
34182412:	2003      	movs	r0, #3
34182414:	e0ff      	b.n	34182616 <HAL_RCC_ClockConfig+0x312>
  return ((READ_BIT(RCC->SR, RCC_SR_HSERDY) != 0UL) ? 1UL : 0UL);
34182416:	4b51      	ldr	r3, [pc, #324]	@ (3418255c <HAL_RCC_ClockConfig+0x258>)
34182418:	685b      	ldr	r3, [r3, #4]
3418241a:	f013 0f10 	tst.w	r3, #16
3418241e:	d1df      	bne.n	341823e0 <HAL_RCC_ClockConfig+0xdc>
        return HAL_ERROR;
34182420:	2001      	movs	r0, #1
34182422:	e0f8      	b.n	34182616 <HAL_RCC_ClockConfig+0x312>
  return (uint32_t)(READ_BIT(RCC->IC1CFGR, RCC_IC1CFGR_IC1SEL));
34182424:	4b4d      	ldr	r3, [pc, #308]	@ (3418255c <HAL_RCC_ClockConfig+0x258>)
34182426:	f8d3 00c4 	ldr.w	r0, [r3, #196]	@ 0xc4
      if (RCC_IC_CheckPLLSources(LL_RCC_IC1_GetSource(), pRCC_ClkInitStruct->IC1Selection.ClockSelection) != 1U)
3418242a:	6a21      	ldr	r1, [r4, #32]
3418242c:	f000 5040 	and.w	r0, r0, #805306368	@ 0x30000000
34182430:	f7ff f9ac 	bl	3418178c <RCC_IC_CheckPLLSources>
34182434:	2801      	cmp	r0, #1
34182436:	f040 80f1 	bne.w	3418261c <HAL_RCC_ClockConfig+0x318>
      WRITE_REG(RCC->IC1CFGR, pRCC_ClkInitStruct->IC1Selection.ClockSelection | \
3418243a:	6a23      	ldr	r3, [r4, #32]
3418243c:	6a62      	ldr	r2, [r4, #36]	@ 0x24
3418243e:	3a01      	subs	r2, #1
34182440:	ea43 4302 	orr.w	r3, r3, r2, lsl #16
34182444:	4a45      	ldr	r2, [pc, #276]	@ (3418255c <HAL_RCC_ClockConfig+0x258>)
34182446:	f8c2 30c4 	str.w	r3, [r2, #196]	@ 0xc4
  WRITE_REG(RCC->DIVENSR, RCC_DIVENSR_IC1ENS);
3418244a:	2301      	movs	r3, #1
3418244c:	f8c2 3a40 	str.w	r3, [r2, #2624]	@ 0xa40
}
34182450:	e7c6      	b.n	341823e0 <HAL_RCC_ClockConfig+0xdc>
  return ((READ_BIT(RCC->SR, RCC_SR_MSIRDY) != 0UL) ? 1UL : 0UL);
34182452:	4b42      	ldr	r3, [pc, #264]	@ (3418255c <HAL_RCC_ClockConfig+0x258>)
34182454:	685b      	ldr	r3, [r3, #4]
34182456:	f013 0f04 	tst.w	r3, #4
3418245a:	d1c1      	bne.n	341823e0 <HAL_RCC_ClockConfig+0xdc>
        return HAL_ERROR;
3418245c:	2001      	movs	r0, #1
3418245e:	e0da      	b.n	34182616 <HAL_RCC_ClockConfig+0x312>
    SystemCoreClock = HAL_RCC_GetCpuClockFreq();
34182460:	f7ff fef2 	bl	34182248 <HAL_RCC_GetCpuClockFreq>
34182464:	4b3e      	ldr	r3, [pc, #248]	@ (34182560 <HAL_RCC_ClockConfig+0x25c>)
34182466:	6018      	str	r0, [r3, #0]
  if ((pRCC_ClkInitStruct->ClockType & RCC_CLOCKTYPE_SYSCLK) == RCC_CLOCKTYPE_SYSCLK)
34182468:	6823      	ldr	r3, [r4, #0]
3418246a:	f013 0f02 	tst.w	r3, #2
3418246e:	d079      	beq.n	34182564 <HAL_RCC_ClockConfig+0x260>
    if (pRCC_ClkInitStruct->SYSCLKSource == RCC_SYSCLKSOURCE_HSE)
34182470:	68a3      	ldr	r3, [r4, #8]
34182472:	f1b3 7f00 	cmp.w	r3, #33554432	@ 0x2000000
34182476:	d00b      	beq.n	34182490 <HAL_RCC_ClockConfig+0x18c>
    else if (pRCC_ClkInitStruct->SYSCLKSource == RCC_SYSCLKSOURCE_IC2_IC6_IC11)
34182478:	f1b3 7f40 	cmp.w	r3, #50331648	@ 0x3000000
3418247c:	d00f      	beq.n	3418249e <HAL_RCC_ClockConfig+0x19a>
    else if (pRCC_ClkInitStruct->SYSCLKSource == RCC_SYSCLKSOURCE_HSI)
3418247e:	2b00      	cmp	r3, #0
34182480:	d14b      	bne.n	3418251a <HAL_RCC_ClockConfig+0x216>
  return ((READ_BIT(RCC->SR, RCC_SR_HSIRDY) != 0UL) ? 1UL : 0UL);
34182482:	4b36      	ldr	r3, [pc, #216]	@ (3418255c <HAL_RCC_ClockConfig+0x258>)
34182484:	685b      	ldr	r3, [r3, #4]
34182486:	f013 0f08 	tst.w	r3, #8
3418248a:	d14c      	bne.n	34182526 <HAL_RCC_ClockConfig+0x222>
        return HAL_ERROR;
3418248c:	2001      	movs	r0, #1
3418248e:	e0c2      	b.n	34182616 <HAL_RCC_ClockConfig+0x312>
  return ((READ_BIT(RCC->SR, RCC_SR_HSERDY) != 0UL) ? 1UL : 0UL);
34182490:	4b32      	ldr	r3, [pc, #200]	@ (3418255c <HAL_RCC_ClockConfig+0x258>)
34182492:	685b      	ldr	r3, [r3, #4]
34182494:	f013 0f10 	tst.w	r3, #16
34182498:	d145      	bne.n	34182526 <HAL_RCC_ClockConfig+0x222>
        return HAL_ERROR;
3418249a:	2001      	movs	r0, #1
3418249c:	e0bb      	b.n	34182616 <HAL_RCC_ClockConfig+0x312>
  return (uint32_t)(READ_BIT(RCC->IC2CFGR, RCC_IC2CFGR_IC2SEL));
3418249e:	4b2f      	ldr	r3, [pc, #188]	@ (3418255c <HAL_RCC_ClockConfig+0x258>)
341824a0:	f8d3 00c8 	ldr.w	r0, [r3, #200]	@ 0xc8
      if (RCC_IC_CheckPLLSources(LL_RCC_IC2_GetSource(), pRCC_ClkInitStruct->IC2Selection.ClockSelection) != 1U)
341824a4:	6aa1      	ldr	r1, [r4, #40]	@ 0x28
341824a6:	f000 5040 	and.w	r0, r0, #805306368	@ 0x30000000
341824aa:	f7ff f96f 	bl	3418178c <RCC_IC_CheckPLLSources>
341824ae:	2801      	cmp	r0, #1
341824b0:	d001      	beq.n	341824b6 <HAL_RCC_ClockConfig+0x1b2>
        return HAL_ERROR;
341824b2:	2001      	movs	r0, #1
341824b4:	e0af      	b.n	34182616 <HAL_RCC_ClockConfig+0x312>
  return (uint32_t)(READ_BIT(RCC->IC6CFGR, RCC_IC6CFGR_IC6SEL));
341824b6:	4b29      	ldr	r3, [pc, #164]	@ (3418255c <HAL_RCC_ClockConfig+0x258>)
341824b8:	f8d3 00d8 	ldr.w	r0, [r3, #216]	@ 0xd8
      if (RCC_IC_CheckPLLSources(LL_RCC_IC6_GetSource(), pRCC_ClkInitStruct->IC6Selection.ClockSelection) != 1U)
341824bc:	6b21      	ldr	r1, [r4, #48]	@ 0x30
341824be:	f000 5040 	and.w	r0, r0, #805306368	@ 0x30000000
341824c2:	f7ff f963 	bl	3418178c <RCC_IC_CheckPLLSources>
341824c6:	2801      	cmp	r0, #1
341824c8:	d001      	beq.n	341824ce <HAL_RCC_ClockConfig+0x1ca>
        return HAL_ERROR;
341824ca:	2001      	movs	r0, #1
341824cc:	e0a3      	b.n	34182616 <HAL_RCC_ClockConfig+0x312>
  return (uint32_t)(READ_BIT(RCC->IC11CFGR, RCC_IC11CFGR_IC11SEL));
341824ce:	4b23      	ldr	r3, [pc, #140]	@ (3418255c <HAL_RCC_ClockConfig+0x258>)
341824d0:	f8d3 00ec 	ldr.w	r0, [r3, #236]	@ 0xec
      if (RCC_IC_CheckPLLSources(LL_RCC_IC11_GetSource(), pRCC_ClkInitStruct->IC11Selection.ClockSelection) != 1U)
341824d4:	6ba1      	ldr	r1, [r4, #56]	@ 0x38
341824d6:	f000 5040 	and.w	r0, r0, #805306368	@ 0x30000000
341824da:	f7ff f957 	bl	3418178c <RCC_IC_CheckPLLSources>
341824de:	2801      	cmp	r0, #1
341824e0:	f040 80a0 	bne.w	34182624 <HAL_RCC_ClockConfig+0x320>
      WRITE_REG(RCC->IC2CFGR, pRCC_ClkInitStruct->IC2Selection.ClockSelection | \
341824e4:	6aa3      	ldr	r3, [r4, #40]	@ 0x28
341824e6:	6ae2      	ldr	r2, [r4, #44]	@ 0x2c
341824e8:	3a01      	subs	r2, #1
341824ea:	ea43 4202 	orr.w	r2, r3, r2, lsl #16
341824ee:	4b1b      	ldr	r3, [pc, #108]	@ (3418255c <HAL_RCC_ClockConfig+0x258>)
341824f0:	f8c3 20c8 	str.w	r2, [r3, #200]	@ 0xc8
      WRITE_REG(RCC->IC6CFGR, pRCC_ClkInitStruct->IC6Selection.ClockSelection | \
341824f4:	6b22      	ldr	r2, [r4, #48]	@ 0x30
341824f6:	6b61      	ldr	r1, [r4, #52]	@ 0x34
341824f8:	3901      	subs	r1, #1
341824fa:	ea42 4201 	orr.w	r2, r2, r1, lsl #16
341824fe:	f8c3 20d8 	str.w	r2, [r3, #216]	@ 0xd8
      WRITE_REG(RCC->IC11CFGR, pRCC_ClkInitStruct->IC11Selection.ClockSelection | \
34182502:	6ba2      	ldr	r2, [r4, #56]	@ 0x38
34182504:	6be1      	ldr	r1, [r4, #60]	@ 0x3c
34182506:	3901      	subs	r1, #1
34182508:	ea42 4201 	orr.w	r2, r2, r1, lsl #16
3418250c:	f8c3 20ec 	str.w	r2, [r3, #236]	@ 0xec
      WRITE_REG(RCC->DIVENSR, RCC_DIVENSR_IC2ENS | RCC_DIVENSR_IC6ENS | RCC_DIVENSR_IC11ENS);
34182510:	f240 4222 	movw	r2, #1058	@ 0x422
34182514:	f8c3 2a40 	str.w	r2, [r3, #2624]	@ 0xa40
34182518:	e005      	b.n	34182526 <HAL_RCC_ClockConfig+0x222>
  return ((READ_BIT(RCC->SR, RCC_SR_MSIRDY) != 0UL) ? 1UL : 0UL);
3418251a:	4b10      	ldr	r3, [pc, #64]	@ (3418255c <HAL_RCC_ClockConfig+0x258>)
3418251c:	685b      	ldr	r3, [r3, #4]
3418251e:	f013 0f04 	tst.w	r3, #4
34182522:	f000 8081 	beq.w	34182628 <HAL_RCC_ClockConfig+0x324>
    MODIFY_REG(RCC->CFGR1, RCC_CFGR1_SYSSW, pRCC_ClkInitStruct->SYSCLKSource);
34182526:	4a0d      	ldr	r2, [pc, #52]	@ (3418255c <HAL_RCC_ClockConfig+0x258>)
34182528:	6a13      	ldr	r3, [r2, #32]
3418252a:	f023 7340 	bic.w	r3, r3, #50331648	@ 0x3000000
3418252e:	68a1      	ldr	r1, [r4, #8]
34182530:	430b      	orrs	r3, r1
34182532:	6213      	str	r3, [r2, #32]
    tickstart = HAL_GetTick();
34182534:	f005 fa22 	bl	3418797c <HAL_GetTick>
34182538:	4605      	mov	r5, r0
  return (uint32_t)(READ_BIT(RCC->CFGR1, RCC_CFGR1_SYSSWS));
3418253a:	4b08      	ldr	r3, [pc, #32]	@ (3418255c <HAL_RCC_ClockConfig+0x258>)
3418253c:	6a1b      	ldr	r3, [r3, #32]
3418253e:	f003 5340 	and.w	r3, r3, #805306368	@ 0x30000000
    while (__HAL_RCC_GET_SYSCLK_SOURCE() != (pRCC_ClkInitStruct->SYSCLKSource << 4U))
34182542:	68a2      	ldr	r2, [r4, #8]
34182544:	ebb3 1f02 	cmp.w	r3, r2, lsl #4
34182548:	d00c      	beq.n	34182564 <HAL_RCC_ClockConfig+0x260>
      if ((HAL_GetTick() - tickstart) > RCC_CLOCKSWITCH_TIMEOUT_VALUE)
3418254a:	f005 fa17 	bl	3418797c <HAL_GetTick>
3418254e:	1b40      	subs	r0, r0, r5
34182550:	f241 3388 	movw	r3, #5000	@ 0x1388
34182554:	4298      	cmp	r0, r3
34182556:	d9f0      	bls.n	3418253a <HAL_RCC_ClockConfig+0x236>
        return HAL_TIMEOUT;
34182558:	2003      	movs	r0, #3
3418255a:	e05c      	b.n	34182616 <HAL_RCC_ClockConfig+0x312>
3418255c:	56028000 	.word	0x56028000
34182560:	3418060c 	.word	0x3418060c
  if (((pRCC_ClkInitStruct->ClockType) & RCC_CLOCKTYPE_HCLK) == RCC_CLOCKTYPE_HCLK)
34182564:	6823      	ldr	r3, [r4, #0]
34182566:	f013 0f04 	tst.w	r3, #4
3418256a:	d00c      	beq.n	34182586 <HAL_RCC_ClockConfig+0x282>
    if ((pRCC_ClkInitStruct->AHBCLKDivider) < (RCC->CFGR2 & RCC_CFGR2_HPRE))
3418256c:	68e2      	ldr	r2, [r4, #12]
3418256e:	4b2f      	ldr	r3, [pc, #188]	@ (3418262c <HAL_RCC_ClockConfig+0x328>)
34182570:	6a5b      	ldr	r3, [r3, #36]	@ 0x24
34182572:	f403 03e0 	and.w	r3, r3, #7340032	@ 0x700000
34182576:	429a      	cmp	r2, r3
34182578:	d205      	bcs.n	34182586 <HAL_RCC_ClockConfig+0x282>
      MODIFY_REG(RCC->CFGR2, RCC_CFGR2_HPRE, pRCC_ClkInitStruct->AHBCLKDivider);
3418257a:	492c      	ldr	r1, [pc, #176]	@ (3418262c <HAL_RCC_ClockConfig+0x328>)
3418257c:	6a4b      	ldr	r3, [r1, #36]	@ 0x24
3418257e:	f423 03e0 	bic.w	r3, r3, #7340032	@ 0x700000
34182582:	431a      	orrs	r2, r3
34182584:	624a      	str	r2, [r1, #36]	@ 0x24
  if (((pRCC_ClkInitStruct->ClockType) & RCC_CLOCKTYPE_PCLK1) == RCC_CLOCKTYPE_PCLK1)
34182586:	6823      	ldr	r3, [r4, #0]
34182588:	f013 0f08 	tst.w	r3, #8
3418258c:	d00c      	beq.n	341825a8 <HAL_RCC_ClockConfig+0x2a4>
    if ((pRCC_ClkInitStruct->APB1CLKDivider) < (RCC->CFGR2 & RCC_CFGR2_PPRE1))
3418258e:	6922      	ldr	r2, [r4, #16]
34182590:	4b26      	ldr	r3, [pc, #152]	@ (3418262c <HAL_RCC_ClockConfig+0x328>)
34182592:	6a5b      	ldr	r3, [r3, #36]	@ 0x24
34182594:	f003 0307 	and.w	r3, r3, #7
34182598:	429a      	cmp	r2, r3
3418259a:	d205      	bcs.n	341825a8 <HAL_RCC_ClockConfig+0x2a4>
      MODIFY_REG(RCC->CFGR2, RCC_CFGR2_PPRE1, (pRCC_ClkInitStruct->APB1CLKDivider));
3418259c:	4923      	ldr	r1, [pc, #140]	@ (3418262c <HAL_RCC_ClockConfig+0x328>)
3418259e:	6a4b      	ldr	r3, [r1, #36]	@ 0x24
341825a0:	f023 0307 	bic.w	r3, r3, #7
341825a4:	431a      	orrs	r2, r3
341825a6:	624a      	str	r2, [r1, #36]	@ 0x24
  if (((pRCC_ClkInitStruct->ClockType) & RCC_CLOCKTYPE_PCLK2) == RCC_CLOCKTYPE_PCLK2)
341825a8:	6823      	ldr	r3, [r4, #0]
341825aa:	f013 0f10 	tst.w	r3, #16
341825ae:	d00c      	beq.n	341825ca <HAL_RCC_ClockConfig+0x2c6>
    if ((pRCC_ClkInitStruct->APB2CLKDivider) < (RCC->CFGR2 & RCC_CFGR2_PPRE2))
341825b0:	6962      	ldr	r2, [r4, #20]
341825b2:	4b1e      	ldr	r3, [pc, #120]	@ (3418262c <HAL_RCC_ClockConfig+0x328>)
341825b4:	6a5b      	ldr	r3, [r3, #36]	@ 0x24
341825b6:	f003 0370 	and.w	r3, r3, #112	@ 0x70
341825ba:	429a      	cmp	r2, r3
341825bc:	d205      	bcs.n	341825ca <HAL_RCC_ClockConfig+0x2c6>
      MODIFY_REG(RCC->CFGR2, RCC_CFGR2_PPRE2, (pRCC_ClkInitStruct->APB2CLKDivider));
341825be:	491b      	ldr	r1, [pc, #108]	@ (3418262c <HAL_RCC_ClockConfig+0x328>)
341825c0:	6a4b      	ldr	r3, [r1, #36]	@ 0x24
341825c2:	f023 0370 	bic.w	r3, r3, #112	@ 0x70
341825c6:	431a      	orrs	r2, r3
341825c8:	624a      	str	r2, [r1, #36]	@ 0x24
  if (((pRCC_ClkInitStruct->ClockType) & RCC_CLOCKTYPE_PCLK4) == RCC_CLOCKTYPE_PCLK4)
341825ca:	6823      	ldr	r3, [r4, #0]
341825cc:	f013 0f20 	tst.w	r3, #32
341825d0:	d00c      	beq.n	341825ec <HAL_RCC_ClockConfig+0x2e8>
    if ((pRCC_ClkInitStruct->APB4CLKDivider) < (RCC->CFGR2 & RCC_CFGR2_PPRE4))
341825d2:	69a2      	ldr	r2, [r4, #24]
341825d4:	4b15      	ldr	r3, [pc, #84]	@ (3418262c <HAL_RCC_ClockConfig+0x328>)
341825d6:	6a5b      	ldr	r3, [r3, #36]	@ 0x24
341825d8:	f403 43e0 	and.w	r3, r3, #28672	@ 0x7000
341825dc:	429a      	cmp	r2, r3
341825de:	d205      	bcs.n	341825ec <HAL_RCC_ClockConfig+0x2e8>
      MODIFY_REG(RCC->CFGR2, RCC_CFGR2_PPRE4, (pRCC_ClkInitStruct->APB4CLKDivider));
341825e0:	4912      	ldr	r1, [pc, #72]	@ (3418262c <HAL_RCC_ClockConfig+0x328>)
341825e2:	6a4b      	ldr	r3, [r1, #36]	@ 0x24
341825e4:	f423 43e0 	bic.w	r3, r3, #28672	@ 0x7000
341825e8:	431a      	orrs	r2, r3
341825ea:	624a      	str	r2, [r1, #36]	@ 0x24
  if (((pRCC_ClkInitStruct->ClockType) & RCC_CLOCKTYPE_PCLK5) == RCC_CLOCKTYPE_PCLK5)
341825ec:	6823      	ldr	r3, [r4, #0]
341825ee:	f013 0f40 	tst.w	r3, #64	@ 0x40
341825f2:	d00c      	beq.n	3418260e <HAL_RCC_ClockConfig+0x30a>
    if ((pRCC_ClkInitStruct->APB5CLKDivider) < (RCC->CFGR2 & RCC_CFGR2_PPRE5))
341825f4:	69e2      	ldr	r2, [r4, #28]
341825f6:	4b0d      	ldr	r3, [pc, #52]	@ (3418262c <HAL_RCC_ClockConfig+0x328>)
341825f8:	6a5b      	ldr	r3, [r3, #36]	@ 0x24
341825fa:	f403 23e0 	and.w	r3, r3, #458752	@ 0x70000
341825fe:	429a      	cmp	r2, r3
34182600:	d205      	bcs.n	3418260e <HAL_RCC_ClockConfig+0x30a>
      MODIFY_REG(RCC->CFGR2, RCC_CFGR2_PPRE5, (pRCC_ClkInitStruct->APB5CLKDivider));
34182602:	490a      	ldr	r1, [pc, #40]	@ (3418262c <HAL_RCC_ClockConfig+0x328>)
34182604:	6a4b      	ldr	r3, [r1, #36]	@ 0x24
34182606:	f423 23e0 	bic.w	r3, r3, #458752	@ 0x70000
3418260a:	431a      	orrs	r2, r3
3418260c:	624a      	str	r2, [r1, #36]	@ 0x24
  return HAL_InitTick(uwTickPrio);
3418260e:	4b08      	ldr	r3, [pc, #32]	@ (34182630 <HAL_RCC_ClockConfig+0x32c>)
34182610:	6818      	ldr	r0, [r3, #0]
34182612:	f005 f999 	bl	34187948 <HAL_InitTick>
}
34182616:	bd38      	pop	{r3, r4, r5, pc}
    return HAL_ERROR;
34182618:	2001      	movs	r0, #1
}
3418261a:	4770      	bx	lr
        return HAL_ERROR;
3418261c:	2001      	movs	r0, #1
3418261e:	e7fa      	b.n	34182616 <HAL_RCC_ClockConfig+0x312>
        return HAL_ERROR;
34182620:	2001      	movs	r0, #1
34182622:	e7f8      	b.n	34182616 <HAL_RCC_ClockConfig+0x312>
        return HAL_ERROR;
34182624:	2001      	movs	r0, #1
34182626:	e7f6      	b.n	34182616 <HAL_RCC_ClockConfig+0x312>
        return HAL_ERROR;
34182628:	2001      	movs	r0, #1
3418262a:	e7f4      	b.n	34182616 <HAL_RCC_ClockConfig+0x312>
3418262c:	56028000 	.word	0x56028000
34182630:	34180614 	.word	0x34180614

34182634 <HAL_RCC_GetSysClockFreq>:
{
34182634:	b508      	push	{r3, lr}
  return (uint32_t)(READ_BIT(RCC->IC2CFGR, RCC_IC2CFGR_IC2SEL));
34182636:	4b06      	ldr	r3, [pc, #24]	@ (34182650 <HAL_RCC_GetSysClockFreq+0x1c>)
34182638:	f8d3 00c8 	ldr.w	r0, [r3, #200]	@ 0xc8
  return ((READ_BIT(RCC->IC2CFGR, RCC_IC2CFGR_IC2INT) >> RCC_IC2CFGR_IC2INT_Pos) + 1UL);
3418263c:	f8d3 10c8 	ldr.w	r1, [r3, #200]	@ 0xc8
34182640:	f3c1 4107 	ubfx	r1, r1, #16, #8
  return RCC_GetSysClockFreq(LL_RCC_IC2_GetSource(), LL_RCC_IC2_GetDivider());
34182644:	3101      	adds	r1, #1
34182646:	f000 5040 	and.w	r0, r0, #805306368	@ 0x30000000
3418264a:	f7ff fa1f 	bl	34181a8c <RCC_GetSysClockFreq>
}
3418264e:	bd08      	pop	{r3, pc}
34182650:	56028000 	.word	0x56028000

34182654 <HAL_RCC_GetClockConfig>:
  pRCC_ClkInitStruct->ClockType = RCC_CLOCKTYPE_CPUCLK | RCC_CLOCKTYPE_SYSCLK | \
34182654:	237f      	movs	r3, #127	@ 0x7f
34182656:	6003      	str	r3, [r0, #0]
  cfgr_value = RCC->CFGR1;
34182658:	4a1e      	ldr	r2, [pc, #120]	@ (341826d4 <HAL_RCC_GetClockConfig+0x80>)
3418265a:	6a13      	ldr	r3, [r2, #32]
  pRCC_ClkInitStruct->CPUCLKSource = (cfgr_value & RCC_CFGR1_CPUSWS) >> 4U;
3418265c:	091b      	lsrs	r3, r3, #4
3418265e:	f403 3140 	and.w	r1, r3, #196608	@ 0x30000
34182662:	6041      	str	r1, [r0, #4]
  pRCC_ClkInitStruct->SYSCLKSource = (cfgr_value & RCC_CFGR1_SYSSWS) >> 4U;
34182664:	f003 7340 	and.w	r3, r3, #50331648	@ 0x3000000
34182668:	6083      	str	r3, [r0, #8]
  cfgr_value = RCC->CFGR2;
3418266a:	6a53      	ldr	r3, [r2, #36]	@ 0x24
  pRCC_ClkInitStruct->AHBCLKDivider = (cfgr_value & RCC_CFGR2_HPRE);
3418266c:	f403 01e0 	and.w	r1, r3, #7340032	@ 0x700000
34182670:	60c1      	str	r1, [r0, #12]
  pRCC_ClkInitStruct->APB1CLKDivider = (cfgr_value & RCC_CFGR2_PPRE1);
34182672:	f003 0107 	and.w	r1, r3, #7
34182676:	6101      	str	r1, [r0, #16]
  pRCC_ClkInitStruct->APB2CLKDivider = (cfgr_value & RCC_CFGR2_PPRE2);
34182678:	f003 0170 	and.w	r1, r3, #112	@ 0x70
3418267c:	6141      	str	r1, [r0, #20]
  pRCC_ClkInitStruct->APB4CLKDivider = (cfgr_value & RCC_CFGR2_PPRE4);
3418267e:	f403 41e0 	and.w	r1, r3, #28672	@ 0x7000
34182682:	6181      	str	r1, [r0, #24]
  pRCC_ClkInitStruct->APB5CLKDivider = (cfgr_value & RCC_CFGR2_PPRE5);
34182684:	f403 23e0 	and.w	r3, r3, #458752	@ 0x70000
34182688:	61c3      	str	r3, [r0, #28]
  cfgr_value = RCC->IC1CFGR;
3418268a:	f8d2 30c4 	ldr.w	r3, [r2, #196]	@ 0xc4
  pRCC_ClkInitStruct->IC1Selection.ClockSelection = cfgr_value & RCC_IC1CFGR_IC1SEL;
3418268e:	f003 5140 	and.w	r1, r3, #805306368	@ 0x30000000
34182692:	6201      	str	r1, [r0, #32]
  pRCC_ClkInitStruct->IC1Selection.ClockDivider = ((cfgr_value & RCC_IC1CFGR_IC1INT) >> RCC_IC1CFGR_IC1INT_Pos) + 1U;
34182694:	f3c3 4307 	ubfx	r3, r3, #16, #8
34182698:	3301      	adds	r3, #1
3418269a:	6243      	str	r3, [r0, #36]	@ 0x24
  cfgr_value = RCC->IC2CFGR;
3418269c:	f8d2 30c8 	ldr.w	r3, [r2, #200]	@ 0xc8
  pRCC_ClkInitStruct->IC2Selection.ClockSelection = cfgr_value & RCC_IC2CFGR_IC2SEL;
341826a0:	f003 5140 	and.w	r1, r3, #805306368	@ 0x30000000
341826a4:	6281      	str	r1, [r0, #40]	@ 0x28
  pRCC_ClkInitStruct->IC2Selection.ClockDivider = ((cfgr_value & RCC_IC2CFGR_IC2INT) >> RCC_IC2CFGR_IC2INT_Pos) + 1U;
341826a6:	f3c3 4307 	ubfx	r3, r3, #16, #8
341826aa:	3301      	adds	r3, #1
341826ac:	62c3      	str	r3, [r0, #44]	@ 0x2c
  cfgr_value = RCC->IC6CFGR;
341826ae:	f8d2 30d8 	ldr.w	r3, [r2, #216]	@ 0xd8
  pRCC_ClkInitStruct->IC6Selection.ClockSelection = cfgr_value & RCC_IC6CFGR_IC6SEL;
341826b2:	f003 5140 	and.w	r1, r3, #805306368	@ 0x30000000
341826b6:	6301      	str	r1, [r0, #48]	@ 0x30
  pRCC_ClkInitStruct->IC6Selection.ClockDivider = ((cfgr_value & RCC_IC6CFGR_IC6INT) >> RCC_IC6CFGR_IC6INT_Pos) + 1U;
341826b8:	f3c3 4307 	ubfx	r3, r3, #16, #8
341826bc:	3301      	adds	r3, #1
341826be:	6343      	str	r3, [r0, #52]	@ 0x34
  cfgr_value = RCC->IC11CFGR;
341826c0:	f8d2 30ec 	ldr.w	r3, [r2, #236]	@ 0xec
  pRCC_ClkInitStruct->IC11Selection.ClockSelection = cfgr_value & RCC_IC11CFGR_IC11SEL;
341826c4:	f003 5240 	and.w	r2, r3, #805306368	@ 0x30000000
341826c8:	6382      	str	r2, [r0, #56]	@ 0x38
  pRCC_ClkInitStruct->IC11Selection.ClockDivider = ((cfgr_value & RCC_IC11CFGR_IC11INT) >> RCC_IC11CFGR_IC11INT_Pos) + 1U;
341826ca:	f3c3 4307 	ubfx	r3, r3, #16, #8
341826ce:	3301      	adds	r3, #1
341826d0:	63c3      	str	r3, [r0, #60]	@ 0x3c
}
341826d2:	4770      	bx	lr
341826d4:	56028000 	.word	0x56028000

341826d8 <LL_RCC_SetClockSource>:
{
341826d8:	b500      	push	{lr}
  volatile uint32_t *pReg = (uint32_t *)((uint32_t)&RCC->CCIPR1 + LL_CLKSOURCE_REG(ClkSource));
341826da:	fa5f fc80 	uxtb.w	ip, r0
341826de:	4909      	ldr	r1, [pc, #36]	@ (34182704 <LL_RCC_SetClockSource+0x2c>)
  MODIFY_REG(*pReg, LL_CLKSOURCE_MASK(ClkSource), LL_CLKSOURCE_CONFIG(ClkSource));
341826e0:	f85c 3001 	ldr.w	r3, [ip, r1]
341826e4:	0e02      	lsrs	r2, r0, #24
341826e6:	f3c0 2e04 	ubfx	lr, r0, #8, #5
341826ea:	fa02 f20e 	lsl.w	r2, r2, lr
341826ee:	ea23 0302 	bic.w	r3, r3, r2
341826f2:	f3c0 4007 	ubfx	r0, r0, #16, #8
341826f6:	fa00 f00e 	lsl.w	r0, r0, lr
341826fa:	4303      	orrs	r3, r0
341826fc:	f84c 3001 	str.w	r3, [ip, r1]
}
34182700:	f85d fb04 	ldr.w	pc, [sp], #4
34182704:	56028144 	.word	0x56028144

34182708 <LL_RCC_GetClockSource>:
  const volatile uint32_t *pReg = (uint32_t *)((uint32_t)((uint32_t)(&RCC->CCIPR1) + LL_CLKSOURCE_REG(Periph)));
34182708:	b2c2      	uxtb	r2, r0
3418270a:	4b05      	ldr	r3, [pc, #20]	@ (34182720 <LL_RCC_GetClockSource+0x18>)
  return (uint32_t)(Periph | (((READ_BIT(*pReg, LL_CLKSOURCE_MASK(Periph))) >> LL_CLKSOURCE_SHIFT(Periph)) << LL_RCC_CONFIG_SHIFT));
3418270c:	58d3      	ldr	r3, [r2, r3]
3418270e:	0e02      	lsrs	r2, r0, #24
34182710:	f3c0 2104 	ubfx	r1, r0, #8, #5
34182714:	408a      	lsls	r2, r1
34182716:	4013      	ands	r3, r2
34182718:	40cb      	lsrs	r3, r1
}
3418271a:	ea40 4003 	orr.w	r0, r0, r3, lsl #16
3418271e:	4770      	bx	lr
34182720:	56028144 	.word	0x56028144

34182724 <RCCEx_GetHCLKFreq>:
  return (uint32_t)(READ_BIT(RCC->CFGR2, RCC_CFGR2_HPRE));
34182724:	4b02      	ldr	r3, [pc, #8]	@ (34182730 <RCCEx_GetHCLKFreq+0xc>)
34182726:	6a5b      	ldr	r3, [r3, #36]	@ 0x24
  * @retval HCLK clock frequency (in Hz)
  */
static uint32_t RCCEx_GetHCLKFreq(uint32_t SYSCLK_Frequency)
{
  /* HCLK clock frequency */
  return LL_RCC_CALC_HCLK_FREQ(SYSCLK_Frequency, LL_RCC_GetAHBPrescaler());
34182728:	f3c3 5302 	ubfx	r3, r3, #20, #3
}
3418272c:	40d8      	lsrs	r0, r3
3418272e:	4770      	bx	lr
34182730:	56028000 	.word	0x56028000

34182734 <RCCEx_GetPCLK1Freq>:
  return (uint32_t)(READ_BIT(RCC->CFGR2, RCC_CFGR2_PPRE1));
34182734:	4b02      	ldr	r3, [pc, #8]	@ (34182740 <RCCEx_GetPCLK1Freq+0xc>)
34182736:	6a5b      	ldr	r3, [r3, #36]	@ 0x24
34182738:	f003 0307 	and.w	r3, r3, #7
  */
static uint32_t RCCEx_GetPCLK1Freq(uint32_t HCLK_Frequency)
{
  /* PCLK1 clock frequency */
  return LL_RCC_CALC_PCLK1_FREQ(HCLK_Frequency, LL_RCC_GetAPB1Prescaler());
}
3418273c:	40d8      	lsrs	r0, r3
3418273e:	4770      	bx	lr
34182740:	56028000 	.word	0x56028000

34182744 <RCCEx_GetPCLK2Freq>:
  return (uint32_t)(READ_BIT(RCC->CFGR2, RCC_CFGR2_PPRE2));
34182744:	4b02      	ldr	r3, [pc, #8]	@ (34182750 <RCCEx_GetPCLK2Freq+0xc>)
34182746:	6a5b      	ldr	r3, [r3, #36]	@ 0x24
  * @retval PCLK2 clock frequency (in Hz)
  */
static uint32_t RCCEx_GetPCLK2Freq(uint32_t HCLK_Frequency)
{
  /* PCLK2 clock frequency */
  return LL_RCC_CALC_PCLK2_FREQ(HCLK_Frequency, LL_RCC_GetAPB2Prescaler());
34182748:	f3c3 1302 	ubfx	r3, r3, #4, #3
}
3418274c:	40d8      	lsrs	r0, r3
3418274e:	4770      	bx	lr
34182750:	56028000 	.word	0x56028000

34182754 <RCCEx_GetPCLK4Freq>:
  return (uint32_t)(READ_BIT(RCC->CFGR2, RCC_CFGR2_PPRE4));
34182754:	4b02      	ldr	r3, [pc, #8]	@ (34182760 <RCCEx_GetPCLK4Freq+0xc>)
34182756:	6a5b      	ldr	r3, [r3, #36]	@ 0x24
  * @retval PCLK4 clock frequency (in Hz)
  */
static uint32_t RCCEx_GetPCLK4Freq(uint32_t HCLK_Frequency)
{
  /* PCLK4 clock frequency */
  return LL_RCC_CALC_PCLK4_FREQ(HCLK_Frequency, LL_RCC_GetAPB4Prescaler());
34182758:	f3c3 3302 	ubfx	r3, r3, #12, #3
}
3418275c:	40d8      	lsrs	r0, r3
3418275e:	4770      	bx	lr
34182760:	56028000 	.word	0x56028000

34182764 <RCCEx_GetPCLK5Freq>:
  return (uint32_t)(READ_BIT(RCC->CFGR2, RCC_CFGR2_PPRE5));
34182764:	4b02      	ldr	r3, [pc, #8]	@ (34182770 <RCCEx_GetPCLK5Freq+0xc>)
34182766:	6a5b      	ldr	r3, [r3, #36]	@ 0x24
  * @retval PCLK5 clock frequency (in Hz)
  */
static uint32_t RCCEx_GetPCLK5Freq(uint32_t HCLK_Frequency)
{
  /* PCLK5 clock frequency */
  return LL_RCC_CALC_PCLK5_FREQ(HCLK_Frequency, LL_RCC_GetAPB5Prescaler());
34182768:	f3c3 4302 	ubfx	r3, r3, #16, #3
}
3418276c:	40d8      	lsrs	r0, r3
3418276e:	4770      	bx	lr
34182770:	56028000 	.word	0x56028000

34182774 <RCCEx_GetPLLSourceFreq>:
  */
static uint32_t RCCEx_GetPLLSourceFreq(uint32_t PLLsource)
{
  uint32_t pllinputfreq = RCC_PERIPH_FREQUENCY_NO;

  switch (PLLsource)
34182774:	f1b0 5f00 	cmp.w	r0, #536870912	@ 0x20000000
34182778:	d021      	beq.n	341827be <RCCEx_GetPLLSourceFreq+0x4a>
3418277a:	d810      	bhi.n	3418279e <RCCEx_GetPLLSourceFreq+0x2a>
3418277c:	b1a0      	cbz	r0, 341827a8 <RCCEx_GetPLLSourceFreq+0x34>
3418277e:	f1b0 5f80 	cmp.w	r0, #268435456	@ 0x10000000
34182782:	d10a      	bne.n	3418279a <RCCEx_GetPLLSourceFreq+0x26>
  return ((READ_BIT(RCC->SR, RCC_SR_MSIRDY) != 0UL) ? 1UL : 0UL);
34182784:	4b14      	ldr	r3, [pc, #80]	@ (341827d8 <RCCEx_GetPLLSourceFreq+0x64>)
34182786:	6858      	ldr	r0, [r3, #4]
34182788:	f010 0004 	ands.w	r0, r0, #4
3418278c:	d022      	beq.n	341827d4 <RCCEx_GetPLLSourceFreq+0x60>
  return (READ_BIT(RCC->MSICFGR, RCC_MSICFGR_MSIFREQSEL));
3418278e:	6c5b      	ldr	r3, [r3, #68]	@ 0x44
      break;

    case LL_RCC_PLLSOURCE_MSI:
      if (LL_RCC_MSI_IsReady() != 0U)
      {
        if (LL_RCC_MSI_GetFrequency() == LL_RCC_MSI_FREQ_4MHZ)
34182790:	f413 7f00 	tst.w	r3, #512	@ 0x200
34182794:	d11b      	bne.n	341827ce <RCCEx_GetPLLSourceFreq+0x5a>
        {
          pllinputfreq = MSI_VALUE;
34182796:	4811      	ldr	r0, [pc, #68]	@ (341827dc <RCCEx_GetPLLSourceFreq+0x68>)
34182798:	4770      	bx	lr
  switch (PLLsource)
3418279a:	2000      	movs	r0, #0
3418279c:	4770      	bx	lr
3418279e:	f1b0 5f40 	cmp.w	r0, #805306368	@ 0x30000000
341827a2:	d112      	bne.n	341827ca <RCCEx_GetPLLSourceFreq+0x56>
        pllinputfreq = HSE_VALUE;
      }
      break;

    case LL_RCC_PLLSOURCE_I2S_CKIN:
      pllinputfreq = EXTERNAL_CLOCK_VALUE;
341827a4:	480e      	ldr	r0, [pc, #56]	@ (341827e0 <RCCEx_GetPLLSourceFreq+0x6c>)
341827a6:	4770      	bx	lr
  return ((READ_BIT(RCC->SR, RCC_SR_HSIRDY) != 0UL) ? 1UL : 0UL);
341827a8:	4b0b      	ldr	r3, [pc, #44]	@ (341827d8 <RCCEx_GetPLLSourceFreq+0x64>)
341827aa:	6858      	ldr	r0, [r3, #4]
341827ac:	f010 0008 	ands.w	r0, r0, #8
341827b0:	d010      	beq.n	341827d4 <RCCEx_GetPLLSourceFreq+0x60>
  return (READ_BIT(RCC->HSICFGR, RCC_HSICFGR_HSIDIV));
341827b2:	6c9b      	ldr	r3, [r3, #72]	@ 0x48
        pllinputfreq = HSI_VALUE >> (LL_RCC_HSI_GetDivider() >> RCC_HSICFGR_HSIDIV_Pos);
341827b4:	f3c3 13c1 	ubfx	r3, r3, #7, #2
341827b8:	480a      	ldr	r0, [pc, #40]	@ (341827e4 <RCCEx_GetPLLSourceFreq+0x70>)
341827ba:	40d8      	lsrs	r0, r3
341827bc:	4770      	bx	lr
  return ((READ_BIT(RCC->SR, RCC_SR_HSERDY) != 0UL) ? 1UL : 0UL);
341827be:	4b06      	ldr	r3, [pc, #24]	@ (341827d8 <RCCEx_GetPLLSourceFreq+0x64>)
341827c0:	6858      	ldr	r0, [r3, #4]
341827c2:	f010 0010 	ands.w	r0, r0, #16
341827c6:	d104      	bne.n	341827d2 <RCCEx_GetPLLSourceFreq+0x5e>
341827c8:	4770      	bx	lr
  switch (PLLsource)
341827ca:	2000      	movs	r0, #0
341827cc:	4770      	bx	lr
          pllinputfreq = 16000000UL;
341827ce:	4806      	ldr	r0, [pc, #24]	@ (341827e8 <RCCEx_GetPLLSourceFreq+0x74>)
341827d0:	4770      	bx	lr
        pllinputfreq = HSE_VALUE;
341827d2:	4806      	ldr	r0, [pc, #24]	@ (341827ec <RCCEx_GetPLLSourceFreq+0x78>)
      /* unexpected case */
      break;
  }

  return pllinputfreq;
}
341827d4:	4770      	bx	lr
341827d6:	bf00      	nop
341827d8:	56028000 	.word	0x56028000
341827dc:	003d0900 	.word	0x003d0900
341827e0:	00bb8000 	.word	0x00bb8000
341827e4:	03d09000 	.word	0x03d09000
341827e8:	00f42400 	.word	0x00f42400
341827ec:	02dc6c00 	.word	0x02dc6c00

341827f0 <RCCEx_CalcPLLFreq>:
  * @param  P2     VCO output divider P2 between 1 and 7
  * @retval PLL clock frequency (in Hz)
  */
static uint32_t RCCEx_CalcPLLFreq(uint32_t PLLInputFreq, uint32_t M, uint32_t N, uint32_t FRACN, uint32_t P1,
                                  uint32_t P2)
{
341827f0:	ee07 0a90 	vmov	s15, r0
341827f4:	ee06 1a10 	vmov	s12, r1
341827f8:	ee07 2a10 	vmov	s14, r2
341827fc:	ee06 3a90 	vmov	s13, r3
  float_t freq;

  freq = ((float_t)PLLInputFreq * ((float_t)N + ((float_t)FRACN / (float_t)0x1000000))) / (float_t)M;
34182800:	eef8 7a67 	vcvt.f32.u32	s15, s15
34182804:	eeb8 7a47 	vcvt.f32.u32	s14, s14
34182808:	eef8 6a66 	vcvt.f32.u32	s13, s13
3418280c:	eddf 5a0e 	vldr	s11, [pc, #56]	@ 34182848 <RCCEx_CalcPLLFreq+0x58>
34182810:	ee66 6aa5 	vmul.f32	s13, s13, s11
34182814:	ee37 7a26 	vadd.f32	s14, s14, s13
34182818:	ee67 7a87 	vmul.f32	s15, s15, s14
3418281c:	eeb8 7a46 	vcvt.f32.u32	s14, s12
34182820:	ee87 6a87 	vdiv.f32	s12, s15, s14

  freq = freq / (float_t)P1;
34182824:	eddd 7a00 	vldr	s15, [sp]
34182828:	eef8 7a67 	vcvt.f32.u32	s15, s15
3418282c:	eec6 6a27 	vdiv.f32	s13, s12, s15
  freq = freq / (float_t)P2;
34182830:	eddd 7a01 	vldr	s15, [sp, #4]
34182834:	eef8 7a67 	vcvt.f32.u32	s15, s15
34182838:	ee86 7aa7 	vdiv.f32	s14, s13, s15

  return (uint32_t)freq;
}
3418283c:	eefc 7ac7 	vcvt.u32.f32	s15, s14
34182840:	ee17 0a90 	vmov	r0, s15
34182844:	4770      	bx	lr
34182846:	bf00      	nop
34182848:	33800000 	.word	0x33800000

3418284c <RCCEx_GetRTCCLKFreq>:
  return (uint32_t)(READ_BIT(RCC->CCIPR7, RCC_CCIPR7_RTCSEL));
3418284c:	4b17      	ldr	r3, [pc, #92]	@ (341828ac <RCCEx_GetRTCCLKFreq+0x60>)
3418284e:	f8d3 315c 	ldr.w	r3, [r3, #348]	@ 0x15c
34182852:	f403 7340 	and.w	r3, r3, #768	@ 0x300
  */
static uint32_t RCCEx_GetRTCCLKFreq()
{
  uint32_t rtc_frequency = RCC_PERIPH_FREQUENCY_NO;

  switch (LL_RCC_GetRTCClockSource())
34182856:	f5b3 7f00 	cmp.w	r3, #512	@ 0x200
3418285a:	d00d      	beq.n	34182878 <RCCEx_GetRTCCLKFreq+0x2c>
3418285c:	f5b3 7f40 	cmp.w	r3, #768	@ 0x300
34182860:	d010      	beq.n	34182884 <RCCEx_GetRTCCLKFreq+0x38>
34182862:	f5b3 7f80 	cmp.w	r3, #256	@ 0x100
34182866:	d11b      	bne.n	341828a0 <RCCEx_GetRTCCLKFreq+0x54>
  return ((READ_BIT(RCC->SR, RCC_SR_LSERDY) != 0UL) ? 1UL : 0UL);
34182868:	4b10      	ldr	r3, [pc, #64]	@ (341828ac <RCCEx_GetRTCCLKFreq+0x60>)
3418286a:	6858      	ldr	r0, [r3, #4]
3418286c:	f010 0002 	ands.w	r0, r0, #2
34182870:	d007      	beq.n	34182882 <RCCEx_GetRTCCLKFreq+0x36>
      break;

    case LL_RCC_RTC_CLKSOURCE_LSE:
      if (LL_RCC_LSE_IsReady() != 0U)
      {
        rtc_frequency = LSE_VALUE;
34182872:	f44f 4000 	mov.w	r0, #32768	@ 0x8000
34182876:	4770      	bx	lr
  return ((READ_BIT(RCC->SR, RCC_SR_LSIRDY) != 0UL) ? 1UL : 0UL);
34182878:	4b0c      	ldr	r3, [pc, #48]	@ (341828ac <RCCEx_GetRTCCLKFreq+0x60>)
3418287a:	6858      	ldr	r0, [r3, #4]
      }
      break;

    case LL_RCC_RTC_CLKSOURCE_LSI:
      if (LL_RCC_LSI_IsReady() != 0U)
3418287c:	f010 0001 	ands.w	r0, r0, #1
34182880:	d110      	bne.n	341828a4 <RCCEx_GetRTCCLKFreq+0x58>
      /* Unexpected case */
      break;
  }

  return rtc_frequency;
}
34182882:	4770      	bx	lr
  return ((READ_BIT(RCC->SR, RCC_SR_HSERDY) != 0UL) ? 1UL : 0UL);
34182884:	4b09      	ldr	r3, [pc, #36]	@ (341828ac <RCCEx_GetRTCCLKFreq+0x60>)
34182886:	6858      	ldr	r0, [r3, #4]
34182888:	f010 0010 	ands.w	r0, r0, #16
3418288c:	d0f9      	beq.n	34182882 <RCCEx_GetRTCCLKFreq+0x36>
        uint32_t prescaler = (READ_BIT(RCC->CCIPR7, RCC_CCIPR7_RTCPRE) >> RCC_CCIPR7_RTCPRE_Pos) + 1U;
3418288e:	f8d3 315c 	ldr.w	r3, [r3, #348]	@ 0x15c
34182892:	f3c3 3305 	ubfx	r3, r3, #12, #6
34182896:	3301      	adds	r3, #1
        rtc_frequency = HSE_VALUE / prescaler;
34182898:	4805      	ldr	r0, [pc, #20]	@ (341828b0 <RCCEx_GetRTCCLKFreq+0x64>)
3418289a:	fbb0 f0f3 	udiv	r0, r0, r3
3418289e:	4770      	bx	lr
  switch (LL_RCC_GetRTCClockSource())
341828a0:	2000      	movs	r0, #0
341828a2:	4770      	bx	lr
        rtc_frequency = LSI_VALUE;
341828a4:	f44f 40fa 	mov.w	r0, #32000	@ 0x7d00
  return rtc_frequency;
341828a8:	e7eb      	b.n	34182882 <RCCEx_GetRTCCLKFreq+0x36>
341828aa:	bf00      	nop
341828ac:	56028000 	.word	0x56028000
341828b0:	02dc6c00 	.word	0x02dc6c00

341828b4 <HAL_RCCEx_PeriphCLKConfig>:
{
341828b4:	b538      	push	{r3, r4, r5, lr}
341828b6:	4604      	mov	r4, r0
  if ((PeriphClkInit->PeriphClockSelection & RCC_PERIPHCLK_RTC) == RCC_PERIPHCLK_RTC)
341828b8:	6803      	ldr	r3, [r0, #0]
341828ba:	f013 6f00 	tst.w	r3, #134217728	@ 0x8000000
341828be:	d04d      	beq.n	3418295c <HAL_RCCEx_PeriphCLKConfig+0xa8>
  return (uint32_t)(READ_BIT(RCC->CCIPR7, RCC_CCIPR7_RTCSEL));
341828c0:	4bae      	ldr	r3, [pc, #696]	@ (34182b7c <HAL_RCCEx_PeriphCLKConfig+0x2c8>)
341828c2:	f8d3 315c 	ldr.w	r3, [r3, #348]	@ 0x15c
    if ((tmpreg != RCC_RTCCLKSOURCE_DISABLE) && (tmpreg != (PeriphClkInit->RTCClockSelection & RCC_CCIPR7_RTCSEL)))
341828c6:	f413 7340 	ands.w	r3, r3, #768	@ 0x300
341828ca:	d00e      	beq.n	341828ea <HAL_RCCEx_PeriphCLKConfig+0x36>
341828cc:	f8d0 2188 	ldr.w	r2, [r0, #392]	@ 0x188
341828d0:	f402 7240 	and.w	r2, r2, #768	@ 0x300
341828d4:	429a      	cmp	r2, r3
341828d6:	d008      	beq.n	341828ea <HAL_RCCEx_PeriphCLKConfig+0x36>
      SET_BIT(PWR->DBPCR, PWR_DBPCR_DBP);
341828d8:	4ba9      	ldr	r3, [pc, #676]	@ (34182b80 <HAL_RCCEx_PeriphCLKConfig+0x2cc>)
341828da:	6ada      	ldr	r2, [r3, #44]	@ 0x2c
341828dc:	f042 0201 	orr.w	r2, r2, #1
341828e0:	62da      	str	r2, [r3, #44]	@ 0x2c
      if (READ_BIT(PWR->DBPCR, PWR_DBPCR_DBP) == 0U)
341828e2:	6adb      	ldr	r3, [r3, #44]	@ 0x2c
341828e4:	f013 0f01 	tst.w	r3, #1
341828e8:	d047      	beq.n	3418297a <HAL_RCCEx_PeriphCLKConfig+0xc6>
      if (PeriphClkInit->RTCClockSelection == RCC_RTCCLKSOURCE_LSE)
341828ea:	f8d4 3188 	ldr.w	r3, [r4, #392]	@ 0x188
341828ee:	f5b3 7f80 	cmp.w	r3, #256	@ 0x100
341828f2:	d015      	beq.n	34182920 <HAL_RCCEx_PeriphCLKConfig+0x6c>
341828f4:	2500      	movs	r5, #0
      if (ret == HAL_OK)
341828f6:	bb95      	cbnz	r5, 3418295e <HAL_RCCEx_PeriphCLKConfig+0xaa>
        __HAL_RCC_RTC_CONFIG(PeriphClkInit->RTCClockSelection);
341828f8:	f8d4 3188 	ldr.w	r3, [r4, #392]	@ 0x188
341828fc:	f403 7240 	and.w	r2, r3, #768	@ 0x300
34182900:	f5b2 7f40 	cmp.w	r2, #768	@ 0x300
34182904:	d01f      	beq.n	34182946 <HAL_RCCEx_PeriphCLKConfig+0x92>
34182906:	f8d4 3188 	ldr.w	r3, [r4, #392]	@ 0x188
3418290a:	f403 7340 	and.w	r3, r3, #768	@ 0x300
  MODIFY_REG(RCC->CCIPR7, RCC_CCIPR7_RTCSEL, Source);
3418290e:	499b      	ldr	r1, [pc, #620]	@ (34182b7c <HAL_RCCEx_PeriphCLKConfig+0x2c8>)
34182910:	f8d1 215c 	ldr.w	r2, [r1, #348]	@ 0x15c
34182914:	f422 7240 	bic.w	r2, r2, #768	@ 0x300
34182918:	4313      	orrs	r3, r2
3418291a:	f8c1 315c 	str.w	r3, [r1, #348]	@ 0x15c
}
3418291e:	e01e      	b.n	3418295e <HAL_RCCEx_PeriphCLKConfig+0xaa>
        tickstart = HAL_GetTick();
34182920:	f005 f82c 	bl	3418797c <HAL_GetTick>
34182924:	4605      	mov	r5, r0
  return ((READ_BIT(RCC->SR, RCC_SR_LSERDY) != 0UL) ? 1UL : 0UL);
34182926:	4b95      	ldr	r3, [pc, #596]	@ (34182b7c <HAL_RCCEx_PeriphCLKConfig+0x2c8>)
34182928:	685b      	ldr	r3, [r3, #4]
3418292a:	f013 0f02 	tst.w	r3, #2
3418292e:	d108      	bne.n	34182942 <HAL_RCCEx_PeriphCLKConfig+0x8e>
          if ((HAL_GetTick() - tickstart) > RCC_LSE_TIMEOUT_VALUE)
34182930:	f005 f824 	bl	3418797c <HAL_GetTick>
34182934:	1b40      	subs	r0, r0, r5
34182936:	f241 3388 	movw	r3, #5000	@ 0x1388
3418293a:	4298      	cmp	r0, r3
3418293c:	d9f3      	bls.n	34182926 <HAL_RCCEx_PeriphCLKConfig+0x72>
            ret = HAL_TIMEOUT;
3418293e:	2503      	movs	r5, #3
34182940:	e7d9      	b.n	341828f6 <HAL_RCCEx_PeriphCLKConfig+0x42>
34182942:	2500      	movs	r5, #0
34182944:	e7d7      	b.n	341828f6 <HAL_RCCEx_PeriphCLKConfig+0x42>
        __HAL_RCC_RTC_CONFIG(PeriphClkInit->RTCClockSelection);
34182946:	f423 7340 	bic.w	r3, r3, #768	@ 0x300
  MODIFY_REG(RCC->CCIPR7, RCC_CCIPR7_RTCPRE, Prescaler);
3418294a:	498c      	ldr	r1, [pc, #560]	@ (34182b7c <HAL_RCCEx_PeriphCLKConfig+0x2c8>)
3418294c:	f8d1 215c 	ldr.w	r2, [r1, #348]	@ 0x15c
34182950:	f422 327c 	bic.w	r2, r2, #258048	@ 0x3f000
34182954:	4313      	orrs	r3, r2
34182956:	f8c1 315c 	str.w	r3, [r1, #348]	@ 0x15c
}
3418295a:	e7d4      	b.n	34182906 <HAL_RCCEx_PeriphCLKConfig+0x52>
  HAL_StatusTypeDef status = HAL_OK;   /* Final status */
3418295c:	2500      	movs	r5, #0
  if ((PeriphClkInit->PeriphClockSelection & RCC_PERIPHCLK_CKPER) == RCC_PERIPHCLK_CKPER)
3418295e:	6823      	ldr	r3, [r4, #0]
34182960:	f013 0f04 	tst.w	r3, #4
34182964:	d027      	beq.n	341829b6 <HAL_RCCEx_PeriphCLKConfig+0x102>
    if (PeriphClkInit->CkperClockSelection == RCC_CLKPCLKSOURCE_IC5)
34182966:	f8d4 30b8 	ldr.w	r3, [r4, #184]	@ 0xb8
3418296a:	3b03      	subs	r3, #3
3418296c:	2b04      	cmp	r3, #4
3418296e:	d818      	bhi.n	341829a2 <HAL_RCCEx_PeriphCLKConfig+0xee>
34182970:	e8df f003 	tbb	[pc, r3]
34182974:	4a36055e 	.word	0x4a36055e
34182978:	74          	.byte	0x74
34182979:	00          	.byte	0x00
      status = ret;
3418297a:	2501      	movs	r5, #1
3418297c:	e7ef      	b.n	3418295e <HAL_RCCEx_PeriphCLKConfig+0xaa>
      MODIFY_REG(RCC->IC5CFGR, RCC_IC5CFGR_IC5SEL | RCC_IC5CFGR_IC5INT,
3418297e:	4a7f      	ldr	r2, [pc, #508]	@ (34182b7c <HAL_RCCEx_PeriphCLKConfig+0x2c8>)
34182980:	f8d2 30d4 	ldr.w	r3, [r2, #212]	@ 0xd4
34182984:	f023 5343 	bic.w	r3, r3, #817889280	@ 0x30c00000
34182988:	f423 137c 	bic.w	r3, r3, #4128768	@ 0x3f0000
3418298c:	6aa1      	ldr	r1, [r4, #40]	@ 0x28
3418298e:	6ae0      	ldr	r0, [r4, #44]	@ 0x2c
34182990:	3801      	subs	r0, #1
34182992:	ea41 4100 	orr.w	r1, r1, r0, lsl #16
34182996:	430b      	orrs	r3, r1
34182998:	f8c2 30d4 	str.w	r3, [r2, #212]	@ 0xd4
  WRITE_REG(RCC->DIVENSR, RCC_DIVENSR_IC5ENS);
3418299c:	2310      	movs	r3, #16
3418299e:	f8c2 3a40 	str.w	r3, [r2, #2624]	@ 0xa40
    __HAL_RCC_CLKP_CONFIG(PeriphClkInit->CkperClockSelection);
341829a2:	f8d4 30b8 	ldr.w	r3, [r4, #184]	@ 0xb8
  MODIFY_REG(RCC->CCIPR7, RCC_CCIPR7_PERSEL, ClkSource);
341829a6:	4975      	ldr	r1, [pc, #468]	@ (34182b7c <HAL_RCCEx_PeriphCLKConfig+0x2c8>)
341829a8:	f8d1 215c 	ldr.w	r2, [r1, #348]	@ 0x15c
341829ac:	f022 0207 	bic.w	r2, r2, #7
341829b0:	4313      	orrs	r3, r2
341829b2:	f8c1 315c 	str.w	r3, [r1, #348]	@ 0x15c
  if ((PeriphClkInit->PeriphClockSelection & RCC_PERIPHCLK_XSPI1) == RCC_PERIPHCLK_XSPI1)
341829b6:	6863      	ldr	r3, [r4, #4]
341829b8:	f413 0f80 	tst.w	r3, #4194304	@ 0x400000
341829bc:	d07a      	beq.n	34182ab4 <HAL_RCCEx_PeriphCLKConfig+0x200>
    if (PeriphClkInit->Xspi1ClockSelection == RCC_XSPI1CLKSOURCE_IC3)
341829be:	f8d4 30ac 	ldr.w	r3, [r4, #172]	@ 0xac
341829c2:	4a70      	ldr	r2, [pc, #448]	@ (34182b84 <HAL_RCCEx_PeriphCLKConfig+0x2d0>)
341829c4:	4293      	cmp	r3, r2
341829c6:	d05f      	beq.n	34182a88 <HAL_RCCEx_PeriphCLKConfig+0x1d4>
    else if (PeriphClkInit->Xspi1ClockSelection == RCC_XSPI1CLKSOURCE_IC4)
341829c8:	4a6f      	ldr	r2, [pc, #444]	@ (34182b88 <HAL_RCCEx_PeriphCLKConfig+0x2d4>)
341829ca:	4293      	cmp	r3, r2
341829cc:	f000 8086 	beq.w	34182adc <HAL_RCCEx_PeriphCLKConfig+0x228>
    else if (PeriphClkInit->Xspi1ClockSelection == RCC_XSPI1CLKSOURCE_CLKP)
341829d0:	4a6e      	ldr	r2, [pc, #440]	@ (34182b8c <HAL_RCCEx_PeriphCLKConfig+0x2d8>)
341829d2:	4293      	cmp	r3, r2
341829d4:	d16a      	bne.n	34182aac <HAL_RCCEx_PeriphCLKConfig+0x1f8>
  * @rmtoll MISCENSR      PERENS        LL_RCC_CLKP_Enable
  * @retval None
  */
__STATIC_INLINE void LL_RCC_CLKP_Enable(void)
{
  WRITE_REG(RCC->MISCENSR, RCC_MISCENSR_PERENS);
341829d6:	4b69      	ldr	r3, [pc, #420]	@ (34182b7c <HAL_RCCEx_PeriphCLKConfig+0x2c8>)
341829d8:	2240      	movs	r2, #64	@ 0x40
341829da:	f8c3 2a48 	str.w	r2, [r3, #2632]	@ 0xa48
}
341829de:	e065      	b.n	34182aac <HAL_RCCEx_PeriphCLKConfig+0x1f8>
      MODIFY_REG(RCC->IC10CFGR, RCC_IC10CFGR_IC10SEL | RCC_IC10CFGR_IC10INT,
341829e0:	4a66      	ldr	r2, [pc, #408]	@ (34182b7c <HAL_RCCEx_PeriphCLKConfig+0x2c8>)
341829e2:	f8d2 30e8 	ldr.w	r3, [r2, #232]	@ 0xe8
341829e6:	f023 5343 	bic.w	r3, r3, #817889280	@ 0x30c00000
341829ea:	f423 137c 	bic.w	r3, r3, #4128768	@ 0x3f0000
341829ee:	6d21      	ldr	r1, [r4, #80]	@ 0x50
341829f0:	6d60      	ldr	r0, [r4, #84]	@ 0x54
341829f2:	3801      	subs	r0, #1
341829f4:	ea41 4100 	orr.w	r1, r1, r0, lsl #16
341829f8:	430b      	orrs	r3, r1
341829fa:	f8c2 30e8 	str.w	r3, [r2, #232]	@ 0xe8
  WRITE_REG(RCC->DIVENSR, RCC_DIVENSR_IC10ENS);
341829fe:	f44f 7300 	mov.w	r3, #512	@ 0x200
34182a02:	f8c2 3a40 	str.w	r3, [r2, #2624]	@ 0xa40
}
34182a06:	e7cc      	b.n	341829a2 <HAL_RCCEx_PeriphCLKConfig+0xee>
      MODIFY_REG(RCC->IC15CFGR, RCC_IC15CFGR_IC15SEL | RCC_IC15CFGR_IC15INT,
34182a08:	4a5c      	ldr	r2, [pc, #368]	@ (34182b7c <HAL_RCCEx_PeriphCLKConfig+0x2c8>)
34182a0a:	f8d2 30fc 	ldr.w	r3, [r2, #252]	@ 0xfc
34182a0e:	f023 5343 	bic.w	r3, r3, #817889280	@ 0x30c00000
34182a12:	f423 137c 	bic.w	r3, r3, #4128768	@ 0x3f0000
34182a16:	6fa1      	ldr	r1, [r4, #120]	@ 0x78
34182a18:	6fe0      	ldr	r0, [r4, #124]	@ 0x7c
34182a1a:	3801      	subs	r0, #1
34182a1c:	ea41 4100 	orr.w	r1, r1, r0, lsl #16
34182a20:	430b      	orrs	r3, r1
34182a22:	f8c2 30fc 	str.w	r3, [r2, #252]	@ 0xfc
  WRITE_REG(RCC->DIVENSR, RCC_DIVENSR_IC15ENS);
34182a26:	f44f 4380 	mov.w	r3, #16384	@ 0x4000
34182a2a:	f8c2 3a40 	str.w	r3, [r2, #2624]	@ 0xa40
}
34182a2e:	e7b8      	b.n	341829a2 <HAL_RCCEx_PeriphCLKConfig+0xee>
      MODIFY_REG(RCC->IC19CFGR, RCC_IC19CFGR_IC19SEL | RCC_IC19CFGR_IC19INT,
34182a30:	4a52      	ldr	r2, [pc, #328]	@ (34182b7c <HAL_RCCEx_PeriphCLKConfig+0x2c8>)
34182a32:	f8d2 310c 	ldr.w	r3, [r2, #268]	@ 0x10c
34182a36:	f023 5343 	bic.w	r3, r3, #817889280	@ 0x30c00000
34182a3a:	f423 137c 	bic.w	r3, r3, #4128768	@ 0x3f0000
34182a3e:	f8d4 1098 	ldr.w	r1, [r4, #152]	@ 0x98
34182a42:	f8d4 009c 	ldr.w	r0, [r4, #156]	@ 0x9c
34182a46:	3801      	subs	r0, #1
34182a48:	ea41 4100 	orr.w	r1, r1, r0, lsl #16
34182a4c:	430b      	orrs	r3, r1
34182a4e:	f8c2 310c 	str.w	r3, [r2, #268]	@ 0x10c
  WRITE_REG(RCC->DIVENSR, RCC_DIVENSR_IC19ENS);
34182a52:	f44f 2380 	mov.w	r3, #262144	@ 0x40000
34182a56:	f8c2 3a40 	str.w	r3, [r2, #2624]	@ 0xa40
}
34182a5a:	e7a2      	b.n	341829a2 <HAL_RCCEx_PeriphCLKConfig+0xee>
      MODIFY_REG(RCC->IC20CFGR, RCC_IC20CFGR_IC20SEL | RCC_IC20CFGR_IC20INT,
34182a5c:	4a47      	ldr	r2, [pc, #284]	@ (34182b7c <HAL_RCCEx_PeriphCLKConfig+0x2c8>)
34182a5e:	f8d2 3110 	ldr.w	r3, [r2, #272]	@ 0x110
34182a62:	f023 5343 	bic.w	r3, r3, #817889280	@ 0x30c00000
34182a66:	f423 137c 	bic.w	r3, r3, #4128768	@ 0x3f0000
34182a6a:	f8d4 10a0 	ldr.w	r1, [r4, #160]	@ 0xa0
34182a6e:	f8d4 00a4 	ldr.w	r0, [r4, #164]	@ 0xa4
34182a72:	3801      	subs	r0, #1
34182a74:	ea41 4100 	orr.w	r1, r1, r0, lsl #16
34182a78:	430b      	orrs	r3, r1
34182a7a:	f8c2 3110 	str.w	r3, [r2, #272]	@ 0x110
  WRITE_REG(RCC->DIVENSR, RCC_DIVENSR_IC20ENS);
34182a7e:	f44f 2300 	mov.w	r3, #524288	@ 0x80000
34182a82:	f8c2 3a40 	str.w	r3, [r2, #2624]	@ 0xa40
}
34182a86:	e78c      	b.n	341829a2 <HAL_RCCEx_PeriphCLKConfig+0xee>
      MODIFY_REG(RCC->IC3CFGR, RCC_IC3CFGR_IC3SEL | RCC_IC3CFGR_IC3INT,
34182a88:	4a3c      	ldr	r2, [pc, #240]	@ (34182b7c <HAL_RCCEx_PeriphCLKConfig+0x2c8>)
34182a8a:	f8d2 30cc 	ldr.w	r3, [r2, #204]	@ 0xcc
34182a8e:	f023 5343 	bic.w	r3, r3, #817889280	@ 0x30c00000
34182a92:	f423 137c 	bic.w	r3, r3, #4128768	@ 0x3f0000
34182a96:	69a1      	ldr	r1, [r4, #24]
34182a98:	69e0      	ldr	r0, [r4, #28]
34182a9a:	3801      	subs	r0, #1
34182a9c:	ea41 4100 	orr.w	r1, r1, r0, lsl #16
34182aa0:	430b      	orrs	r3, r1
34182aa2:	f8c2 30cc 	str.w	r3, [r2, #204]	@ 0xcc
  WRITE_REG(RCC->DIVENSR, RCC_DIVENSR_IC3ENS);
34182aa6:	2304      	movs	r3, #4
34182aa8:	f8c2 3a40 	str.w	r3, [r2, #2624]	@ 0xa40
  LL_RCC_SetClockSource(ClkSource);
34182aac:	f8d4 00ac 	ldr.w	r0, [r4, #172]	@ 0xac
34182ab0:	f7ff fe12 	bl	341826d8 <LL_RCC_SetClockSource>
  if ((PeriphClkInit->PeriphClockSelection & RCC_PERIPHCLK_XSPI2) == RCC_PERIPHCLK_XSPI2)
34182ab4:	6863      	ldr	r3, [r4, #4]
34182ab6:	f413 0f00 	tst.w	r3, #8388608	@ 0x800000
34182aba:	d038      	beq.n	34182b2e <HAL_RCCEx_PeriphCLKConfig+0x27a>
    if (PeriphClkInit->Xspi2ClockSelection == RCC_XSPI2CLKSOURCE_IC3)
34182abc:	f8d4 30b0 	ldr.w	r3, [r4, #176]	@ 0xb0
34182ac0:	4a33      	ldr	r2, [pc, #204]	@ (34182b90 <HAL_RCCEx_PeriphCLKConfig+0x2dc>)
34182ac2:	4293      	cmp	r3, r2
34182ac4:	d01d      	beq.n	34182b02 <HAL_RCCEx_PeriphCLKConfig+0x24e>
    else if (PeriphClkInit->Xspi2ClockSelection == RCC_XSPI2CLKSOURCE_IC4)
34182ac6:	4a33      	ldr	r2, [pc, #204]	@ (34182b94 <HAL_RCCEx_PeriphCLKConfig+0x2e0>)
34182ac8:	4293      	cmp	r3, r2
34182aca:	d044      	beq.n	34182b56 <HAL_RCCEx_PeriphCLKConfig+0x2a2>
    else if (PeriphClkInit->Xspi2ClockSelection == RCC_XSPI2CLKSOURCE_CLKP)
34182acc:	4a32      	ldr	r2, [pc, #200]	@ (34182b98 <HAL_RCCEx_PeriphCLKConfig+0x2e4>)
34182ace:	4293      	cmp	r3, r2
34182ad0:	d129      	bne.n	34182b26 <HAL_RCCEx_PeriphCLKConfig+0x272>
  WRITE_REG(RCC->MISCENSR, RCC_MISCENSR_PERENS);
34182ad2:	4b2a      	ldr	r3, [pc, #168]	@ (34182b7c <HAL_RCCEx_PeriphCLKConfig+0x2c8>)
34182ad4:	2240      	movs	r2, #64	@ 0x40
34182ad6:	f8c3 2a48 	str.w	r2, [r3, #2632]	@ 0xa48
}
34182ada:	e024      	b.n	34182b26 <HAL_RCCEx_PeriphCLKConfig+0x272>
      MODIFY_REG(RCC->IC4CFGR, RCC_IC4CFGR_IC4SEL | RCC_IC4CFGR_IC4INT,
34182adc:	4a27      	ldr	r2, [pc, #156]	@ (34182b7c <HAL_RCCEx_PeriphCLKConfig+0x2c8>)
34182ade:	f8d2 30d0 	ldr.w	r3, [r2, #208]	@ 0xd0
34182ae2:	f023 5343 	bic.w	r3, r3, #817889280	@ 0x30c00000
34182ae6:	f423 137c 	bic.w	r3, r3, #4128768	@ 0x3f0000
34182aea:	6a21      	ldr	r1, [r4, #32]
34182aec:	6a60      	ldr	r0, [r4, #36]	@ 0x24
34182aee:	3801      	subs	r0, #1
34182af0:	ea41 4100 	orr.w	r1, r1, r0, lsl #16
34182af4:	430b      	orrs	r3, r1
34182af6:	f8c2 30d0 	str.w	r3, [r2, #208]	@ 0xd0
  WRITE_REG(RCC->DIVENSR, RCC_DIVENSR_IC4ENS);
34182afa:	2308      	movs	r3, #8
34182afc:	f8c2 3a40 	str.w	r3, [r2, #2624]	@ 0xa40
}
34182b00:	e7d4      	b.n	34182aac <HAL_RCCEx_PeriphCLKConfig+0x1f8>
      MODIFY_REG(RCC->IC3CFGR, RCC_IC3CFGR_IC3SEL | RCC_IC3CFGR_IC3INT,
34182b02:	4a1e      	ldr	r2, [pc, #120]	@ (34182b7c <HAL_RCCEx_PeriphCLKConfig+0x2c8>)
34182b04:	f8d2 30cc 	ldr.w	r3, [r2, #204]	@ 0xcc
34182b08:	f023 5343 	bic.w	r3, r3, #817889280	@ 0x30c00000
34182b0c:	f423 137c 	bic.w	r3, r3, #4128768	@ 0x3f0000
34182b10:	69a1      	ldr	r1, [r4, #24]
34182b12:	69e0      	ldr	r0, [r4, #28]
34182b14:	3801      	subs	r0, #1
34182b16:	ea41 4100 	orr.w	r1, r1, r0, lsl #16
34182b1a:	430b      	orrs	r3, r1
34182b1c:	f8c2 30cc 	str.w	r3, [r2, #204]	@ 0xcc
  WRITE_REG(RCC->DIVENSR, RCC_DIVENSR_IC3ENS);
34182b20:	2304      	movs	r3, #4
34182b22:	f8c2 3a40 	str.w	r3, [r2, #2624]	@ 0xa40
  LL_RCC_SetClockSource(ClkSource);
34182b26:	f8d4 00b0 	ldr.w	r0, [r4, #176]	@ 0xb0
34182b2a:	f7ff fdd5 	bl	341826d8 <LL_RCC_SetClockSource>
  if ((PeriphClkInit->PeriphClockSelection & RCC_PERIPHCLK_XSPI3) == RCC_PERIPHCLK_XSPI3)
34182b2e:	6863      	ldr	r3, [r4, #4]
34182b30:	f013 7f80 	tst.w	r3, #16777216	@ 0x1000000
34182b34:	d04e      	beq.n	34182bd4 <HAL_RCCEx_PeriphCLKConfig+0x320>
    if (PeriphClkInit->Xspi3ClockSelection == RCC_XSPI3CLKSOURCE_IC3)
34182b36:	f8d4 30b4 	ldr.w	r3, [r4, #180]	@ 0xb4
34182b3a:	4a18      	ldr	r2, [pc, #96]	@ (34182b9c <HAL_RCCEx_PeriphCLKConfig+0x2e8>)
34182b3c:	4293      	cmp	r3, r2
34182b3e:	d033      	beq.n	34182ba8 <HAL_RCCEx_PeriphCLKConfig+0x2f4>
    else if (PeriphClkInit->Xspi3ClockSelection == RCC_XSPI3CLKSOURCE_IC4)
34182b40:	4a17      	ldr	r2, [pc, #92]	@ (34182ba0 <HAL_RCCEx_PeriphCLKConfig+0x2ec>)
34182b42:	4293      	cmp	r3, r2
34182b44:	d057      	beq.n	34182bf6 <HAL_RCCEx_PeriphCLKConfig+0x342>
    else if (PeriphClkInit->Xspi3ClockSelection == RCC_XSPI3CLKSOURCE_CLKP)
34182b46:	4a17      	ldr	r2, [pc, #92]	@ (34182ba4 <HAL_RCCEx_PeriphCLKConfig+0x2f0>)
34182b48:	4293      	cmp	r3, r2
34182b4a:	d13f      	bne.n	34182bcc <HAL_RCCEx_PeriphCLKConfig+0x318>
  WRITE_REG(RCC->MISCENSR, RCC_MISCENSR_PERENS);
34182b4c:	4b0b      	ldr	r3, [pc, #44]	@ (34182b7c <HAL_RCCEx_PeriphCLKConfig+0x2c8>)
34182b4e:	2240      	movs	r2, #64	@ 0x40
34182b50:	f8c3 2a48 	str.w	r2, [r3, #2632]	@ 0xa48
}
34182b54:	e03a      	b.n	34182bcc <HAL_RCCEx_PeriphCLKConfig+0x318>
      MODIFY_REG(RCC->IC4CFGR, RCC_IC4CFGR_IC4SEL | RCC_IC4CFGR_IC4INT,
34182b56:	4a09      	ldr	r2, [pc, #36]	@ (34182b7c <HAL_RCCEx_PeriphCLKConfig+0x2c8>)
34182b58:	f8d2 30d0 	ldr.w	r3, [r2, #208]	@ 0xd0
34182b5c:	f023 5343 	bic.w	r3, r3, #817889280	@ 0x30c00000
34182b60:	f423 137c 	bic.w	r3, r3, #4128768	@ 0x3f0000
34182b64:	6a21      	ldr	r1, [r4, #32]
34182b66:	6a60      	ldr	r0, [r4, #36]	@ 0x24
34182b68:	3801      	subs	r0, #1
34182b6a:	ea41 4100 	orr.w	r1, r1, r0, lsl #16
34182b6e:	430b      	orrs	r3, r1
34182b70:	f8c2 30d0 	str.w	r3, [r2, #208]	@ 0xd0
  WRITE_REG(RCC->DIVENSR, RCC_DIVENSR_IC4ENS);
34182b74:	2308      	movs	r3, #8
34182b76:	f8c2 3a40 	str.w	r3, [r2, #2624]	@ 0xa40
}
34182b7a:	e7d4      	b.n	34182b26 <HAL_RCCEx_PeriphCLKConfig+0x272>
34182b7c:	56028000 	.word	0x56028000
34182b80:	56024800 	.word	0x56024800
34182b84:	03020014 	.word	0x03020014
34182b88:	03030014 	.word	0x03030014
34182b8c:	03010014 	.word	0x03010014
34182b90:	03020414 	.word	0x03020414
34182b94:	03030414 	.word	0x03030414
34182b98:	03010414 	.word	0x03010414
34182b9c:	03020814 	.word	0x03020814
34182ba0:	03030814 	.word	0x03030814
34182ba4:	03010814 	.word	0x03010814
      MODIFY_REG(RCC->IC3CFGR, RCC_IC3CFGR_IC3SEL | RCC_IC3CFGR_IC3INT,
34182ba8:	4a9d      	ldr	r2, [pc, #628]	@ (34182e20 <HAL_RCCEx_PeriphCLKConfig+0x56c>)
34182baa:	f8d2 30cc 	ldr.w	r3, [r2, #204]	@ 0xcc
34182bae:	f023 5343 	bic.w	r3, r3, #817889280	@ 0x30c00000
34182bb2:	f423 137c 	bic.w	r3, r3, #4128768	@ 0x3f0000
34182bb6:	69a1      	ldr	r1, [r4, #24]
34182bb8:	69e0      	ldr	r0, [r4, #28]
34182bba:	3801      	subs	r0, #1
34182bbc:	ea41 4100 	orr.w	r1, r1, r0, lsl #16
34182bc0:	430b      	orrs	r3, r1
34182bc2:	f8c2 30cc 	str.w	r3, [r2, #204]	@ 0xcc
  WRITE_REG(RCC->DIVENSR, RCC_DIVENSR_IC3ENS);
34182bc6:	2304      	movs	r3, #4
34182bc8:	f8c2 3a40 	str.w	r3, [r2, #2624]	@ 0xa40
  LL_RCC_SetClockSource(ClkSource);
34182bcc:	f8d4 00b4 	ldr.w	r0, [r4, #180]	@ 0xb4
34182bd0:	f7ff fd82 	bl	341826d8 <LL_RCC_SetClockSource>
  if ((PeriphClkInit->PeriphClockSelection & RCC_PERIPHCLK_FMC) == RCC_PERIPHCLK_FMC)
34182bd4:	6823      	ldr	r3, [r4, #0]
34182bd6:	f413 6f00 	tst.w	r3, #2048	@ 0x800
34182bda:	d03b      	beq.n	34182c54 <HAL_RCCEx_PeriphCLKConfig+0x3a0>
    if (PeriphClkInit->FmcClockSelection == RCC_FMCCLKSOURCE_IC3)
34182bdc:	f8d4 30a8 	ldr.w	r3, [r4, #168]	@ 0xa8
34182be0:	2b20      	cmp	r3, #32
34182be2:	d01b      	beq.n	34182c1c <HAL_RCCEx_PeriphCLKConfig+0x368>
    else if (PeriphClkInit->FmcClockSelection == RCC_FMCCLKSOURCE_IC4)
34182be4:	2b30      	cmp	r3, #48	@ 0x30
34182be6:	d049      	beq.n	34182c7c <HAL_RCCEx_PeriphCLKConfig+0x3c8>
    else if (PeriphClkInit->FmcClockSelection == RCC_FMCCLKSOURCE_CLKP)
34182be8:	2b10      	cmp	r3, #16
34182bea:	d129      	bne.n	34182c40 <HAL_RCCEx_PeriphCLKConfig+0x38c>
  WRITE_REG(RCC->MISCENSR, RCC_MISCENSR_PERENS);
34182bec:	4b8c      	ldr	r3, [pc, #560]	@ (34182e20 <HAL_RCCEx_PeriphCLKConfig+0x56c>)
34182bee:	2240      	movs	r2, #64	@ 0x40
34182bf0:	f8c3 2a48 	str.w	r2, [r3, #2632]	@ 0xa48
}
34182bf4:	e024      	b.n	34182c40 <HAL_RCCEx_PeriphCLKConfig+0x38c>
      MODIFY_REG(RCC->IC4CFGR, RCC_IC4CFGR_IC4SEL | RCC_IC4CFGR_IC4INT,
34182bf6:	4a8a      	ldr	r2, [pc, #552]	@ (34182e20 <HAL_RCCEx_PeriphCLKConfig+0x56c>)
34182bf8:	f8d2 30d0 	ldr.w	r3, [r2, #208]	@ 0xd0
34182bfc:	f023 5343 	bic.w	r3, r3, #817889280	@ 0x30c00000
34182c00:	f423 137c 	bic.w	r3, r3, #4128768	@ 0x3f0000
34182c04:	6a21      	ldr	r1, [r4, #32]
34182c06:	6a60      	ldr	r0, [r4, #36]	@ 0x24
34182c08:	3801      	subs	r0, #1
34182c0a:	ea41 4100 	orr.w	r1, r1, r0, lsl #16
34182c0e:	430b      	orrs	r3, r1
34182c10:	f8c2 30d0 	str.w	r3, [r2, #208]	@ 0xd0
  WRITE_REG(RCC->DIVENSR, RCC_DIVENSR_IC4ENS);
34182c14:	2308      	movs	r3, #8
34182c16:	f8c2 3a40 	str.w	r3, [r2, #2624]	@ 0xa40
}
34182c1a:	e7d7      	b.n	34182bcc <HAL_RCCEx_PeriphCLKConfig+0x318>
      MODIFY_REG(RCC->IC3CFGR, RCC_IC3CFGR_IC3SEL | RCC_IC3CFGR_IC3INT,
34182c1c:	4a80      	ldr	r2, [pc, #512]	@ (34182e20 <HAL_RCCEx_PeriphCLKConfig+0x56c>)
34182c1e:	f8d2 30cc 	ldr.w	r3, [r2, #204]	@ 0xcc
34182c22:	f023 5343 	bic.w	r3, r3, #817889280	@ 0x30c00000
34182c26:	f423 137c 	bic.w	r3, r3, #4128768	@ 0x3f0000
34182c2a:	69a1      	ldr	r1, [r4, #24]
34182c2c:	69e0      	ldr	r0, [r4, #28]
34182c2e:	3801      	subs	r0, #1
34182c30:	ea41 4100 	orr.w	r1, r1, r0, lsl #16
34182c34:	430b      	orrs	r3, r1
34182c36:	f8c2 30cc 	str.w	r3, [r2, #204]	@ 0xcc
  WRITE_REG(RCC->DIVENSR, RCC_DIVENSR_IC3ENS);
34182c3a:	2304      	movs	r3, #4
34182c3c:	f8c2 3a40 	str.w	r3, [r2, #2624]	@ 0xa40
    __HAL_RCC_FMC_CONFIG(PeriphClkInit->FmcClockSelection);
34182c40:	f8d4 30a8 	ldr.w	r3, [r4, #168]	@ 0xa8
  MODIFY_REG(RCC->CCIPR3, RCC_CCIPR3_FMCSEL, ClkSource);
34182c44:	4976      	ldr	r1, [pc, #472]	@ (34182e20 <HAL_RCCEx_PeriphCLKConfig+0x56c>)
34182c46:	f8d1 214c 	ldr.w	r2, [r1, #332]	@ 0x14c
34182c4a:	f022 0230 	bic.w	r2, r2, #48	@ 0x30
34182c4e:	4313      	orrs	r3, r2
34182c50:	f8c1 314c 	str.w	r3, [r1, #332]	@ 0x14c
  if ((PeriphClkInit->PeriphClockSelection & RCC_PERIPHCLK_SDMMC1) == RCC_PERIPHCLK_SDMMC1)
34182c54:	6823      	ldr	r3, [r4, #0]
34182c56:	f013 4f80 	tst.w	r3, #1073741824	@ 0x40000000
34182c5a:	d038      	beq.n	34182cce <HAL_RCCEx_PeriphCLKConfig+0x41a>
    if (PeriphClkInit->Sdmmc1ClockSelection == RCC_SDMMC1CLKSOURCE_IC4)
34182c5c:	f8d4 312c 	ldr.w	r3, [r4, #300]	@ 0x12c
34182c60:	4a70      	ldr	r2, [pc, #448]	@ (34182e24 <HAL_RCCEx_PeriphCLKConfig+0x570>)
34182c62:	4293      	cmp	r3, r2
34182c64:	d01d      	beq.n	34182ca2 <HAL_RCCEx_PeriphCLKConfig+0x3ee>
    else if (PeriphClkInit->Sdmmc1ClockSelection == RCC_SDMMC1CLKSOURCE_IC5)
34182c66:	4a70      	ldr	r2, [pc, #448]	@ (34182e28 <HAL_RCCEx_PeriphCLKConfig+0x574>)
34182c68:	4293      	cmp	r3, r2
34182c6a:	d043      	beq.n	34182cf4 <HAL_RCCEx_PeriphCLKConfig+0x440>
    else if (PeriphClkInit->Sdmmc1ClockSelection == RCC_SDMMC1CLKSOURCE_CLKP)
34182c6c:	4a6f      	ldr	r2, [pc, #444]	@ (34182e2c <HAL_RCCEx_PeriphCLKConfig+0x578>)
34182c6e:	4293      	cmp	r3, r2
34182c70:	d129      	bne.n	34182cc6 <HAL_RCCEx_PeriphCLKConfig+0x412>
  WRITE_REG(RCC->MISCENSR, RCC_MISCENSR_PERENS);
34182c72:	4b6b      	ldr	r3, [pc, #428]	@ (34182e20 <HAL_RCCEx_PeriphCLKConfig+0x56c>)
34182c74:	2240      	movs	r2, #64	@ 0x40
34182c76:	f8c3 2a48 	str.w	r2, [r3, #2632]	@ 0xa48
}
34182c7a:	e024      	b.n	34182cc6 <HAL_RCCEx_PeriphCLKConfig+0x412>
      MODIFY_REG(RCC->IC4CFGR, RCC_IC4CFGR_IC4SEL | RCC_IC4CFGR_IC4INT,
34182c7c:	4a68      	ldr	r2, [pc, #416]	@ (34182e20 <HAL_RCCEx_PeriphCLKConfig+0x56c>)
34182c7e:	f8d2 30d0 	ldr.w	r3, [r2, #208]	@ 0xd0
34182c82:	f023 5343 	bic.w	r3, r3, #817889280	@ 0x30c00000
34182c86:	f423 137c 	bic.w	r3, r3, #4128768	@ 0x3f0000
34182c8a:	6a21      	ldr	r1, [r4, #32]
34182c8c:	6a60      	ldr	r0, [r4, #36]	@ 0x24
34182c8e:	3801      	subs	r0, #1
34182c90:	ea41 4100 	orr.w	r1, r1, r0, lsl #16
34182c94:	430b      	orrs	r3, r1
34182c96:	f8c2 30d0 	str.w	r3, [r2, #208]	@ 0xd0
  WRITE_REG(RCC->DIVENSR, RCC_DIVENSR_IC4ENS);
34182c9a:	2308      	movs	r3, #8
34182c9c:	f8c2 3a40 	str.w	r3, [r2, #2624]	@ 0xa40
}
34182ca0:	e7ce      	b.n	34182c40 <HAL_RCCEx_PeriphCLKConfig+0x38c>
      MODIFY_REG(RCC->IC4CFGR, RCC_IC4CFGR_IC4SEL | RCC_IC4CFGR_IC4INT,
34182ca2:	4a5f      	ldr	r2, [pc, #380]	@ (34182e20 <HAL_RCCEx_PeriphCLKConfig+0x56c>)
34182ca4:	f8d2 30d0 	ldr.w	r3, [r2, #208]	@ 0xd0
34182ca8:	f023 5343 	bic.w	r3, r3, #817889280	@ 0x30c00000
34182cac:	f423 137c 	bic.w	r3, r3, #4128768	@ 0x3f0000
34182cb0:	6a21      	ldr	r1, [r4, #32]
34182cb2:	6a60      	ldr	r0, [r4, #36]	@ 0x24
34182cb4:	3801      	subs	r0, #1
34182cb6:	ea41 4100 	orr.w	r1, r1, r0, lsl #16
34182cba:	430b      	orrs	r3, r1
34182cbc:	f8c2 30d0 	str.w	r3, [r2, #208]	@ 0xd0
  WRITE_REG(RCC->DIVENSR, RCC_DIVENSR_IC4ENS);
34182cc0:	2308      	movs	r3, #8
34182cc2:	f8c2 3a40 	str.w	r3, [r2, #2624]	@ 0xa40
  LL_RCC_SetClockSource(ClkSource);
34182cc6:	f8d4 012c 	ldr.w	r0, [r4, #300]	@ 0x12c
34182cca:	f7ff fd05 	bl	341826d8 <LL_RCC_SetClockSource>
  if ((PeriphClkInit->PeriphClockSelection & RCC_PERIPHCLK_SDMMC2) == RCC_PERIPHCLK_SDMMC2)
34182cce:	6823      	ldr	r3, [r4, #0]
34182cd0:	2b00      	cmp	r3, #0
34182cd2:	da38      	bge.n	34182d46 <HAL_RCCEx_PeriphCLKConfig+0x492>
    if (PeriphClkInit->Sdmmc2ClockSelection == RCC_SDMMC2CLKSOURCE_IC4)
34182cd4:	f8d4 3130 	ldr.w	r3, [r4, #304]	@ 0x130
34182cd8:	4a55      	ldr	r2, [pc, #340]	@ (34182e30 <HAL_RCCEx_PeriphCLKConfig+0x57c>)
34182cda:	4293      	cmp	r3, r2
34182cdc:	d01d      	beq.n	34182d1a <HAL_RCCEx_PeriphCLKConfig+0x466>
    else if (PeriphClkInit->Sdmmc2ClockSelection == RCC_SDMMC2CLKSOURCE_IC5)
34182cde:	4a55      	ldr	r2, [pc, #340]	@ (34182e34 <HAL_RCCEx_PeriphCLKConfig+0x580>)
34182ce0:	4293      	cmp	r3, r2
34182ce2:	d041      	beq.n	34182d68 <HAL_RCCEx_PeriphCLKConfig+0x4b4>
    else if (PeriphClkInit->Sdmmc2ClockSelection == RCC_SDMMC2CLKSOURCE_CLKP)
34182ce4:	4a54      	ldr	r2, [pc, #336]	@ (34182e38 <HAL_RCCEx_PeriphCLKConfig+0x584>)
34182ce6:	4293      	cmp	r3, r2
34182ce8:	d129      	bne.n	34182d3e <HAL_RCCEx_PeriphCLKConfig+0x48a>
  WRITE_REG(RCC->MISCENSR, RCC_MISCENSR_PERENS);
34182cea:	4b4d      	ldr	r3, [pc, #308]	@ (34182e20 <HAL_RCCEx_PeriphCLKConfig+0x56c>)
34182cec:	2240      	movs	r2, #64	@ 0x40
34182cee:	f8c3 2a48 	str.w	r2, [r3, #2632]	@ 0xa48
}
34182cf2:	e024      	b.n	34182d3e <HAL_RCCEx_PeriphCLKConfig+0x48a>
      MODIFY_REG(RCC->IC5CFGR, RCC_IC5CFGR_IC5SEL | RCC_IC5CFGR_IC5INT,
34182cf4:	4a4a      	ldr	r2, [pc, #296]	@ (34182e20 <HAL_RCCEx_PeriphCLKConfig+0x56c>)
34182cf6:	f8d2 30d4 	ldr.w	r3, [r2, #212]	@ 0xd4
34182cfa:	f023 5343 	bic.w	r3, r3, #817889280	@ 0x30c00000
34182cfe:	f423 137c 	bic.w	r3, r3, #4128768	@ 0x3f0000
34182d02:	6aa1      	ldr	r1, [r4, #40]	@ 0x28
34182d04:	6ae0      	ldr	r0, [r4, #44]	@ 0x2c
34182d06:	3801      	subs	r0, #1
34182d08:	ea41 4100 	orr.w	r1, r1, r0, lsl #16
34182d0c:	430b      	orrs	r3, r1
34182d0e:	f8c2 30d4 	str.w	r3, [r2, #212]	@ 0xd4
  WRITE_REG(RCC->DIVENSR, RCC_DIVENSR_IC5ENS);
34182d12:	2310      	movs	r3, #16
34182d14:	f8c2 3a40 	str.w	r3, [r2, #2624]	@ 0xa40
}
34182d18:	e7d5      	b.n	34182cc6 <HAL_RCCEx_PeriphCLKConfig+0x412>
      MODIFY_REG(RCC->IC4CFGR, RCC_IC4CFGR_IC4SEL | RCC_IC4CFGR_IC4INT,
34182d1a:	4a41      	ldr	r2, [pc, #260]	@ (34182e20 <HAL_RCCEx_PeriphCLKConfig+0x56c>)
34182d1c:	f8d2 30d0 	ldr.w	r3, [r2, #208]	@ 0xd0
34182d20:	f023 5343 	bic.w	r3, r3, #817889280	@ 0x30c00000
34182d24:	f423 137c 	bic.w	r3, r3, #4128768	@ 0x3f0000
34182d28:	6a21      	ldr	r1, [r4, #32]
34182d2a:	6a60      	ldr	r0, [r4, #36]	@ 0x24
34182d2c:	3801      	subs	r0, #1
34182d2e:	ea41 4100 	orr.w	r1, r1, r0, lsl #16
34182d32:	430b      	orrs	r3, r1
34182d34:	f8c2 30d0 	str.w	r3, [r2, #208]	@ 0xd0
  WRITE_REG(RCC->DIVENSR, RCC_DIVENSR_IC4ENS);
34182d38:	2308      	movs	r3, #8
34182d3a:	f8c2 3a40 	str.w	r3, [r2, #2624]	@ 0xa40
  LL_RCC_SetClockSource(ClkSource);
34182d3e:	f8d4 0130 	ldr.w	r0, [r4, #304]	@ 0x130
34182d42:	f7ff fcc9 	bl	341826d8 <LL_RCC_SetClockSource>
  if ((PeriphClkInit->PeriphClockSelection & RCC_PERIPHCLK_ADC) == RCC_PERIPHCLK_ADC)
34182d46:	6823      	ldr	r3, [r4, #0]
34182d48:	f013 0f01 	tst.w	r3, #1
34182d4c:	d042      	beq.n	34182dd4 <HAL_RCCEx_PeriphCLKConfig+0x520>
    if (PeriphClkInit->AdcClockSelection == RCC_ADCCLKSOURCE_IC7)
34182d4e:	f8d4 30bc 	ldr.w	r3, [r4, #188]	@ 0xbc
34182d52:	2b20      	cmp	r3, #32
34182d54:	d01b      	beq.n	34182d8e <HAL_RCCEx_PeriphCLKConfig+0x4da>
    else if (PeriphClkInit->AdcClockSelection == RCC_ADCCLKSOURCE_IC8)
34182d56:	2b30      	cmp	r3, #48	@ 0x30
34182d58:	d04e      	beq.n	34182df8 <HAL_RCCEx_PeriphCLKConfig+0x544>
    else if (PeriphClkInit->AdcClockSelection == RCC_ADCCLKSOURCE_CLKP)
34182d5a:	2b10      	cmp	r3, #16
34182d5c:	d129      	bne.n	34182db2 <HAL_RCCEx_PeriphCLKConfig+0x4fe>
  WRITE_REG(RCC->MISCENSR, RCC_MISCENSR_PERENS);
34182d5e:	4b30      	ldr	r3, [pc, #192]	@ (34182e20 <HAL_RCCEx_PeriphCLKConfig+0x56c>)
34182d60:	2240      	movs	r2, #64	@ 0x40
34182d62:	f8c3 2a48 	str.w	r2, [r3, #2632]	@ 0xa48
}
34182d66:	e024      	b.n	34182db2 <HAL_RCCEx_PeriphCLKConfig+0x4fe>
      MODIFY_REG(RCC->IC5CFGR, RCC_IC5CFGR_IC5SEL | RCC_IC5CFGR_IC5INT,
34182d68:	4a2d      	ldr	r2, [pc, #180]	@ (34182e20 <HAL_RCCEx_PeriphCLKConfig+0x56c>)
34182d6a:	f8d2 30d4 	ldr.w	r3, [r2, #212]	@ 0xd4
34182d6e:	f023 5343 	bic.w	r3, r3, #817889280	@ 0x30c00000
34182d72:	f423 137c 	bic.w	r3, r3, #4128768	@ 0x3f0000
34182d76:	6aa1      	ldr	r1, [r4, #40]	@ 0x28
34182d78:	6ae0      	ldr	r0, [r4, #44]	@ 0x2c
34182d7a:	3801      	subs	r0, #1
34182d7c:	ea41 4100 	orr.w	r1, r1, r0, lsl #16
34182d80:	430b      	orrs	r3, r1
34182d82:	f8c2 30d4 	str.w	r3, [r2, #212]	@ 0xd4
  WRITE_REG(RCC->DIVENSR, RCC_DIVENSR_IC5ENS);
34182d86:	2310      	movs	r3, #16
34182d88:	f8c2 3a40 	str.w	r3, [r2, #2624]	@ 0xa40
}
34182d8c:	e7d7      	b.n	34182d3e <HAL_RCCEx_PeriphCLKConfig+0x48a>
      MODIFY_REG(RCC->IC7CFGR, RCC_IC7CFGR_IC7SEL | RCC_IC7CFGR_IC7INT,
34182d8e:	4a24      	ldr	r2, [pc, #144]	@ (34182e20 <HAL_RCCEx_PeriphCLKConfig+0x56c>)
34182d90:	f8d2 30dc 	ldr.w	r3, [r2, #220]	@ 0xdc
34182d94:	f023 5343 	bic.w	r3, r3, #817889280	@ 0x30c00000
34182d98:	f423 137c 	bic.w	r3, r3, #4128768	@ 0x3f0000
34182d9c:	6ba1      	ldr	r1, [r4, #56]	@ 0x38
34182d9e:	6be0      	ldr	r0, [r4, #60]	@ 0x3c
34182da0:	3801      	subs	r0, #1
34182da2:	ea41 4100 	orr.w	r1, r1, r0, lsl #16
34182da6:	430b      	orrs	r3, r1
34182da8:	f8c2 30dc 	str.w	r3, [r2, #220]	@ 0xdc
  WRITE_REG(RCC->DIVENSR, RCC_DIVENSR_IC7ENS);
34182dac:	2340      	movs	r3, #64	@ 0x40
34182dae:	f8c2 3a40 	str.w	r3, [r2, #2624]	@ 0xa40
    MODIFY_REG(RCC->CCIPR1, (RCC_CCIPR1_ADCPRE | RCC_CCIPR1_ADC12SEL), \
34182db2:	481b      	ldr	r0, [pc, #108]	@ (34182e20 <HAL_RCCEx_PeriphCLKConfig+0x56c>)
34182db4:	f8d0 3144 	ldr.w	r3, [r0, #324]	@ 0x144
34182db8:	f423 437f 	bic.w	r3, r3, #65280	@ 0xff00
34182dbc:	f023 0370 	bic.w	r3, r3, #112	@ 0x70
34182dc0:	f8d4 20c0 	ldr.w	r2, [r4, #192]	@ 0xc0
34182dc4:	1e51      	subs	r1, r2, #1
34182dc6:	f8d4 20bc 	ldr.w	r2, [r4, #188]	@ 0xbc
34182dca:	ea42 2201 	orr.w	r2, r2, r1, lsl #8
34182dce:	4313      	orrs	r3, r2
34182dd0:	f8c0 3144 	str.w	r3, [r0, #324]	@ 0x144
  if ((PeriphClkInit->PeriphClockSelection & RCC_PERIPHCLK_ADF1) == RCC_PERIPHCLK_ADF1)
34182dd4:	6823      	ldr	r3, [r4, #0]
34182dd6:	f013 0f02 	tst.w	r3, #2
34182dda:	d04b      	beq.n	34182e74 <HAL_RCCEx_PeriphCLKConfig+0x5c0>
    if (PeriphClkInit->Adf1ClockSelection == RCC_ADF1CLKSOURCE_IC7)
34182ddc:	f8d4 30c4 	ldr.w	r3, [r4, #196]	@ 0xc4
34182de0:	2b02      	cmp	r3, #2
34182de2:	d02b      	beq.n	34182e3c <HAL_RCCEx_PeriphCLKConfig+0x588>
    else if (PeriphClkInit->Adf1ClockSelection == RCC_ADF1CLKSOURCE_IC8)
34182de4:	2b03      	cmp	r3, #3
34182de6:	f000 8101 	beq.w	34182fec <HAL_RCCEx_PeriphCLKConfig+0x738>
    else if (PeriphClkInit->Adf1ClockSelection == RCC_ADF1CLKSOURCE_CLKP)
34182dea:	2b01      	cmp	r3, #1
34182dec:	d138      	bne.n	34182e60 <HAL_RCCEx_PeriphCLKConfig+0x5ac>
  WRITE_REG(RCC->MISCENSR, RCC_MISCENSR_PERENS);
34182dee:	4b0c      	ldr	r3, [pc, #48]	@ (34182e20 <HAL_RCCEx_PeriphCLKConfig+0x56c>)
34182df0:	2240      	movs	r2, #64	@ 0x40
34182df2:	f8c3 2a48 	str.w	r2, [r3, #2632]	@ 0xa48
}
34182df6:	e033      	b.n	34182e60 <HAL_RCCEx_PeriphCLKConfig+0x5ac>
      MODIFY_REG(RCC->IC8CFGR, RCC_IC8CFGR_IC8SEL | RCC_IC8CFGR_IC8INT,
34182df8:	4a09      	ldr	r2, [pc, #36]	@ (34182e20 <HAL_RCCEx_PeriphCLKConfig+0x56c>)
34182dfa:	f8d2 30e0 	ldr.w	r3, [r2, #224]	@ 0xe0
34182dfe:	f023 5343 	bic.w	r3, r3, #817889280	@ 0x30c00000
34182e02:	f423 137c 	bic.w	r3, r3, #4128768	@ 0x3f0000
34182e06:	6c21      	ldr	r1, [r4, #64]	@ 0x40
34182e08:	6c60      	ldr	r0, [r4, #68]	@ 0x44
34182e0a:	3801      	subs	r0, #1
34182e0c:	ea41 4100 	orr.w	r1, r1, r0, lsl #16
34182e10:	430b      	orrs	r3, r1
34182e12:	f8c2 30e0 	str.w	r3, [r2, #224]	@ 0xe0
  WRITE_REG(RCC->DIVENSR, RCC_DIVENSR_IC8ENS);
34182e16:	2380      	movs	r3, #128	@ 0x80
34182e18:	f8c2 3a40 	str.w	r3, [r2, #2624]	@ 0xa40
}
34182e1c:	e7c9      	b.n	34182db2 <HAL_RCCEx_PeriphCLKConfig+0x4fe>
34182e1e:	bf00      	nop
34182e20:	56028000 	.word	0x56028000
34182e24:	0302001c 	.word	0x0302001c
34182e28:	0303001c 	.word	0x0303001c
34182e2c:	0301001c 	.word	0x0301001c
34182e30:	0302041c 	.word	0x0302041c
34182e34:	0303041c 	.word	0x0303041c
34182e38:	0301041c 	.word	0x0301041c
      MODIFY_REG(RCC->IC7CFGR, RCC_IC7CFGR_IC7SEL | RCC_IC7CFGR_IC7INT,
34182e3c:	4ac8      	ldr	r2, [pc, #800]	@ (34183160 <HAL_RCCEx_PeriphCLKConfig+0x8ac>)
34182e3e:	f8d2 30dc 	ldr.w	r3, [r2, #220]	@ 0xdc
34182e42:	f023 5343 	bic.w	r3, r3, #817889280	@ 0x30c00000
34182e46:	f423 137c 	bic.w	r3, r3, #4128768	@ 0x3f0000
34182e4a:	6ba1      	ldr	r1, [r4, #56]	@ 0x38
34182e4c:	6be0      	ldr	r0, [r4, #60]	@ 0x3c
34182e4e:	3801      	subs	r0, #1
34182e50:	ea41 4100 	orr.w	r1, r1, r0, lsl #16
34182e54:	430b      	orrs	r3, r1
34182e56:	f8c2 30dc 	str.w	r3, [r2, #220]	@ 0xdc
  WRITE_REG(RCC->DIVENSR, RCC_DIVENSR_IC7ENS);
34182e5a:	2340      	movs	r3, #64	@ 0x40
34182e5c:	f8c2 3a40 	str.w	r3, [r2, #2624]	@ 0xa40
    __HAL_RCC_ADF1_CONFIG(PeriphClkInit->Adf1ClockSelection);
34182e60:	f8d4 30c4 	ldr.w	r3, [r4, #196]	@ 0xc4
  MODIFY_REG(RCC->CCIPR1, RCC_CCIPR1_ADF1SEL, ClkSource);
34182e64:	49be      	ldr	r1, [pc, #760]	@ (34183160 <HAL_RCCEx_PeriphCLKConfig+0x8ac>)
34182e66:	f8d1 2144 	ldr.w	r2, [r1, #324]	@ 0x144
34182e6a:	f022 0207 	bic.w	r2, r2, #7
34182e6e:	4313      	orrs	r3, r2
34182e70:	f8c1 3144 	str.w	r3, [r1, #324]	@ 0x144
  if ((PeriphClkInit->PeriphClockSelection & RCC_PERIPHCLK_CSI) == RCC_PERIPHCLK_CSI)
34182e74:	6823      	ldr	r3, [r4, #0]
34182e76:	f013 0f08 	tst.w	r3, #8
34182e7a:	d014      	beq.n	34182ea6 <HAL_RCCEx_PeriphCLKConfig+0x5f2>
    MODIFY_REG(RCC->IC18CFGR, RCC_IC18CFGR_IC18SEL | RCC_IC18CFGR_IC18INT,
34182e7c:	4ab8      	ldr	r2, [pc, #736]	@ (34183160 <HAL_RCCEx_PeriphCLKConfig+0x8ac>)
34182e7e:	f8d2 3108 	ldr.w	r3, [r2, #264]	@ 0x108
34182e82:	f023 5343 	bic.w	r3, r3, #817889280	@ 0x30c00000
34182e86:	f423 137c 	bic.w	r3, r3, #4128768	@ 0x3f0000
34182e8a:	f8d4 1090 	ldr.w	r1, [r4, #144]	@ 0x90
34182e8e:	f8d4 0094 	ldr.w	r0, [r4, #148]	@ 0x94
34182e92:	3801      	subs	r0, #1
34182e94:	ea41 4100 	orr.w	r1, r1, r0, lsl #16
34182e98:	430b      	orrs	r3, r1
34182e9a:	f8c2 3108 	str.w	r3, [r2, #264]	@ 0x108
  WRITE_REG(RCC->DIVENSR, RCC_DIVENSR_IC18ENS);
34182e9e:	f44f 3300 	mov.w	r3, #131072	@ 0x20000
34182ea2:	f8c2 3a40 	str.w	r3, [r2, #2624]	@ 0xa40
  if ((PeriphClkInit->PeriphClockSelection & RCC_PERIPHCLK_DCMIPP) == RCC_PERIPHCLK_DCMIPP)
34182ea6:	6823      	ldr	r3, [r4, #0]
34182ea8:	f013 0f10 	tst.w	r3, #16
34182eac:	d013      	beq.n	34182ed6 <HAL_RCCEx_PeriphCLKConfig+0x622>
    if (PeriphClkInit->DcmippClockSelection == RCC_DCMIPPCLKSOURCE_IC17)
34182eae:	f8d4 30c8 	ldr.w	r3, [r4, #200]	@ 0xc8
34182eb2:	f5b3 1f00 	cmp.w	r3, #2097152	@ 0x200000
34182eb6:	f000 80ac 	beq.w	34183012 <HAL_RCCEx_PeriphCLKConfig+0x75e>
    else if (PeriphClkInit->DcmippClockSelection == RCC_DCMIPPCLKSOURCE_CLKP)
34182eba:	f5b3 1f80 	cmp.w	r3, #1048576	@ 0x100000
34182ebe:	f000 80be 	beq.w	3418303e <HAL_RCCEx_PeriphCLKConfig+0x78a>
    __HAL_RCC_DCMIPP_CONFIG(PeriphClkInit->DcmippClockSelection);
34182ec2:	f8d4 30c8 	ldr.w	r3, [r4, #200]	@ 0xc8
  MODIFY_REG(RCC->CCIPR1, RCC_CCIPR1_DCMIPPSEL, ClkSource);
34182ec6:	49a6      	ldr	r1, [pc, #664]	@ (34183160 <HAL_RCCEx_PeriphCLKConfig+0x8ac>)
34182ec8:	f8d1 2144 	ldr.w	r2, [r1, #324]	@ 0x144
34182ecc:	f422 1240 	bic.w	r2, r2, #3145728	@ 0x300000
34182ed0:	4313      	orrs	r3, r2
34182ed2:	f8c1 3144 	str.w	r3, [r1, #324]	@ 0x144
  if ((PeriphClkInit->PeriphClockSelection & RCC_PERIPHCLK_ETH1) == RCC_PERIPHCLK_ETH1)
34182ed6:	6823      	ldr	r3, [r4, #0]
34182ed8:	f013 0f20 	tst.w	r3, #32
34182edc:	d013      	beq.n	34182f06 <HAL_RCCEx_PeriphCLKConfig+0x652>
    if (PeriphClkInit->Eth1ClockSelection == RCC_ETH1CLKSOURCE_IC12)
34182ede:	f8d4 30cc 	ldr.w	r3, [r4, #204]	@ 0xcc
34182ee2:	f5b3 5f00 	cmp.w	r3, #8192	@ 0x2000
34182ee6:	f000 80af 	beq.w	34183048 <HAL_RCCEx_PeriphCLKConfig+0x794>
    else if (PeriphClkInit->Eth1ClockSelection == RCC_ETH1CLKSOURCE_CLKP)
34182eea:	f5b3 5f80 	cmp.w	r3, #4096	@ 0x1000
34182eee:	f000 80bf 	beq.w	34183070 <HAL_RCCEx_PeriphCLKConfig+0x7bc>
    __HAL_RCC_ETH1_CONFIG(PeriphClkInit->Eth1ClockSelection);
34182ef2:	f8d4 30cc 	ldr.w	r3, [r4, #204]	@ 0xcc
  MODIFY_REG(RCC->CCIPR2, RCC_CCIPR2_ETH1CLKSEL, ClkSource);
34182ef6:	499a      	ldr	r1, [pc, #616]	@ (34183160 <HAL_RCCEx_PeriphCLKConfig+0x8ac>)
34182ef8:	f8d1 2148 	ldr.w	r2, [r1, #328]	@ 0x148
34182efc:	f422 5240 	bic.w	r2, r2, #12288	@ 0x3000
34182f00:	4313      	orrs	r3, r2
34182f02:	f8c1 3148 	str.w	r3, [r1, #328]	@ 0x148
  if ((PeriphClkInit->PeriphClockSelection & RCC_PERIPHCLK_ETH1PHY) == RCC_PERIPHCLK_ETH1PHY)
34182f06:	6823      	ldr	r3, [r4, #0]
34182f08:	f013 0f40 	tst.w	r3, #64	@ 0x40
34182f0c:	d009      	beq.n	34182f22 <HAL_RCCEx_PeriphCLKConfig+0x66e>
    __HAL_RCC_ETH1PHY_CONFIG(PeriphClkInit->Eth1PhyInterfaceSelection);
34182f0e:	f8d4 30d0 	ldr.w	r3, [r4, #208]	@ 0xd0
  MODIFY_REG(RCC->CCIPR2, RCC_CCIPR2_ETH1SEL, Interface);
34182f12:	4993      	ldr	r1, [pc, #588]	@ (34183160 <HAL_RCCEx_PeriphCLKConfig+0x8ac>)
34182f14:	f8d1 2148 	ldr.w	r2, [r1, #328]	@ 0x148
34182f18:	f422 22e0 	bic.w	r2, r2, #458752	@ 0x70000
34182f1c:	4313      	orrs	r3, r2
34182f1e:	f8c1 3148 	str.w	r3, [r1, #328]	@ 0x148
  if ((PeriphClkInit->PeriphClockSelection & RCC_PERIPHCLK_ETH1RX) == RCC_PERIPHCLK_ETH1RX)
34182f22:	6823      	ldr	r3, [r4, #0]
34182f24:	f013 0f80 	tst.w	r3, #128	@ 0x80
34182f28:	d009      	beq.n	34182f3e <HAL_RCCEx_PeriphCLKConfig+0x68a>
    __HAL_RCC_ETH1RX_CONFIG(PeriphClkInit->Eth1RxClockSelection);
34182f2a:	f8d4 30d4 	ldr.w	r3, [r4, #212]	@ 0xd4
  MODIFY_REG(RCC->CCIPR2, RCC_CCIPR2_ETH1REFCLKSEL, ClkSource);
34182f2e:	498c      	ldr	r1, [pc, #560]	@ (34183160 <HAL_RCCEx_PeriphCLKConfig+0x8ac>)
34182f30:	f8d1 2148 	ldr.w	r2, [r1, #328]	@ 0x148
34182f34:	f422 1280 	bic.w	r2, r2, #1048576	@ 0x100000
34182f38:	4313      	orrs	r3, r2
34182f3a:	f8c1 3148 	str.w	r3, [r1, #328]	@ 0x148
  if ((PeriphClkInit->PeriphClockSelection & RCC_PERIPHCLK_ETH1TX) == RCC_PERIPHCLK_ETH1TX)
34182f3e:	6823      	ldr	r3, [r4, #0]
34182f40:	f413 7f80 	tst.w	r3, #256	@ 0x100
34182f44:	d009      	beq.n	34182f5a <HAL_RCCEx_PeriphCLKConfig+0x6a6>
    __HAL_RCC_ETH1TX_CONFIG(PeriphClkInit->Eth1TxClockSelection);
34182f46:	f8d4 30d8 	ldr.w	r3, [r4, #216]	@ 0xd8
  MODIFY_REG(RCC->CCIPR2, RCC_CCIPR2_ETH1GTXCLKSEL, ClkSource);
34182f4a:	4985      	ldr	r1, [pc, #532]	@ (34183160 <HAL_RCCEx_PeriphCLKConfig+0x8ac>)
34182f4c:	f8d1 2148 	ldr.w	r2, [r1, #328]	@ 0x148
34182f50:	f022 7280 	bic.w	r2, r2, #16777216	@ 0x1000000
34182f54:	4313      	orrs	r3, r2
34182f56:	f8c1 3148 	str.w	r3, [r1, #328]	@ 0x148
  if ((PeriphClkInit->PeriphClockSelection & RCC_PERIPHCLK_ETH1PTP) == RCC_PERIPHCLK_ETH1PTP)
34182f5a:	6823      	ldr	r3, [r4, #0]
34182f5c:	f413 7f00 	tst.w	r3, #512	@ 0x200
34182f60:	d016      	beq.n	34182f90 <HAL_RCCEx_PeriphCLKConfig+0x6dc>
    if (PeriphClkInit->Eth1PtpClockSelection == RCC_ETH1PTPCLKSOURCE_IC13)
34182f62:	f8d4 30dc 	ldr.w	r3, [r4, #220]	@ 0xdc
34182f66:	2b02      	cmp	r3, #2
34182f68:	f000 8087 	beq.w	3418307a <HAL_RCCEx_PeriphCLKConfig+0x7c6>
    else if (PeriphClkInit->Eth1PtpClockSelection == RCC_ETH1PTPCLKSOURCE_CLKP)
34182f6c:	2b01      	cmp	r3, #1
34182f6e:	f000 8098 	beq.w	341830a2 <HAL_RCCEx_PeriphCLKConfig+0x7ee>
    MODIFY_REG(RCC->CCIPR2, (RCC_CCIPR2_ETH1PTPDIV | RCC_CCIPR2_ETH1PTPSEL), \
34182f72:	487b      	ldr	r0, [pc, #492]	@ (34183160 <HAL_RCCEx_PeriphCLKConfig+0x8ac>)
34182f74:	f8d0 3148 	ldr.w	r3, [r0, #328]	@ 0x148
34182f78:	f023 03f3 	bic.w	r3, r3, #243	@ 0xf3
34182f7c:	f8d4 20e0 	ldr.w	r2, [r4, #224]	@ 0xe0
34182f80:	1e51      	subs	r1, r2, #1
34182f82:	f8d4 20dc 	ldr.w	r2, [r4, #220]	@ 0xdc
34182f86:	ea42 1201 	orr.w	r2, r2, r1, lsl #4
34182f8a:	4313      	orrs	r3, r2
34182f8c:	f8c0 3148 	str.w	r3, [r0, #328]	@ 0x148
  if ((PeriphClkInit->PeriphClockSelection & RCC_PERIPHCLK_FDCAN) == RCC_PERIPHCLK_FDCAN)
34182f90:	6823      	ldr	r3, [r4, #0]
34182f92:	f413 6f80 	tst.w	r3, #1024	@ 0x400
34182f96:	d011      	beq.n	34182fbc <HAL_RCCEx_PeriphCLKConfig+0x708>
    if (PeriphClkInit->FdcanClockSelection == RCC_FDCANCLKSOURCE_IC19)
34182f98:	f8d4 30e4 	ldr.w	r3, [r4, #228]	@ 0xe4
34182f9c:	2b02      	cmp	r3, #2
34182f9e:	f000 8085 	beq.w	341830ac <HAL_RCCEx_PeriphCLKConfig+0x7f8>
    else if (PeriphClkInit->FdcanClockSelection == RCC_FDCANCLKSOURCE_CLKP)
34182fa2:	2b01      	cmp	r3, #1
34182fa4:	f000 8098 	beq.w	341830d8 <HAL_RCCEx_PeriphCLKConfig+0x824>
    __HAL_RCC_FDCAN_CONFIG(PeriphClkInit->FdcanClockSelection);
34182fa8:	f8d4 30e4 	ldr.w	r3, [r4, #228]	@ 0xe4
  MODIFY_REG(RCC->CCIPR3, RCC_CCIPR3_FDCANSEL, ClkSource);
34182fac:	496c      	ldr	r1, [pc, #432]	@ (34183160 <HAL_RCCEx_PeriphCLKConfig+0x8ac>)
34182fae:	f8d1 214c 	ldr.w	r2, [r1, #332]	@ 0x14c
34182fb2:	f022 0203 	bic.w	r2, r2, #3
34182fb6:	4313      	orrs	r3, r2
34182fb8:	f8c1 314c 	str.w	r3, [r1, #332]	@ 0x14c
  if ((PeriphClkInit->PeriphClockSelection & RCC_PERIPHCLK_I2C1) == RCC_PERIPHCLK_I2C1)
34182fbc:	6823      	ldr	r3, [r4, #0]
34182fbe:	f413 5f80 	tst.w	r3, #4096	@ 0x1000
34182fc2:	f000 80a5 	beq.w	34183110 <HAL_RCCEx_PeriphCLKConfig+0x85c>
    if (PeriphClkInit->I2c1ClockSelection == RCC_I2C1CLKSOURCE_IC10)
34182fc6:	f8d4 30e8 	ldr.w	r3, [r4, #232]	@ 0xe8
34182fca:	4a66      	ldr	r2, [pc, #408]	@ (34183164 <HAL_RCCEx_PeriphCLKConfig+0x8b0>)
34182fcc:	4293      	cmp	r3, r2
34182fce:	f000 8088 	beq.w	341830e2 <HAL_RCCEx_PeriphCLKConfig+0x82e>
    else if (PeriphClkInit->I2c1ClockSelection == RCC_I2C1CLKSOURCE_IC15)
34182fd2:	4a65      	ldr	r2, [pc, #404]	@ (34183168 <HAL_RCCEx_PeriphCLKConfig+0x8b4>)
34182fd4:	4293      	cmp	r3, r2
34182fd6:	f000 80af 	beq.w	34183138 <HAL_RCCEx_PeriphCLKConfig+0x884>
    else if (PeriphClkInit->I2c1ClockSelection == RCC_I2C1CLKSOURCE_CLKP)
34182fda:	4a64      	ldr	r2, [pc, #400]	@ (3418316c <HAL_RCCEx_PeriphCLKConfig+0x8b8>)
34182fdc:	4293      	cmp	r3, r2
34182fde:	f040 8093 	bne.w	34183108 <HAL_RCCEx_PeriphCLKConfig+0x854>
  WRITE_REG(RCC->MISCENSR, RCC_MISCENSR_PERENS);
34182fe2:	4b5f      	ldr	r3, [pc, #380]	@ (34183160 <HAL_RCCEx_PeriphCLKConfig+0x8ac>)
34182fe4:	2240      	movs	r2, #64	@ 0x40
34182fe6:	f8c3 2a48 	str.w	r2, [r3, #2632]	@ 0xa48
}
34182fea:	e08d      	b.n	34183108 <HAL_RCCEx_PeriphCLKConfig+0x854>
      MODIFY_REG(RCC->IC8CFGR, RCC_IC8CFGR_IC8SEL | RCC_IC8CFGR_IC8INT,
34182fec:	4a5c      	ldr	r2, [pc, #368]	@ (34183160 <HAL_RCCEx_PeriphCLKConfig+0x8ac>)
34182fee:	f8d2 30e0 	ldr.w	r3, [r2, #224]	@ 0xe0
34182ff2:	f023 5343 	bic.w	r3, r3, #817889280	@ 0x30c00000
34182ff6:	f423 137c 	bic.w	r3, r3, #4128768	@ 0x3f0000
34182ffa:	6c21      	ldr	r1, [r4, #64]	@ 0x40
34182ffc:	6c60      	ldr	r0, [r4, #68]	@ 0x44
34182ffe:	3801      	subs	r0, #1
34183000:	ea41 4100 	orr.w	r1, r1, r0, lsl #16
34183004:	430b      	orrs	r3, r1
34183006:	f8c2 30e0 	str.w	r3, [r2, #224]	@ 0xe0
  WRITE_REG(RCC->DIVENSR, RCC_DIVENSR_IC8ENS);
3418300a:	2380      	movs	r3, #128	@ 0x80
3418300c:	f8c2 3a40 	str.w	r3, [r2, #2624]	@ 0xa40
}
34183010:	e726      	b.n	34182e60 <HAL_RCCEx_PeriphCLKConfig+0x5ac>
      MODIFY_REG(RCC->IC17CFGR, RCC_IC17CFGR_IC17SEL | RCC_IC17CFGR_IC17INT,
34183012:	4a53      	ldr	r2, [pc, #332]	@ (34183160 <HAL_RCCEx_PeriphCLKConfig+0x8ac>)
34183014:	f8d2 3104 	ldr.w	r3, [r2, #260]	@ 0x104
34183018:	f023 5343 	bic.w	r3, r3, #817889280	@ 0x30c00000
3418301c:	f423 137c 	bic.w	r3, r3, #4128768	@ 0x3f0000
34183020:	f8d4 1088 	ldr.w	r1, [r4, #136]	@ 0x88
34183024:	f8d4 008c 	ldr.w	r0, [r4, #140]	@ 0x8c
34183028:	3801      	subs	r0, #1
3418302a:	ea41 4100 	orr.w	r1, r1, r0, lsl #16
3418302e:	430b      	orrs	r3, r1
34183030:	f8c2 3104 	str.w	r3, [r2, #260]	@ 0x104
  WRITE_REG(RCC->DIVENSR, RCC_DIVENSR_IC17ENS);
34183034:	f44f 3380 	mov.w	r3, #65536	@ 0x10000
34183038:	f8c2 3a40 	str.w	r3, [r2, #2624]	@ 0xa40
}
3418303c:	e741      	b.n	34182ec2 <HAL_RCCEx_PeriphCLKConfig+0x60e>
  WRITE_REG(RCC->MISCENSR, RCC_MISCENSR_PERENS);
3418303e:	4b48      	ldr	r3, [pc, #288]	@ (34183160 <HAL_RCCEx_PeriphCLKConfig+0x8ac>)
34183040:	2240      	movs	r2, #64	@ 0x40
34183042:	f8c3 2a48 	str.w	r2, [r3, #2632]	@ 0xa48
}
34183046:	e73c      	b.n	34182ec2 <HAL_RCCEx_PeriphCLKConfig+0x60e>
      MODIFY_REG(RCC->IC12CFGR, RCC_IC12CFGR_IC12SEL | RCC_IC12CFGR_IC12INT,
34183048:	4a45      	ldr	r2, [pc, #276]	@ (34183160 <HAL_RCCEx_PeriphCLKConfig+0x8ac>)
3418304a:	f8d2 30f0 	ldr.w	r3, [r2, #240]	@ 0xf0
3418304e:	f023 5343 	bic.w	r3, r3, #817889280	@ 0x30c00000
34183052:	f423 137c 	bic.w	r3, r3, #4128768	@ 0x3f0000
34183056:	6e21      	ldr	r1, [r4, #96]	@ 0x60
34183058:	6e60      	ldr	r0, [r4, #100]	@ 0x64
3418305a:	3801      	subs	r0, #1
3418305c:	ea41 4100 	orr.w	r1, r1, r0, lsl #16
34183060:	430b      	orrs	r3, r1
34183062:	f8c2 30f0 	str.w	r3, [r2, #240]	@ 0xf0
  WRITE_REG(RCC->DIVENSR, RCC_DIVENSR_IC12ENS);
34183066:	f44f 6300 	mov.w	r3, #2048	@ 0x800
3418306a:	f8c2 3a40 	str.w	r3, [r2, #2624]	@ 0xa40
}
3418306e:	e740      	b.n	34182ef2 <HAL_RCCEx_PeriphCLKConfig+0x63e>
  WRITE_REG(RCC->MISCENSR, RCC_MISCENSR_PERENS);
34183070:	4b3b      	ldr	r3, [pc, #236]	@ (34183160 <HAL_RCCEx_PeriphCLKConfig+0x8ac>)
34183072:	2240      	movs	r2, #64	@ 0x40
34183074:	f8c3 2a48 	str.w	r2, [r3, #2632]	@ 0xa48
}
34183078:	e73b      	b.n	34182ef2 <HAL_RCCEx_PeriphCLKConfig+0x63e>
      MODIFY_REG(RCC->IC13CFGR, RCC_IC13CFGR_IC13SEL | RCC_IC13CFGR_IC13INT,
3418307a:	4a39      	ldr	r2, [pc, #228]	@ (34183160 <HAL_RCCEx_PeriphCLKConfig+0x8ac>)
3418307c:	f8d2 30f4 	ldr.w	r3, [r2, #244]	@ 0xf4
34183080:	f023 5343 	bic.w	r3, r3, #817889280	@ 0x30c00000
34183084:	f423 137c 	bic.w	r3, r3, #4128768	@ 0x3f0000
34183088:	6ea1      	ldr	r1, [r4, #104]	@ 0x68
3418308a:	6ee0      	ldr	r0, [r4, #108]	@ 0x6c
3418308c:	3801      	subs	r0, #1
3418308e:	ea41 4100 	orr.w	r1, r1, r0, lsl #16
34183092:	430b      	orrs	r3, r1
34183094:	f8c2 30f4 	str.w	r3, [r2, #244]	@ 0xf4
  WRITE_REG(RCC->DIVENSR, RCC_DIVENSR_IC13ENS);
34183098:	f44f 5380 	mov.w	r3, #4096	@ 0x1000
3418309c:	f8c2 3a40 	str.w	r3, [r2, #2624]	@ 0xa40
}
341830a0:	e767      	b.n	34182f72 <HAL_RCCEx_PeriphCLKConfig+0x6be>
  WRITE_REG(RCC->MISCENSR, RCC_MISCENSR_PERENS);
341830a2:	4b2f      	ldr	r3, [pc, #188]	@ (34183160 <HAL_RCCEx_PeriphCLKConfig+0x8ac>)
341830a4:	2240      	movs	r2, #64	@ 0x40
341830a6:	f8c3 2a48 	str.w	r2, [r3, #2632]	@ 0xa48
}
341830aa:	e762      	b.n	34182f72 <HAL_RCCEx_PeriphCLKConfig+0x6be>
      MODIFY_REG(RCC->IC19CFGR, RCC_IC19CFGR_IC19SEL | RCC_IC19CFGR_IC19INT,
341830ac:	4a2c      	ldr	r2, [pc, #176]	@ (34183160 <HAL_RCCEx_PeriphCLKConfig+0x8ac>)
341830ae:	f8d2 310c 	ldr.w	r3, [r2, #268]	@ 0x10c
341830b2:	f023 5343 	bic.w	r3, r3, #817889280	@ 0x30c00000
341830b6:	f423 137c 	bic.w	r3, r3, #4128768	@ 0x3f0000
341830ba:	f8d4 1098 	ldr.w	r1, [r4, #152]	@ 0x98
341830be:	f8d4 009c 	ldr.w	r0, [r4, #156]	@ 0x9c
341830c2:	3801      	subs	r0, #1
341830c4:	ea41 4100 	orr.w	r1, r1, r0, lsl #16
341830c8:	430b      	orrs	r3, r1
341830ca:	f8c2 310c 	str.w	r3, [r2, #268]	@ 0x10c
  WRITE_REG(RCC->DIVENSR, RCC_DIVENSR_IC19ENS);
341830ce:	f44f 2380 	mov.w	r3, #262144	@ 0x40000
341830d2:	f8c2 3a40 	str.w	r3, [r2, #2624]	@ 0xa40
}
341830d6:	e767      	b.n	34182fa8 <HAL_RCCEx_PeriphCLKConfig+0x6f4>
  WRITE_REG(RCC->MISCENSR, RCC_MISCENSR_PERENS);
341830d8:	4b21      	ldr	r3, [pc, #132]	@ (34183160 <HAL_RCCEx_PeriphCLKConfig+0x8ac>)
341830da:	2240      	movs	r2, #64	@ 0x40
341830dc:	f8c3 2a48 	str.w	r2, [r3, #2632]	@ 0xa48
}
341830e0:	e762      	b.n	34182fa8 <HAL_RCCEx_PeriphCLKConfig+0x6f4>
      MODIFY_REG(RCC->IC10CFGR, RCC_IC10CFGR_IC10SEL | RCC_IC10CFGR_IC10INT,
341830e2:	4a1f      	ldr	r2, [pc, #124]	@ (34183160 <HAL_RCCEx_PeriphCLKConfig+0x8ac>)
341830e4:	f8d2 30e8 	ldr.w	r3, [r2, #232]	@ 0xe8
341830e8:	f023 5343 	bic.w	r3, r3, #817889280	@ 0x30c00000
341830ec:	f423 137c 	bic.w	r3, r3, #4128768	@ 0x3f0000
341830f0:	6d21      	ldr	r1, [r4, #80]	@ 0x50
341830f2:	6d60      	ldr	r0, [r4, #84]	@ 0x54
341830f4:	3801      	subs	r0, #1
341830f6:	ea41 4100 	orr.w	r1, r1, r0, lsl #16
341830fa:	430b      	orrs	r3, r1
341830fc:	f8c2 30e8 	str.w	r3, [r2, #232]	@ 0xe8
  WRITE_REG(RCC->DIVENSR, RCC_DIVENSR_IC10ENS);
34183100:	f44f 7300 	mov.w	r3, #512	@ 0x200
34183104:	f8c2 3a40 	str.w	r3, [r2, #2624]	@ 0xa40
  LL_RCC_SetClockSource(ClkSource);
34183108:	f8d4 00e8 	ldr.w	r0, [r4, #232]	@ 0xe8
3418310c:	f7ff fae4 	bl	341826d8 <LL_RCC_SetClockSource>
  if ((PeriphClkInit->PeriphClockSelection & RCC_PERIPHCLK_I2C2) == RCC_PERIPHCLK_I2C2)
34183110:	6823      	ldr	r3, [r4, #0]
34183112:	f413 5f00 	tst.w	r3, #8192	@ 0x2000
34183116:	d048      	beq.n	341831aa <HAL_RCCEx_PeriphCLKConfig+0x8f6>
    if (PeriphClkInit->I2c2ClockSelection == RCC_I2C2CLKSOURCE_IC10)
34183118:	f8d4 30ec 	ldr.w	r3, [r4, #236]	@ 0xec
3418311c:	4a14      	ldr	r2, [pc, #80]	@ (34183170 <HAL_RCCEx_PeriphCLKConfig+0x8bc>)
3418311e:	4293      	cmp	r3, r2
34183120:	d02c      	beq.n	3418317c <HAL_RCCEx_PeriphCLKConfig+0x8c8>
    else if (PeriphClkInit->I2c2ClockSelection == RCC_I2C2CLKSOURCE_IC15)
34183122:	4a14      	ldr	r2, [pc, #80]	@ (34183174 <HAL_RCCEx_PeriphCLKConfig+0x8c0>)
34183124:	4293      	cmp	r3, r2
34183126:	d054      	beq.n	341831d2 <HAL_RCCEx_PeriphCLKConfig+0x91e>
    else if (PeriphClkInit->I2c2ClockSelection == RCC_I2C2CLKSOURCE_CLKP)
34183128:	4a13      	ldr	r2, [pc, #76]	@ (34183178 <HAL_RCCEx_PeriphCLKConfig+0x8c4>)
3418312a:	4293      	cmp	r3, r2
3418312c:	d139      	bne.n	341831a2 <HAL_RCCEx_PeriphCLKConfig+0x8ee>
  WRITE_REG(RCC->MISCENSR, RCC_MISCENSR_PERENS);
3418312e:	4b0c      	ldr	r3, [pc, #48]	@ (34183160 <HAL_RCCEx_PeriphCLKConfig+0x8ac>)
34183130:	2240      	movs	r2, #64	@ 0x40
34183132:	f8c3 2a48 	str.w	r2, [r3, #2632]	@ 0xa48
}
34183136:	e034      	b.n	341831a2 <HAL_RCCEx_PeriphCLKConfig+0x8ee>
      MODIFY_REG(RCC->IC15CFGR, RCC_IC15CFGR_IC15SEL | RCC_IC15CFGR_IC15INT,
34183138:	4a09      	ldr	r2, [pc, #36]	@ (34183160 <HAL_RCCEx_PeriphCLKConfig+0x8ac>)
3418313a:	f8d2 30fc 	ldr.w	r3, [r2, #252]	@ 0xfc
3418313e:	f023 5343 	bic.w	r3, r3, #817889280	@ 0x30c00000
34183142:	f423 137c 	bic.w	r3, r3, #4128768	@ 0x3f0000
34183146:	6fa1      	ldr	r1, [r4, #120]	@ 0x78
34183148:	6fe0      	ldr	r0, [r4, #124]	@ 0x7c
3418314a:	3801      	subs	r0, #1
3418314c:	ea41 4100 	orr.w	r1, r1, r0, lsl #16
34183150:	430b      	orrs	r3, r1
34183152:	f8c2 30fc 	str.w	r3, [r2, #252]	@ 0xfc
  WRITE_REG(RCC->DIVENSR, RCC_DIVENSR_IC15ENS);
34183156:	f44f 4380 	mov.w	r3, #16384	@ 0x4000
3418315a:	f8c2 3a40 	str.w	r3, [r2, #2624]	@ 0xa40
}
3418315e:	e7d3      	b.n	34183108 <HAL_RCCEx_PeriphCLKConfig+0x854>
34183160:	56028000 	.word	0x56028000
34183164:	0702000c 	.word	0x0702000c
34183168:	0703000c 	.word	0x0703000c
3418316c:	0701000c 	.word	0x0701000c
34183170:	0702040c 	.word	0x0702040c
34183174:	0703040c 	.word	0x0703040c
34183178:	0701040c 	.word	0x0701040c
      MODIFY_REG(RCC->IC10CFGR, RCC_IC10CFGR_IC10SEL | RCC_IC10CFGR_IC10INT,
3418317c:	4a7e      	ldr	r2, [pc, #504]	@ (34183378 <HAL_RCCEx_PeriphCLKConfig+0xac4>)
3418317e:	f8d2 30e8 	ldr.w	r3, [r2, #232]	@ 0xe8
34183182:	f023 5343 	bic.w	r3, r3, #817889280	@ 0x30c00000
34183186:	f423 137c 	bic.w	r3, r3, #4128768	@ 0x3f0000
3418318a:	6d21      	ldr	r1, [r4, #80]	@ 0x50
3418318c:	6d60      	ldr	r0, [r4, #84]	@ 0x54
3418318e:	3801      	subs	r0, #1
34183190:	ea41 4100 	orr.w	r1, r1, r0, lsl #16
34183194:	430b      	orrs	r3, r1
34183196:	f8c2 30e8 	str.w	r3, [r2, #232]	@ 0xe8
  WRITE_REG(RCC->DIVENSR, RCC_DIVENSR_IC10ENS);
3418319a:	f44f 7300 	mov.w	r3, #512	@ 0x200
3418319e:	f8c2 3a40 	str.w	r3, [r2, #2624]	@ 0xa40
  LL_RCC_SetClockSource(ClkSource);
341831a2:	f8d4 00ec 	ldr.w	r0, [r4, #236]	@ 0xec
341831a6:	f7ff fa97 	bl	341826d8 <LL_RCC_SetClockSource>
  if ((PeriphClkInit->PeriphClockSelection & RCC_PERIPHCLK_I2C3) == RCC_PERIPHCLK_I2C3)
341831aa:	6823      	ldr	r3, [r4, #0]
341831ac:	f413 4f80 	tst.w	r3, #16384	@ 0x4000
341831b0:	d03a      	beq.n	34183228 <HAL_RCCEx_PeriphCLKConfig+0x974>
    if (PeriphClkInit->I2c3ClockSelection == RCC_I2C3CLKSOURCE_IC10)
341831b2:	f8d4 30f0 	ldr.w	r3, [r4, #240]	@ 0xf0
341831b6:	4a71      	ldr	r2, [pc, #452]	@ (3418337c <HAL_RCCEx_PeriphCLKConfig+0xac8>)
341831b8:	4293      	cmp	r3, r2
341831ba:	d01e      	beq.n	341831fa <HAL_RCCEx_PeriphCLKConfig+0x946>
    else if (PeriphClkInit->I2c3ClockSelection == RCC_I2C3CLKSOURCE_IC15)
341831bc:	4a70      	ldr	r2, [pc, #448]	@ (34183380 <HAL_RCCEx_PeriphCLKConfig+0xacc>)
341831be:	4293      	cmp	r3, r2
341831c0:	d046      	beq.n	34183250 <HAL_RCCEx_PeriphCLKConfig+0x99c>
    else if (PeriphClkInit->I2c3ClockSelection == RCC_I2C3CLKSOURCE_CLKP)
341831c2:	4a70      	ldr	r2, [pc, #448]	@ (34183384 <HAL_RCCEx_PeriphCLKConfig+0xad0>)
341831c4:	4293      	cmp	r3, r2
341831c6:	d12b      	bne.n	34183220 <HAL_RCCEx_PeriphCLKConfig+0x96c>
  WRITE_REG(RCC->MISCENSR, RCC_MISCENSR_PERENS);
341831c8:	4b6b      	ldr	r3, [pc, #428]	@ (34183378 <HAL_RCCEx_PeriphCLKConfig+0xac4>)
341831ca:	2240      	movs	r2, #64	@ 0x40
341831cc:	f8c3 2a48 	str.w	r2, [r3, #2632]	@ 0xa48
}
341831d0:	e026      	b.n	34183220 <HAL_RCCEx_PeriphCLKConfig+0x96c>
      MODIFY_REG(RCC->IC15CFGR, RCC_IC15CFGR_IC15SEL | RCC_IC15CFGR_IC15INT,
341831d2:	4a69      	ldr	r2, [pc, #420]	@ (34183378 <HAL_RCCEx_PeriphCLKConfig+0xac4>)
341831d4:	f8d2 30fc 	ldr.w	r3, [r2, #252]	@ 0xfc
341831d8:	f023 5343 	bic.w	r3, r3, #817889280	@ 0x30c00000
341831dc:	f423 137c 	bic.w	r3, r3, #4128768	@ 0x3f0000
341831e0:	6fa1      	ldr	r1, [r4, #120]	@ 0x78
341831e2:	6fe0      	ldr	r0, [r4, #124]	@ 0x7c
341831e4:	3801      	subs	r0, #1
341831e6:	ea41 4100 	orr.w	r1, r1, r0, lsl #16
341831ea:	430b      	orrs	r3, r1
341831ec:	f8c2 30fc 	str.w	r3, [r2, #252]	@ 0xfc
  WRITE_REG(RCC->DIVENSR, RCC_DIVENSR_IC15ENS);
341831f0:	f44f 4380 	mov.w	r3, #16384	@ 0x4000
341831f4:	f8c2 3a40 	str.w	r3, [r2, #2624]	@ 0xa40
}
341831f8:	e7d3      	b.n	341831a2 <HAL_RCCEx_PeriphCLKConfig+0x8ee>
      MODIFY_REG(RCC->IC10CFGR, RCC_IC10CFGR_IC10SEL | RCC_IC10CFGR_IC10INT,
341831fa:	4a5f      	ldr	r2, [pc, #380]	@ (34183378 <HAL_RCCEx_PeriphCLKConfig+0xac4>)
341831fc:	f8d2 30e8 	ldr.w	r3, [r2, #232]	@ 0xe8
34183200:	f023 5343 	bic.w	r3, r3, #817889280	@ 0x30c00000
34183204:	f423 137c 	bic.w	r3, r3, #4128768	@ 0x3f0000
34183208:	6d21      	ldr	r1, [r4, #80]	@ 0x50
3418320a:	6d60      	ldr	r0, [r4, #84]	@ 0x54
3418320c:	3801      	subs	r0, #1
3418320e:	ea41 4100 	orr.w	r1, r1, r0, lsl #16
34183212:	430b      	orrs	r3, r1
34183214:	f8c2 30e8 	str.w	r3, [r2, #232]	@ 0xe8
  WRITE_REG(RCC->DIVENSR, RCC_DIVENSR_IC10ENS);
34183218:	f44f 7300 	mov.w	r3, #512	@ 0x200
3418321c:	f8c2 3a40 	str.w	r3, [r2, #2624]	@ 0xa40
  LL_RCC_SetClockSource(ClkSource);
34183220:	f8d4 00f0 	ldr.w	r0, [r4, #240]	@ 0xf0
34183224:	f7ff fa58 	bl	341826d8 <LL_RCC_SetClockSource>
  if ((PeriphClkInit->PeriphClockSelection & RCC_PERIPHCLK_I2C4) == RCC_PERIPHCLK_I2C4)
34183228:	6823      	ldr	r3, [r4, #0]
3418322a:	f413 4f00 	tst.w	r3, #32768	@ 0x8000
3418322e:	d03a      	beq.n	341832a6 <HAL_RCCEx_PeriphCLKConfig+0x9f2>
    if (PeriphClkInit->I2c4ClockSelection == RCC_I2C4CLKSOURCE_IC10)
34183230:	f8d4 30f4 	ldr.w	r3, [r4, #244]	@ 0xf4
34183234:	4a54      	ldr	r2, [pc, #336]	@ (34183388 <HAL_RCCEx_PeriphCLKConfig+0xad4>)
34183236:	4293      	cmp	r3, r2
34183238:	d01e      	beq.n	34183278 <HAL_RCCEx_PeriphCLKConfig+0x9c4>
    else if (PeriphClkInit->I2c4ClockSelection == RCC_I2C4CLKSOURCE_IC15)
3418323a:	4a54      	ldr	r2, [pc, #336]	@ (3418338c <HAL_RCCEx_PeriphCLKConfig+0xad8>)
3418323c:	4293      	cmp	r3, r2
3418323e:	d046      	beq.n	341832ce <HAL_RCCEx_PeriphCLKConfig+0xa1a>
    else if (PeriphClkInit->I2c4ClockSelection == RCC_I2C4CLKSOURCE_CLKP)
34183240:	4a53      	ldr	r2, [pc, #332]	@ (34183390 <HAL_RCCEx_PeriphCLKConfig+0xadc>)
34183242:	4293      	cmp	r3, r2
34183244:	d12b      	bne.n	3418329e <HAL_RCCEx_PeriphCLKConfig+0x9ea>
  WRITE_REG(RCC->MISCENSR, RCC_MISCENSR_PERENS);
34183246:	4b4c      	ldr	r3, [pc, #304]	@ (34183378 <HAL_RCCEx_PeriphCLKConfig+0xac4>)
34183248:	2240      	movs	r2, #64	@ 0x40
3418324a:	f8c3 2a48 	str.w	r2, [r3, #2632]	@ 0xa48
}
3418324e:	e026      	b.n	3418329e <HAL_RCCEx_PeriphCLKConfig+0x9ea>
      MODIFY_REG(RCC->IC15CFGR, RCC_IC15CFGR_IC15SEL | RCC_IC15CFGR_IC15INT,
34183250:	4a49      	ldr	r2, [pc, #292]	@ (34183378 <HAL_RCCEx_PeriphCLKConfig+0xac4>)
34183252:	f8d2 30fc 	ldr.w	r3, [r2, #252]	@ 0xfc
34183256:	f023 5343 	bic.w	r3, r3, #817889280	@ 0x30c00000
3418325a:	f423 137c 	bic.w	r3, r3, #4128768	@ 0x3f0000
3418325e:	6fa1      	ldr	r1, [r4, #120]	@ 0x78
34183260:	6fe0      	ldr	r0, [r4, #124]	@ 0x7c
34183262:	3801      	subs	r0, #1
34183264:	ea41 4100 	orr.w	r1, r1, r0, lsl #16
34183268:	430b      	orrs	r3, r1
3418326a:	f8c2 30fc 	str.w	r3, [r2, #252]	@ 0xfc
  WRITE_REG(RCC->DIVENSR, RCC_DIVENSR_IC15ENS);
3418326e:	f44f 4380 	mov.w	r3, #16384	@ 0x4000
34183272:	f8c2 3a40 	str.w	r3, [r2, #2624]	@ 0xa40
}
34183276:	e7d3      	b.n	34183220 <HAL_RCCEx_PeriphCLKConfig+0x96c>
      MODIFY_REG(RCC->IC10CFGR, RCC_IC10CFGR_IC10SEL | RCC_IC10CFGR_IC10INT,
34183278:	4a3f      	ldr	r2, [pc, #252]	@ (34183378 <HAL_RCCEx_PeriphCLKConfig+0xac4>)
3418327a:	f8d2 30e8 	ldr.w	r3, [r2, #232]	@ 0xe8
3418327e:	f023 5343 	bic.w	r3, r3, #817889280	@ 0x30c00000
34183282:	f423 137c 	bic.w	r3, r3, #4128768	@ 0x3f0000
34183286:	6d21      	ldr	r1, [r4, #80]	@ 0x50
34183288:	6d60      	ldr	r0, [r4, #84]	@ 0x54
3418328a:	3801      	subs	r0, #1
3418328c:	ea41 4100 	orr.w	r1, r1, r0, lsl #16
34183290:	430b      	orrs	r3, r1
34183292:	f8c2 30e8 	str.w	r3, [r2, #232]	@ 0xe8
  WRITE_REG(RCC->DIVENSR, RCC_DIVENSR_IC10ENS);
34183296:	f44f 7300 	mov.w	r3, #512	@ 0x200
3418329a:	f8c2 3a40 	str.w	r3, [r2, #2624]	@ 0xa40
  LL_RCC_SetClockSource(ClkSource);
3418329e:	f8d4 00f4 	ldr.w	r0, [r4, #244]	@ 0xf4
341832a2:	f7ff fa19 	bl	341826d8 <LL_RCC_SetClockSource>
  if ((PeriphClkInit->PeriphClockSelection & RCC_PERIPHCLK_I3C1) == RCC_PERIPHCLK_I3C1)
341832a6:	6823      	ldr	r3, [r4, #0]
341832a8:	f413 3f80 	tst.w	r3, #65536	@ 0x10000
341832ac:	d03a      	beq.n	34183324 <HAL_RCCEx_PeriphCLKConfig+0xa70>
    if (PeriphClkInit->I3c1ClockSelection == RCC_I3C1CLKSOURCE_IC10)
341832ae:	f8d4 30f8 	ldr.w	r3, [r4, #248]	@ 0xf8
341832b2:	4a38      	ldr	r2, [pc, #224]	@ (34183394 <HAL_RCCEx_PeriphCLKConfig+0xae0>)
341832b4:	4293      	cmp	r3, r2
341832b6:	d01e      	beq.n	341832f6 <HAL_RCCEx_PeriphCLKConfig+0xa42>
    else if (PeriphClkInit->I3c1ClockSelection == RCC_I3C1CLKSOURCE_IC15)
341832b8:	4a37      	ldr	r2, [pc, #220]	@ (34183398 <HAL_RCCEx_PeriphCLKConfig+0xae4>)
341832ba:	4293      	cmp	r3, r2
341832bc:	d047      	beq.n	3418334e <HAL_RCCEx_PeriphCLKConfig+0xa9a>
    else if (PeriphClkInit->I3c1ClockSelection == RCC_I3C1CLKSOURCE_CLKP)
341832be:	4a37      	ldr	r2, [pc, #220]	@ (3418339c <HAL_RCCEx_PeriphCLKConfig+0xae8>)
341832c0:	4293      	cmp	r3, r2
341832c2:	d12b      	bne.n	3418331c <HAL_RCCEx_PeriphCLKConfig+0xa68>
  WRITE_REG(RCC->MISCENSR, RCC_MISCENSR_PERENS);
341832c4:	4b2c      	ldr	r3, [pc, #176]	@ (34183378 <HAL_RCCEx_PeriphCLKConfig+0xac4>)
341832c6:	2240      	movs	r2, #64	@ 0x40
341832c8:	f8c3 2a48 	str.w	r2, [r3, #2632]	@ 0xa48
}
341832cc:	e026      	b.n	3418331c <HAL_RCCEx_PeriphCLKConfig+0xa68>
      MODIFY_REG(RCC->IC15CFGR, RCC_IC15CFGR_IC15SEL | RCC_IC15CFGR_IC15INT,
341832ce:	4a2a      	ldr	r2, [pc, #168]	@ (34183378 <HAL_RCCEx_PeriphCLKConfig+0xac4>)
341832d0:	f8d2 30fc 	ldr.w	r3, [r2, #252]	@ 0xfc
341832d4:	f023 5343 	bic.w	r3, r3, #817889280	@ 0x30c00000
341832d8:	f423 137c 	bic.w	r3, r3, #4128768	@ 0x3f0000
341832dc:	6fa1      	ldr	r1, [r4, #120]	@ 0x78
341832de:	6fe0      	ldr	r0, [r4, #124]	@ 0x7c
341832e0:	3801      	subs	r0, #1
341832e2:	ea41 4100 	orr.w	r1, r1, r0, lsl #16
341832e6:	430b      	orrs	r3, r1
341832e8:	f8c2 30fc 	str.w	r3, [r2, #252]	@ 0xfc
  WRITE_REG(RCC->DIVENSR, RCC_DIVENSR_IC15ENS);
341832ec:	f44f 4380 	mov.w	r3, #16384	@ 0x4000
341832f0:	f8c2 3a40 	str.w	r3, [r2, #2624]	@ 0xa40
}
341832f4:	e7d3      	b.n	3418329e <HAL_RCCEx_PeriphCLKConfig+0x9ea>
      MODIFY_REG(RCC->IC10CFGR, RCC_IC10CFGR_IC10SEL | RCC_IC10CFGR_IC10INT,
341832f6:	4a20      	ldr	r2, [pc, #128]	@ (34183378 <HAL_RCCEx_PeriphCLKConfig+0xac4>)
341832f8:	f8d2 30e8 	ldr.w	r3, [r2, #232]	@ 0xe8
341832fc:	f023 5343 	bic.w	r3, r3, #817889280	@ 0x30c00000
34183300:	f423 137c 	bic.w	r3, r3, #4128768	@ 0x3f0000
34183304:	6d21      	ldr	r1, [r4, #80]	@ 0x50
34183306:	6d60      	ldr	r0, [r4, #84]	@ 0x54
34183308:	3801      	subs	r0, #1
3418330a:	ea41 4100 	orr.w	r1, r1, r0, lsl #16
3418330e:	430b      	orrs	r3, r1
34183310:	f8c2 30e8 	str.w	r3, [r2, #232]	@ 0xe8
  WRITE_REG(RCC->DIVENSR, RCC_DIVENSR_IC10ENS);
34183314:	f44f 7300 	mov.w	r3, #512	@ 0x200
34183318:	f8c2 3a40 	str.w	r3, [r2, #2624]	@ 0xa40
  LL_RCC_SetClockSource(ClkSource);
3418331c:	f8d4 00f8 	ldr.w	r0, [r4, #248]	@ 0xf8
34183320:	f7ff f9da 	bl	341826d8 <LL_RCC_SetClockSource>
  if ((PeriphClkInit->PeriphClockSelection & RCC_PERIPHCLK_I3C2) == RCC_PERIPHCLK_I3C2)
34183324:	6823      	ldr	r3, [r4, #0]
34183326:	f413 3f00 	tst.w	r3, #131072	@ 0x20000
3418332a:	d056      	beq.n	341833da <HAL_RCCEx_PeriphCLKConfig+0xb26>
    if (PeriphClkInit->I3c2ClockSelection == RCC_I3C2CLKSOURCE_IC10)
3418332c:	f8d4 30fc 	ldr.w	r3, [r4, #252]	@ 0xfc
34183330:	4a1b      	ldr	r2, [pc, #108]	@ (341833a0 <HAL_RCCEx_PeriphCLKConfig+0xaec>)
34183332:	4293      	cmp	r3, r2
34183334:	d03a      	beq.n	341833ac <HAL_RCCEx_PeriphCLKConfig+0xaf8>
    else if (PeriphClkInit->I3c2ClockSelection == RCC_I3C2CLKSOURCE_IC15)
34183336:	4a1b      	ldr	r2, [pc, #108]	@ (341833a4 <HAL_RCCEx_PeriphCLKConfig+0xaf0>)
34183338:	4293      	cmp	r3, r2
3418333a:	f000 80bf 	beq.w	341834bc <HAL_RCCEx_PeriphCLKConfig+0xc08>
    else if (PeriphClkInit->I3c2ClockSelection == RCC_I3C2CLKSOURCE_CLKP)
3418333e:	4a1a      	ldr	r2, [pc, #104]	@ (341833a8 <HAL_RCCEx_PeriphCLKConfig+0xaf4>)
34183340:	4293      	cmp	r3, r2
34183342:	d146      	bne.n	341833d2 <HAL_RCCEx_PeriphCLKConfig+0xb1e>
  WRITE_REG(RCC->MISCENSR, RCC_MISCENSR_PERENS);
34183344:	4b0c      	ldr	r3, [pc, #48]	@ (34183378 <HAL_RCCEx_PeriphCLKConfig+0xac4>)
34183346:	2240      	movs	r2, #64	@ 0x40
34183348:	f8c3 2a48 	str.w	r2, [r3, #2632]	@ 0xa48
}
3418334c:	e041      	b.n	341833d2 <HAL_RCCEx_PeriphCLKConfig+0xb1e>
      MODIFY_REG(RCC->IC15CFGR, RCC_IC15CFGR_IC15SEL | RCC_IC15CFGR_IC15INT,
3418334e:	4a0a      	ldr	r2, [pc, #40]	@ (34183378 <HAL_RCCEx_PeriphCLKConfig+0xac4>)
34183350:	f8d2 30fc 	ldr.w	r3, [r2, #252]	@ 0xfc
34183354:	f023 5343 	bic.w	r3, r3, #817889280	@ 0x30c00000
34183358:	f423 137c 	bic.w	r3, r3, #4128768	@ 0x3f0000
3418335c:	6fa1      	ldr	r1, [r4, #120]	@ 0x78
3418335e:	6fe0      	ldr	r0, [r4, #124]	@ 0x7c
34183360:	3801      	subs	r0, #1
34183362:	ea41 4100 	orr.w	r1, r1, r0, lsl #16
34183366:	430b      	orrs	r3, r1
34183368:	f8c2 30fc 	str.w	r3, [r2, #252]	@ 0xfc
  WRITE_REG(RCC->DIVENSR, RCC_DIVENSR_IC15ENS);
3418336c:	f44f 4380 	mov.w	r3, #16384	@ 0x4000
34183370:	f8c2 3a40 	str.w	r3, [r2, #2624]	@ 0xa40
}
34183374:	e7d2      	b.n	3418331c <HAL_RCCEx_PeriphCLKConfig+0xa68>
34183376:	bf00      	nop
34183378:	56028000 	.word	0x56028000
3418337c:	0702080c 	.word	0x0702080c
34183380:	0703080c 	.word	0x0703080c
34183384:	0701080c 	.word	0x0701080c
34183388:	07020c0c 	.word	0x07020c0c
3418338c:	07030c0c 	.word	0x07030c0c
34183390:	07010c0c 	.word	0x07010c0c
34183394:	0702100c 	.word	0x0702100c
34183398:	0703100c 	.word	0x0703100c
3418339c:	0701100c 	.word	0x0701100c
341833a0:	0702140c 	.word	0x0702140c
341833a4:	0703140c 	.word	0x0703140c
341833a8:	0701140c 	.word	0x0701140c
      MODIFY_REG(RCC->IC10CFGR, RCC_IC10CFGR_IC10SEL | RCC_IC10CFGR_IC10INT,
341833ac:	4ac5      	ldr	r2, [pc, #788]	@ (341836c4 <HAL_RCCEx_PeriphCLKConfig+0xe10>)
341833ae:	f8d2 30e8 	ldr.w	r3, [r2, #232]	@ 0xe8
341833b2:	f023 5343 	bic.w	r3, r3, #817889280	@ 0x30c00000
341833b6:	f423 137c 	bic.w	r3, r3, #4128768	@ 0x3f0000
341833ba:	6d21      	ldr	r1, [r4, #80]	@ 0x50
341833bc:	6d60      	ldr	r0, [r4, #84]	@ 0x54
341833be:	3801      	subs	r0, #1
341833c0:	ea41 4100 	orr.w	r1, r1, r0, lsl #16
341833c4:	430b      	orrs	r3, r1
341833c6:	f8c2 30e8 	str.w	r3, [r2, #232]	@ 0xe8
  WRITE_REG(RCC->DIVENSR, RCC_DIVENSR_IC10ENS);
341833ca:	f44f 7300 	mov.w	r3, #512	@ 0x200
341833ce:	f8c2 3a40 	str.w	r3, [r2, #2624]	@ 0xa40
  LL_RCC_SetClockSource(ClkSource);
341833d2:	f8d4 00fc 	ldr.w	r0, [r4, #252]	@ 0xfc
341833d6:	f7ff f97f 	bl	341826d8 <LL_RCC_SetClockSource>
  if ((PeriphClkInit->PeriphClockSelection & RCC_PERIPHCLK_LPTIM1) == RCC_PERIPHCLK_LPTIM1)
341833da:	6823      	ldr	r3, [r4, #0]
341833dc:	f413 2f80 	tst.w	r3, #262144	@ 0x40000
341833e0:	d00c      	beq.n	341833fc <HAL_RCCEx_PeriphCLKConfig+0xb48>
    if (PeriphClkInit->Lptim1ClockSelection == RCC_LPTIM1CLKSOURCE_IC15)
341833e2:	f8d4 3100 	ldr.w	r3, [r4, #256]	@ 0x100
341833e6:	4ab8      	ldr	r2, [pc, #736]	@ (341836c8 <HAL_RCCEx_PeriphCLKConfig+0xe14>)
341833e8:	4293      	cmp	r3, r2
341833ea:	d07b      	beq.n	341834e4 <HAL_RCCEx_PeriphCLKConfig+0xc30>
    else if (PeriphClkInit->Lptim1ClockSelection == RCC_LPTIM1CLKSOURCE_CLKP)
341833ec:	4ab7      	ldr	r2, [pc, #732]	@ (341836cc <HAL_RCCEx_PeriphCLKConfig+0xe18>)
341833ee:	4293      	cmp	r3, r2
341833f0:	f000 808c 	beq.w	3418350c <HAL_RCCEx_PeriphCLKConfig+0xc58>
  LL_RCC_SetClockSource(ClkSource);
341833f4:	f8d4 0100 	ldr.w	r0, [r4, #256]	@ 0x100
341833f8:	f7ff f96e 	bl	341826d8 <LL_RCC_SetClockSource>
  if ((PeriphClkInit->PeriphClockSelection & RCC_PERIPHCLK_LPTIM2) == RCC_PERIPHCLK_LPTIM2)
341833fc:	6823      	ldr	r3, [r4, #0]
341833fe:	f413 2f00 	tst.w	r3, #524288	@ 0x80000
34183402:	d00d      	beq.n	34183420 <HAL_RCCEx_PeriphCLKConfig+0xb6c>
    if (PeriphClkInit->Lptim2ClockSelection == RCC_LPTIM2CLKSOURCE_IC15)
34183404:	f8d4 3104 	ldr.w	r3, [r4, #260]	@ 0x104
34183408:	4ab1      	ldr	r2, [pc, #708]	@ (341836d0 <HAL_RCCEx_PeriphCLKConfig+0xe1c>)
3418340a:	4293      	cmp	r3, r2
3418340c:	f000 8083 	beq.w	34183516 <HAL_RCCEx_PeriphCLKConfig+0xc62>
    else if (PeriphClkInit->Lptim2ClockSelection == RCC_LPTIM2CLKSOURCE_CLKP)
34183410:	4ab0      	ldr	r2, [pc, #704]	@ (341836d4 <HAL_RCCEx_PeriphCLKConfig+0xe20>)
34183412:	4293      	cmp	r3, r2
34183414:	f000 8093 	beq.w	3418353e <HAL_RCCEx_PeriphCLKConfig+0xc8a>
34183418:	f8d4 0104 	ldr.w	r0, [r4, #260]	@ 0x104
3418341c:	f7ff f95c 	bl	341826d8 <LL_RCC_SetClockSource>
  if ((PeriphClkInit->PeriphClockSelection & RCC_PERIPHCLK_LPTIM3) == RCC_PERIPHCLK_LPTIM3)
34183420:	6823      	ldr	r3, [r4, #0]
34183422:	f413 1f80 	tst.w	r3, #1048576	@ 0x100000
34183426:	d00d      	beq.n	34183444 <HAL_RCCEx_PeriphCLKConfig+0xb90>
    if (PeriphClkInit->Lptim3ClockSelection == RCC_LPTIM3CLKSOURCE_IC15)
34183428:	f8d4 3108 	ldr.w	r3, [r4, #264]	@ 0x108
3418342c:	4aaa      	ldr	r2, [pc, #680]	@ (341836d8 <HAL_RCCEx_PeriphCLKConfig+0xe24>)
3418342e:	4293      	cmp	r3, r2
34183430:	f000 808a 	beq.w	34183548 <HAL_RCCEx_PeriphCLKConfig+0xc94>
    else if (PeriphClkInit->Lptim3ClockSelection == RCC_LPTIM3CLKSOURCE_CLKP)
34183434:	4aa9      	ldr	r2, [pc, #676]	@ (341836dc <HAL_RCCEx_PeriphCLKConfig+0xe28>)
34183436:	4293      	cmp	r3, r2
34183438:	f000 809a 	beq.w	34183570 <HAL_RCCEx_PeriphCLKConfig+0xcbc>
3418343c:	f8d4 0108 	ldr.w	r0, [r4, #264]	@ 0x108
34183440:	f7ff f94a 	bl	341826d8 <LL_RCC_SetClockSource>
  if ((PeriphClkInit->PeriphClockSelection & RCC_PERIPHCLK_LPTIM4) == RCC_PERIPHCLK_LPTIM4)
34183444:	6823      	ldr	r3, [r4, #0]
34183446:	f413 1f00 	tst.w	r3, #2097152	@ 0x200000
3418344a:	d00d      	beq.n	34183468 <HAL_RCCEx_PeriphCLKConfig+0xbb4>
    if (PeriphClkInit->Lptim4ClockSelection == RCC_LPTIM4CLKSOURCE_IC15)
3418344c:	f8d4 310c 	ldr.w	r3, [r4, #268]	@ 0x10c
34183450:	4aa3      	ldr	r2, [pc, #652]	@ (341836e0 <HAL_RCCEx_PeriphCLKConfig+0xe2c>)
34183452:	4293      	cmp	r3, r2
34183454:	f000 8091 	beq.w	3418357a <HAL_RCCEx_PeriphCLKConfig+0xcc6>
    else if (PeriphClkInit->Lptim4ClockSelection == RCC_LPTIM4CLKSOURCE_CLKP)
34183458:	4aa2      	ldr	r2, [pc, #648]	@ (341836e4 <HAL_RCCEx_PeriphCLKConfig+0xe30>)
3418345a:	4293      	cmp	r3, r2
3418345c:	f000 80a1 	beq.w	341835a2 <HAL_RCCEx_PeriphCLKConfig+0xcee>
34183460:	f8d4 010c 	ldr.w	r0, [r4, #268]	@ 0x10c
34183464:	f7ff f938 	bl	341826d8 <LL_RCC_SetClockSource>
  if ((PeriphClkInit->PeriphClockSelection & RCC_PERIPHCLK_LPTIM5) == RCC_PERIPHCLK_LPTIM5)
34183468:	6823      	ldr	r3, [r4, #0]
3418346a:	f413 0f80 	tst.w	r3, #4194304	@ 0x400000
3418346e:	d00d      	beq.n	3418348c <HAL_RCCEx_PeriphCLKConfig+0xbd8>
    if (PeriphClkInit->Lptim5ClockSelection == RCC_LPTIM5CLKSOURCE_IC15)
34183470:	f8d4 3110 	ldr.w	r3, [r4, #272]	@ 0x110
34183474:	4a9c      	ldr	r2, [pc, #624]	@ (341836e8 <HAL_RCCEx_PeriphCLKConfig+0xe34>)
34183476:	4293      	cmp	r3, r2
34183478:	f000 8098 	beq.w	341835ac <HAL_RCCEx_PeriphCLKConfig+0xcf8>
    else if (PeriphClkInit->Lptim5ClockSelection == RCC_LPTIM5CLKSOURCE_CLKP)
3418347c:	4a9b      	ldr	r2, [pc, #620]	@ (341836ec <HAL_RCCEx_PeriphCLKConfig+0xe38>)
3418347e:	4293      	cmp	r3, r2
34183480:	f000 80a8 	beq.w	341835d4 <HAL_RCCEx_PeriphCLKConfig+0xd20>
34183484:	f8d4 0110 	ldr.w	r0, [r4, #272]	@ 0x110
34183488:	f7ff f926 	bl	341826d8 <LL_RCC_SetClockSource>
  if ((PeriphClkInit->PeriphClockSelection & RCC_PERIPHCLK_LPUART1) == RCC_PERIPHCLK_LPUART1)
3418348c:	6823      	ldr	r3, [r4, #0]
3418348e:	f413 0f00 	tst.w	r3, #8388608	@ 0x800000
34183492:	f000 80c1 	beq.w	34183618 <HAL_RCCEx_PeriphCLKConfig+0xd64>
    if (PeriphClkInit->Lpuart1ClockSelection == RCC_LPUART1CLKSOURCE_IC9)
34183496:	f8d4 3114 	ldr.w	r3, [r4, #276]	@ 0x114
3418349a:	f5b3 7f00 	cmp.w	r3, #512	@ 0x200
3418349e:	f000 809e 	beq.w	341835de <HAL_RCCEx_PeriphCLKConfig+0xd2a>
    else if (PeriphClkInit->Lpuart1ClockSelection == RCC_LPUART1CLKSOURCE_IC14)
341834a2:	f5b3 7f40 	cmp.w	r3, #768	@ 0x300
341834a6:	f000 80e2 	beq.w	3418366e <HAL_RCCEx_PeriphCLKConfig+0xdba>
    else if (PeriphClkInit->Lpuart1ClockSelection == RCC_LPUART1CLKSOURCE_CLKP)
341834aa:	f5b3 7f80 	cmp.w	r3, #256	@ 0x100
341834ae:	f040 80a9 	bne.w	34183604 <HAL_RCCEx_PeriphCLKConfig+0xd50>
  WRITE_REG(RCC->MISCENSR, RCC_MISCENSR_PERENS);
341834b2:	4b84      	ldr	r3, [pc, #528]	@ (341836c4 <HAL_RCCEx_PeriphCLKConfig+0xe10>)
341834b4:	2240      	movs	r2, #64	@ 0x40
341834b6:	f8c3 2a48 	str.w	r2, [r3, #2632]	@ 0xa48
}
341834ba:	e0a3      	b.n	34183604 <HAL_RCCEx_PeriphCLKConfig+0xd50>
      MODIFY_REG(RCC->IC15CFGR, RCC_IC15CFGR_IC15SEL | RCC_IC15CFGR_IC15INT,
341834bc:	4a81      	ldr	r2, [pc, #516]	@ (341836c4 <HAL_RCCEx_PeriphCLKConfig+0xe10>)
341834be:	f8d2 30fc 	ldr.w	r3, [r2, #252]	@ 0xfc
341834c2:	f023 5343 	bic.w	r3, r3, #817889280	@ 0x30c00000
341834c6:	f423 137c 	bic.w	r3, r3, #4128768	@ 0x3f0000
341834ca:	6fa1      	ldr	r1, [r4, #120]	@ 0x78
341834cc:	6fe0      	ldr	r0, [r4, #124]	@ 0x7c
341834ce:	3801      	subs	r0, #1
341834d0:	ea41 4100 	orr.w	r1, r1, r0, lsl #16
341834d4:	430b      	orrs	r3, r1
341834d6:	f8c2 30fc 	str.w	r3, [r2, #252]	@ 0xfc
  WRITE_REG(RCC->DIVENSR, RCC_DIVENSR_IC15ENS);
341834da:	f44f 4380 	mov.w	r3, #16384	@ 0x4000
341834de:	f8c2 3a40 	str.w	r3, [r2, #2624]	@ 0xa40
}
341834e2:	e776      	b.n	341833d2 <HAL_RCCEx_PeriphCLKConfig+0xb1e>
      MODIFY_REG(RCC->IC15CFGR, RCC_IC15CFGR_IC15SEL | RCC_IC15CFGR_IC15INT,
341834e4:	4a77      	ldr	r2, [pc, #476]	@ (341836c4 <HAL_RCCEx_PeriphCLKConfig+0xe10>)
341834e6:	f8d2 30fc 	ldr.w	r3, [r2, #252]	@ 0xfc
341834ea:	f023 5343 	bic.w	r3, r3, #817889280	@ 0x30c00000
341834ee:	f423 137c 	bic.w	r3, r3, #4128768	@ 0x3f0000
341834f2:	6fa1      	ldr	r1, [r4, #120]	@ 0x78
341834f4:	6fe0      	ldr	r0, [r4, #124]	@ 0x7c
341834f6:	3801      	subs	r0, #1
341834f8:	ea41 4100 	orr.w	r1, r1, r0, lsl #16
341834fc:	430b      	orrs	r3, r1
341834fe:	f8c2 30fc 	str.w	r3, [r2, #252]	@ 0xfc
  WRITE_REG(RCC->DIVENSR, RCC_DIVENSR_IC15ENS);
34183502:	f44f 4380 	mov.w	r3, #16384	@ 0x4000
34183506:	f8c2 3a40 	str.w	r3, [r2, #2624]	@ 0xa40
}
3418350a:	e773      	b.n	341833f4 <HAL_RCCEx_PeriphCLKConfig+0xb40>
  WRITE_REG(RCC->MISCENSR, RCC_MISCENSR_PERENS);
3418350c:	4b6d      	ldr	r3, [pc, #436]	@ (341836c4 <HAL_RCCEx_PeriphCLKConfig+0xe10>)
3418350e:	2240      	movs	r2, #64	@ 0x40
34183510:	f8c3 2a48 	str.w	r2, [r3, #2632]	@ 0xa48
}
34183514:	e76e      	b.n	341833f4 <HAL_RCCEx_PeriphCLKConfig+0xb40>
      MODIFY_REG(RCC->IC15CFGR, RCC_IC15CFGR_IC15SEL | RCC_IC15CFGR_IC15INT,
34183516:	4a6b      	ldr	r2, [pc, #428]	@ (341836c4 <HAL_RCCEx_PeriphCLKConfig+0xe10>)
34183518:	f8d2 30fc 	ldr.w	r3, [r2, #252]	@ 0xfc
3418351c:	f023 5343 	bic.w	r3, r3, #817889280	@ 0x30c00000
34183520:	f423 137c 	bic.w	r3, r3, #4128768	@ 0x3f0000
34183524:	6fa1      	ldr	r1, [r4, #120]	@ 0x78
34183526:	6fe0      	ldr	r0, [r4, #124]	@ 0x7c
34183528:	3801      	subs	r0, #1
3418352a:	ea41 4100 	orr.w	r1, r1, r0, lsl #16
3418352e:	430b      	orrs	r3, r1
34183530:	f8c2 30fc 	str.w	r3, [r2, #252]	@ 0xfc
  WRITE_REG(RCC->DIVENSR, RCC_DIVENSR_IC15ENS);
34183534:	f44f 4380 	mov.w	r3, #16384	@ 0x4000
34183538:	f8c2 3a40 	str.w	r3, [r2, #2624]	@ 0xa40
}
3418353c:	e76c      	b.n	34183418 <HAL_RCCEx_PeriphCLKConfig+0xb64>
  WRITE_REG(RCC->MISCENSR, RCC_MISCENSR_PERENS);
3418353e:	4b61      	ldr	r3, [pc, #388]	@ (341836c4 <HAL_RCCEx_PeriphCLKConfig+0xe10>)
34183540:	2240      	movs	r2, #64	@ 0x40
34183542:	f8c3 2a48 	str.w	r2, [r3, #2632]	@ 0xa48
}
34183546:	e767      	b.n	34183418 <HAL_RCCEx_PeriphCLKConfig+0xb64>
      MODIFY_REG(RCC->IC15CFGR, RCC_IC15CFGR_IC15SEL | RCC_IC15CFGR_IC15INT,
34183548:	4a5e      	ldr	r2, [pc, #376]	@ (341836c4 <HAL_RCCEx_PeriphCLKConfig+0xe10>)
3418354a:	f8d2 30fc 	ldr.w	r3, [r2, #252]	@ 0xfc
3418354e:	f023 5343 	bic.w	r3, r3, #817889280	@ 0x30c00000
34183552:	f423 137c 	bic.w	r3, r3, #4128768	@ 0x3f0000
34183556:	6fa1      	ldr	r1, [r4, #120]	@ 0x78
34183558:	6fe0      	ldr	r0, [r4, #124]	@ 0x7c
3418355a:	3801      	subs	r0, #1
3418355c:	ea41 4100 	orr.w	r1, r1, r0, lsl #16
34183560:	430b      	orrs	r3, r1
34183562:	f8c2 30fc 	str.w	r3, [r2, #252]	@ 0xfc
  WRITE_REG(RCC->DIVENSR, RCC_DIVENSR_IC15ENS);
34183566:	f44f 4380 	mov.w	r3, #16384	@ 0x4000
3418356a:	f8c2 3a40 	str.w	r3, [r2, #2624]	@ 0xa40
}
3418356e:	e765      	b.n	3418343c <HAL_RCCEx_PeriphCLKConfig+0xb88>
  WRITE_REG(RCC->MISCENSR, RCC_MISCENSR_PERENS);
34183570:	4b54      	ldr	r3, [pc, #336]	@ (341836c4 <HAL_RCCEx_PeriphCLKConfig+0xe10>)
34183572:	2240      	movs	r2, #64	@ 0x40
34183574:	f8c3 2a48 	str.w	r2, [r3, #2632]	@ 0xa48
}
34183578:	e760      	b.n	3418343c <HAL_RCCEx_PeriphCLKConfig+0xb88>
      MODIFY_REG(RCC->IC15CFGR, RCC_IC15CFGR_IC15SEL | RCC_IC15CFGR_IC15INT,
3418357a:	4a52      	ldr	r2, [pc, #328]	@ (341836c4 <HAL_RCCEx_PeriphCLKConfig+0xe10>)
3418357c:	f8d2 30fc 	ldr.w	r3, [r2, #252]	@ 0xfc
34183580:	f023 5343 	bic.w	r3, r3, #817889280	@ 0x30c00000
34183584:	f423 137c 	bic.w	r3, r3, #4128768	@ 0x3f0000
34183588:	6fa1      	ldr	r1, [r4, #120]	@ 0x78
3418358a:	6fe0      	ldr	r0, [r4, #124]	@ 0x7c
3418358c:	3801      	subs	r0, #1
3418358e:	ea41 4100 	orr.w	r1, r1, r0, lsl #16
34183592:	430b      	orrs	r3, r1
34183594:	f8c2 30fc 	str.w	r3, [r2, #252]	@ 0xfc
  WRITE_REG(RCC->DIVENSR, RCC_DIVENSR_IC15ENS);
34183598:	f44f 4380 	mov.w	r3, #16384	@ 0x4000
3418359c:	f8c2 3a40 	str.w	r3, [r2, #2624]	@ 0xa40
}
341835a0:	e75e      	b.n	34183460 <HAL_RCCEx_PeriphCLKConfig+0xbac>
  WRITE_REG(RCC->MISCENSR, RCC_MISCENSR_PERENS);
341835a2:	4b48      	ldr	r3, [pc, #288]	@ (341836c4 <HAL_RCCEx_PeriphCLKConfig+0xe10>)
341835a4:	2240      	movs	r2, #64	@ 0x40
341835a6:	f8c3 2a48 	str.w	r2, [r3, #2632]	@ 0xa48
}
341835aa:	e759      	b.n	34183460 <HAL_RCCEx_PeriphCLKConfig+0xbac>
      MODIFY_REG(RCC->IC15CFGR, RCC_IC15CFGR_IC15SEL | RCC_IC15CFGR_IC15INT,
341835ac:	4a45      	ldr	r2, [pc, #276]	@ (341836c4 <HAL_RCCEx_PeriphCLKConfig+0xe10>)
341835ae:	f8d2 30fc 	ldr.w	r3, [r2, #252]	@ 0xfc
341835b2:	f023 5343 	bic.w	r3, r3, #817889280	@ 0x30c00000
341835b6:	f423 137c 	bic.w	r3, r3, #4128768	@ 0x3f0000
341835ba:	6fa1      	ldr	r1, [r4, #120]	@ 0x78
341835bc:	6fe0      	ldr	r0, [r4, #124]	@ 0x7c
341835be:	3801      	subs	r0, #1
341835c0:	ea41 4100 	orr.w	r1, r1, r0, lsl #16
341835c4:	430b      	orrs	r3, r1
341835c6:	f8c2 30fc 	str.w	r3, [r2, #252]	@ 0xfc
  WRITE_REG(RCC->DIVENSR, RCC_DIVENSR_IC15ENS);
341835ca:	f44f 4380 	mov.w	r3, #16384	@ 0x4000
341835ce:	f8c2 3a40 	str.w	r3, [r2, #2624]	@ 0xa40
}
341835d2:	e757      	b.n	34183484 <HAL_RCCEx_PeriphCLKConfig+0xbd0>
  WRITE_REG(RCC->MISCENSR, RCC_MISCENSR_PERENS);
341835d4:	4b3b      	ldr	r3, [pc, #236]	@ (341836c4 <HAL_RCCEx_PeriphCLKConfig+0xe10>)
341835d6:	2240      	movs	r2, #64	@ 0x40
341835d8:	f8c3 2a48 	str.w	r2, [r3, #2632]	@ 0xa48
}
341835dc:	e752      	b.n	34183484 <HAL_RCCEx_PeriphCLKConfig+0xbd0>
      MODIFY_REG(RCC->IC9CFGR, RCC_IC9CFGR_IC9SEL | RCC_IC9CFGR_IC9INT,
341835de:	4a39      	ldr	r2, [pc, #228]	@ (341836c4 <HAL_RCCEx_PeriphCLKConfig+0xe10>)
341835e0:	f8d2 30e4 	ldr.w	r3, [r2, #228]	@ 0xe4
341835e4:	f023 5343 	bic.w	r3, r3, #817889280	@ 0x30c00000
341835e8:	f423 137c 	bic.w	r3, r3, #4128768	@ 0x3f0000
341835ec:	6ca1      	ldr	r1, [r4, #72]	@ 0x48
341835ee:	6ce0      	ldr	r0, [r4, #76]	@ 0x4c
341835f0:	3801      	subs	r0, #1
341835f2:	ea41 4100 	orr.w	r1, r1, r0, lsl #16
341835f6:	430b      	orrs	r3, r1
341835f8:	f8c2 30e4 	str.w	r3, [r2, #228]	@ 0xe4
  WRITE_REG(RCC->DIVENSR, RCC_DIVENSR_IC9ENS);
341835fc:	f44f 7380 	mov.w	r3, #256	@ 0x100
34183600:	f8c2 3a40 	str.w	r3, [r2, #2624]	@ 0xa40
    __HAL_RCC_LPUART1_CONFIG(PeriphClkInit->Lpuart1ClockSelection);
34183604:	f8d4 3114 	ldr.w	r3, [r4, #276]	@ 0x114
  MODIFY_REG(RCC->CCIPR14, RCC_CCIPR14_LPUART1SEL, ClkSource);
34183608:	492e      	ldr	r1, [pc, #184]	@ (341836c4 <HAL_RCCEx_PeriphCLKConfig+0xe10>)
3418360a:	f8d1 2178 	ldr.w	r2, [r1, #376]	@ 0x178
3418360e:	f422 62e0 	bic.w	r2, r2, #1792	@ 0x700
34183612:	4313      	orrs	r3, r2
34183614:	f8c1 3178 	str.w	r3, [r1, #376]	@ 0x178
  if ((PeriphClkInit->PeriphClockSelection & RCC_PERIPHCLK_LTDC) == RCC_PERIPHCLK_LTDC)
34183618:	6823      	ldr	r3, [r4, #0]
3418361a:	f013 7f80 	tst.w	r3, #16777216	@ 0x1000000
3418361e:	d011      	beq.n	34183644 <HAL_RCCEx_PeriphCLKConfig+0xd90>
    if (PeriphClkInit->LtdcClockSelection == RCC_LTDCCLKSOURCE_IC16)
34183620:	f8d4 3118 	ldr.w	r3, [r4, #280]	@ 0x118
34183624:	f1b3 7f00 	cmp.w	r3, #33554432	@ 0x2000000
34183628:	d035      	beq.n	34183696 <HAL_RCCEx_PeriphCLKConfig+0xde2>
    else if (PeriphClkInit->LtdcClockSelection == RCC_LTDCCLKSOURCE_CLKP)
3418362a:	f1b3 7f80 	cmp.w	r3, #16777216	@ 0x1000000
3418362e:	d05f      	beq.n	341836f0 <HAL_RCCEx_PeriphCLKConfig+0xe3c>
    __HAL_RCC_LTDC_CONFIG(PeriphClkInit->LtdcClockSelection);
34183630:	f8d4 3118 	ldr.w	r3, [r4, #280]	@ 0x118
  MODIFY_REG(RCC->CCIPR4, RCC_CCIPR4_LTDCSEL, ClkSource);
34183634:	4923      	ldr	r1, [pc, #140]	@ (341836c4 <HAL_RCCEx_PeriphCLKConfig+0xe10>)
34183636:	f8d1 2150 	ldr.w	r2, [r1, #336]	@ 0x150
3418363a:	f022 7240 	bic.w	r2, r2, #50331648	@ 0x3000000
3418363e:	4313      	orrs	r3, r2
34183640:	f8c1 3150 	str.w	r3, [r1, #336]	@ 0x150
  if ((PeriphClkInit->PeriphClockSelection & RCC_PERIPHCLK_MDF1) == RCC_PERIPHCLK_MDF1)
34183644:	6823      	ldr	r3, [r4, #0]
34183646:	f013 7f00 	tst.w	r3, #33554432	@ 0x2000000
3418364a:	d072      	beq.n	34183732 <HAL_RCCEx_PeriphCLKConfig+0xe7e>
    if (PeriphClkInit->Mdf1ClockSelection == RCC_MDF1CLKSOURCE_IC7)
3418364c:	f8d4 311c 	ldr.w	r3, [r4, #284]	@ 0x11c
34183650:	f5b3 3f00 	cmp.w	r3, #131072	@ 0x20000
34183654:	d051      	beq.n	341836fa <HAL_RCCEx_PeriphCLKConfig+0xe46>
    else if (PeriphClkInit->Mdf1ClockSelection == RCC_MDF1CLKSOURCE_IC8)
34183656:	f5b3 3f40 	cmp.w	r3, #196608	@ 0x30000
3418365a:	f000 8092 	beq.w	34183782 <HAL_RCCEx_PeriphCLKConfig+0xece>
    else if (PeriphClkInit->Mdf1ClockSelection == RCC_MDF1CLKSOURCE_CLKP)
3418365e:	f5b3 3f80 	cmp.w	r3, #65536	@ 0x10000
34183662:	d15c      	bne.n	3418371e <HAL_RCCEx_PeriphCLKConfig+0xe6a>
  WRITE_REG(RCC->MISCENSR, RCC_MISCENSR_PERENS);
34183664:	4b17      	ldr	r3, [pc, #92]	@ (341836c4 <HAL_RCCEx_PeriphCLKConfig+0xe10>)
34183666:	2240      	movs	r2, #64	@ 0x40
34183668:	f8c3 2a48 	str.w	r2, [r3, #2632]	@ 0xa48
}
3418366c:	e057      	b.n	3418371e <HAL_RCCEx_PeriphCLKConfig+0xe6a>
      MODIFY_REG(RCC->IC14CFGR, RCC_IC14CFGR_IC14SEL | RCC_IC14CFGR_IC14INT,
3418366e:	4a15      	ldr	r2, [pc, #84]	@ (341836c4 <HAL_RCCEx_PeriphCLKConfig+0xe10>)
34183670:	f8d2 30f8 	ldr.w	r3, [r2, #248]	@ 0xf8
34183674:	f023 5343 	bic.w	r3, r3, #817889280	@ 0x30c00000
34183678:	f423 137c 	bic.w	r3, r3, #4128768	@ 0x3f0000
3418367c:	6f21      	ldr	r1, [r4, #112]	@ 0x70
3418367e:	6f60      	ldr	r0, [r4, #116]	@ 0x74
34183680:	3801      	subs	r0, #1
34183682:	ea41 4100 	orr.w	r1, r1, r0, lsl #16
34183686:	430b      	orrs	r3, r1
34183688:	f8c2 30f8 	str.w	r3, [r2, #248]	@ 0xf8
  WRITE_REG(RCC->DIVENSR, RCC_DIVENSR_IC14ENS);
3418368c:	f44f 5300 	mov.w	r3, #8192	@ 0x2000
34183690:	f8c2 3a40 	str.w	r3, [r2, #2624]	@ 0xa40
}
34183694:	e7b6      	b.n	34183604 <HAL_RCCEx_PeriphCLKConfig+0xd50>
      MODIFY_REG(RCC->IC16CFGR, RCC_IC16CFGR_IC16SEL | RCC_IC16CFGR_IC16INT,
34183696:	4a0b      	ldr	r2, [pc, #44]	@ (341836c4 <HAL_RCCEx_PeriphCLKConfig+0xe10>)
34183698:	f8d2 3100 	ldr.w	r3, [r2, #256]	@ 0x100
3418369c:	f023 5343 	bic.w	r3, r3, #817889280	@ 0x30c00000
341836a0:	f423 137c 	bic.w	r3, r3, #4128768	@ 0x3f0000
341836a4:	f8d4 1080 	ldr.w	r1, [r4, #128]	@ 0x80
341836a8:	f8d4 0084 	ldr.w	r0, [r4, #132]	@ 0x84
341836ac:	3801      	subs	r0, #1
341836ae:	ea41 4100 	orr.w	r1, r1, r0, lsl #16
341836b2:	430b      	orrs	r3, r1
341836b4:	f8c2 3100 	str.w	r3, [r2, #256]	@ 0x100
  WRITE_REG(RCC->DIVENSR, RCC_DIVENSR_IC16ENS);
341836b8:	f44f 4300 	mov.w	r3, #32768	@ 0x8000
341836bc:	f8c2 3a40 	str.w	r3, [r2, #2624]	@ 0xa40
}
341836c0:	e7b6      	b.n	34183630 <HAL_RCCEx_PeriphCLKConfig+0xd7c>
341836c2:	bf00      	nop
341836c4:	56028000 	.word	0x56028000
341836c8:	0702082c 	.word	0x0702082c
341836cc:	0701082c 	.word	0x0701082c
341836d0:	07020c2c 	.word	0x07020c2c
341836d4:	07010c2c 	.word	0x07010c2c
341836d8:	0702102c 	.word	0x0702102c
341836dc:	0701102c 	.word	0x0701102c
341836e0:	0702142c 	.word	0x0702142c
341836e4:	0701142c 	.word	0x0701142c
341836e8:	0702182c 	.word	0x0702182c
341836ec:	0701182c 	.word	0x0701182c
  WRITE_REG(RCC->MISCENSR, RCC_MISCENSR_PERENS);
341836f0:	4bb7      	ldr	r3, [pc, #732]	@ (341839d0 <HAL_RCCEx_PeriphCLKConfig+0x111c>)
341836f2:	2240      	movs	r2, #64	@ 0x40
341836f4:	f8c3 2a48 	str.w	r2, [r3, #2632]	@ 0xa48
}
341836f8:	e79a      	b.n	34183630 <HAL_RCCEx_PeriphCLKConfig+0xd7c>
      MODIFY_REG(RCC->IC7CFGR, RCC_IC7CFGR_IC7SEL | RCC_IC7CFGR_IC7INT,
341836fa:	4ab5      	ldr	r2, [pc, #724]	@ (341839d0 <HAL_RCCEx_PeriphCLKConfig+0x111c>)
341836fc:	f8d2 30dc 	ldr.w	r3, [r2, #220]	@ 0xdc
34183700:	f023 5343 	bic.w	r3, r3, #817889280	@ 0x30c00000
34183704:	f423 137c 	bic.w	r3, r3, #4128768	@ 0x3f0000
34183708:	6ba1      	ldr	r1, [r4, #56]	@ 0x38
3418370a:	6be0      	ldr	r0, [r4, #60]	@ 0x3c
3418370c:	3801      	subs	r0, #1
3418370e:	ea41 4100 	orr.w	r1, r1, r0, lsl #16
34183712:	430b      	orrs	r3, r1
34183714:	f8c2 30dc 	str.w	r3, [r2, #220]	@ 0xdc
  WRITE_REG(RCC->DIVENSR, RCC_DIVENSR_IC7ENS);
34183718:	2340      	movs	r3, #64	@ 0x40
3418371a:	f8c2 3a40 	str.w	r3, [r2, #2624]	@ 0xa40
    __HAL_RCC_MDF1_CONFIG(PeriphClkInit->Mdf1ClockSelection);
3418371e:	f8d4 311c 	ldr.w	r3, [r4, #284]	@ 0x11c
  MODIFY_REG(RCC->CCIPR5, RCC_CCIPR5_MDF1SEL, ClkSource);
34183722:	49ab      	ldr	r1, [pc, #684]	@ (341839d0 <HAL_RCCEx_PeriphCLKConfig+0x111c>)
34183724:	f8d1 2154 	ldr.w	r2, [r1, #340]	@ 0x154
34183728:	f422 22e0 	bic.w	r2, r2, #458752	@ 0x70000
3418372c:	4313      	orrs	r3, r2
3418372e:	f8c1 3154 	str.w	r3, [r1, #340]	@ 0x154
  if ((PeriphClkInit->PeriphClockSelection & RCC_PERIPHCLK_PSSI) == RCC_PERIPHCLK_PSSI)
34183732:	6823      	ldr	r3, [r4, #0]
34183734:	f013 6f80 	tst.w	r3, #67108864	@ 0x4000000
34183738:	d00f      	beq.n	3418375a <HAL_RCCEx_PeriphCLKConfig+0xea6>
    if (PeriphClkInit->PssiClockSelection == RCC_PSSICLKSOURCE_IC20)
3418373a:	f8d4 3120 	ldr.w	r3, [r4, #288]	@ 0x120
3418373e:	2b20      	cmp	r3, #32
34183740:	d032      	beq.n	341837a8 <HAL_RCCEx_PeriphCLKConfig+0xef4>
    else if (PeriphClkInit->PssiClockSelection == RCC_PSSICLKSOURCE_CLKP)
34183742:	2b10      	cmp	r3, #16
34183744:	d046      	beq.n	341837d4 <HAL_RCCEx_PeriphCLKConfig+0xf20>
    __HAL_RCC_PSSI_CONFIG(PeriphClkInit->PssiClockSelection);
34183746:	f8d4 3120 	ldr.w	r3, [r4, #288]	@ 0x120
  MODIFY_REG(RCC->CCIPR7, RCC_CCIPR7_PSSISEL, ClkSource);
3418374a:	49a1      	ldr	r1, [pc, #644]	@ (341839d0 <HAL_RCCEx_PeriphCLKConfig+0x111c>)
3418374c:	f8d1 215c 	ldr.w	r2, [r1, #348]	@ 0x15c
34183750:	f022 0230 	bic.w	r2, r2, #48	@ 0x30
34183754:	4313      	orrs	r3, r2
34183756:	f8c1 315c 	str.w	r3, [r1, #348]	@ 0x15c
  if ((PeriphClkInit->PeriphClockSelection & RCC_PERIPHCLK_SAI1) == RCC_PERIPHCLK_SAI1)
3418375a:	6823      	ldr	r3, [r4, #0]
3418375c:	f013 5f80 	tst.w	r3, #268435456	@ 0x10000000
34183760:	d053      	beq.n	3418380a <HAL_RCCEx_PeriphCLKConfig+0xf56>
    if (PeriphClkInit->Sai1ClockSelection == RCC_SAI1CLKSOURCE_IC7)
34183762:	f8d4 3124 	ldr.w	r3, [r4, #292]	@ 0x124
34183766:	4a9b      	ldr	r2, [pc, #620]	@ (341839d4 <HAL_RCCEx_PeriphCLKConfig+0x1120>)
34183768:	4293      	cmp	r3, r2
3418376a:	d038      	beq.n	341837de <HAL_RCCEx_PeriphCLKConfig+0xf2a>
    else if (PeriphClkInit->Sai1ClockSelection == RCC_SAI1CLKSOURCE_IC8)
3418376c:	4a9a      	ldr	r2, [pc, #616]	@ (341839d8 <HAL_RCCEx_PeriphCLKConfig+0x1124>)
3418376e:	4293      	cmp	r3, r2
34183770:	d05f      	beq.n	34183832 <HAL_RCCEx_PeriphCLKConfig+0xf7e>
    else if (PeriphClkInit->Sai1ClockSelection == RCC_SAI1CLKSOURCE_CLKP)
34183772:	4a9a      	ldr	r2, [pc, #616]	@ (341839dc <HAL_RCCEx_PeriphCLKConfig+0x1128>)
34183774:	4293      	cmp	r3, r2
34183776:	d144      	bne.n	34183802 <HAL_RCCEx_PeriphCLKConfig+0xf4e>
  WRITE_REG(RCC->MISCENSR, RCC_MISCENSR_PERENS);
34183778:	4b95      	ldr	r3, [pc, #596]	@ (341839d0 <HAL_RCCEx_PeriphCLKConfig+0x111c>)
3418377a:	2240      	movs	r2, #64	@ 0x40
3418377c:	f8c3 2a48 	str.w	r2, [r3, #2632]	@ 0xa48
}
34183780:	e03f      	b.n	34183802 <HAL_RCCEx_PeriphCLKConfig+0xf4e>
      MODIFY_REG(RCC->IC8CFGR, RCC_IC8CFGR_IC8SEL | RCC_IC8CFGR_IC8INT,
34183782:	4a93      	ldr	r2, [pc, #588]	@ (341839d0 <HAL_RCCEx_PeriphCLKConfig+0x111c>)
34183784:	f8d2 30e0 	ldr.w	r3, [r2, #224]	@ 0xe0
34183788:	f023 5343 	bic.w	r3, r3, #817889280	@ 0x30c00000
3418378c:	f423 137c 	bic.w	r3, r3, #4128768	@ 0x3f0000
34183790:	6c21      	ldr	r1, [r4, #64]	@ 0x40
34183792:	6c60      	ldr	r0, [r4, #68]	@ 0x44
34183794:	3801      	subs	r0, #1
34183796:	ea41 4100 	orr.w	r1, r1, r0, lsl #16
3418379a:	430b      	orrs	r3, r1
3418379c:	f8c2 30e0 	str.w	r3, [r2, #224]	@ 0xe0
  WRITE_REG(RCC->DIVENSR, RCC_DIVENSR_IC8ENS);
341837a0:	2380      	movs	r3, #128	@ 0x80
341837a2:	f8c2 3a40 	str.w	r3, [r2, #2624]	@ 0xa40
}
341837a6:	e7ba      	b.n	3418371e <HAL_RCCEx_PeriphCLKConfig+0xe6a>
      MODIFY_REG(RCC->IC20CFGR, RCC_IC20CFGR_IC20SEL | RCC_IC20CFGR_IC20INT,
341837a8:	4a89      	ldr	r2, [pc, #548]	@ (341839d0 <HAL_RCCEx_PeriphCLKConfig+0x111c>)
341837aa:	f8d2 3110 	ldr.w	r3, [r2, #272]	@ 0x110
341837ae:	f023 5343 	bic.w	r3, r3, #817889280	@ 0x30c00000
341837b2:	f423 137c 	bic.w	r3, r3, #4128768	@ 0x3f0000
341837b6:	f8d4 10a0 	ldr.w	r1, [r4, #160]	@ 0xa0
341837ba:	f8d4 00a4 	ldr.w	r0, [r4, #164]	@ 0xa4
341837be:	3801      	subs	r0, #1
341837c0:	ea41 4100 	orr.w	r1, r1, r0, lsl #16
341837c4:	430b      	orrs	r3, r1
341837c6:	f8c2 3110 	str.w	r3, [r2, #272]	@ 0x110
  WRITE_REG(RCC->DIVENSR, RCC_DIVENSR_IC20ENS);
341837ca:	f44f 2300 	mov.w	r3, #524288	@ 0x80000
341837ce:	f8c2 3a40 	str.w	r3, [r2, #2624]	@ 0xa40
}
341837d2:	e7b8      	b.n	34183746 <HAL_RCCEx_PeriphCLKConfig+0xe92>
  WRITE_REG(RCC->MISCENSR, RCC_MISCENSR_PERENS);
341837d4:	4b7e      	ldr	r3, [pc, #504]	@ (341839d0 <HAL_RCCEx_PeriphCLKConfig+0x111c>)
341837d6:	2240      	movs	r2, #64	@ 0x40
341837d8:	f8c3 2a48 	str.w	r2, [r3, #2632]	@ 0xa48
}
341837dc:	e7b3      	b.n	34183746 <HAL_RCCEx_PeriphCLKConfig+0xe92>
      MODIFY_REG(RCC->IC7CFGR, RCC_IC7CFGR_IC7SEL | RCC_IC7CFGR_IC7INT,
341837de:	4a7c      	ldr	r2, [pc, #496]	@ (341839d0 <HAL_RCCEx_PeriphCLKConfig+0x111c>)
341837e0:	f8d2 30dc 	ldr.w	r3, [r2, #220]	@ 0xdc
341837e4:	f023 5343 	bic.w	r3, r3, #817889280	@ 0x30c00000
341837e8:	f423 137c 	bic.w	r3, r3, #4128768	@ 0x3f0000
341837ec:	6ba1      	ldr	r1, [r4, #56]	@ 0x38
341837ee:	6be0      	ldr	r0, [r4, #60]	@ 0x3c
341837f0:	3801      	subs	r0, #1
341837f2:	ea41 4100 	orr.w	r1, r1, r0, lsl #16
341837f6:	430b      	orrs	r3, r1
341837f8:	f8c2 30dc 	str.w	r3, [r2, #220]	@ 0xdc
  WRITE_REG(RCC->DIVENSR, RCC_DIVENSR_IC7ENS);
341837fc:	2340      	movs	r3, #64	@ 0x40
341837fe:	f8c2 3a40 	str.w	r3, [r2, #2624]	@ 0xa40
  LL_RCC_SetClockSource(ClkSource);
34183802:	f8d4 0124 	ldr.w	r0, [r4, #292]	@ 0x124
34183806:	f7fe ff67 	bl	341826d8 <LL_RCC_SetClockSource>
  if ((PeriphClkInit->PeriphClockSelection & RCC_PERIPHCLK_SAI2) == RCC_PERIPHCLK_SAI2)
3418380a:	6823      	ldr	r3, [r4, #0]
3418380c:	f013 5f00 	tst.w	r3, #536870912	@ 0x20000000
34183810:	d038      	beq.n	34183884 <HAL_RCCEx_PeriphCLKConfig+0xfd0>
    if (PeriphClkInit->Sai2ClockSelection == RCC_SAI2CLKSOURCE_IC7)
34183812:	f8d4 3128 	ldr.w	r3, [r4, #296]	@ 0x128
34183816:	4a72      	ldr	r2, [pc, #456]	@ (341839e0 <HAL_RCCEx_PeriphCLKConfig+0x112c>)
34183818:	4293      	cmp	r3, r2
3418381a:	d01d      	beq.n	34183858 <HAL_RCCEx_PeriphCLKConfig+0xfa4>
    else if (PeriphClkInit->Sai2ClockSelection == RCC_SAI2CLKSOURCE_IC8)
3418381c:	4a71      	ldr	r2, [pc, #452]	@ (341839e4 <HAL_RCCEx_PeriphCLKConfig+0x1130>)
3418381e:	4293      	cmp	r3, r2
34183820:	d041      	beq.n	341838a6 <HAL_RCCEx_PeriphCLKConfig+0xff2>
    else if (PeriphClkInit->Sai2ClockSelection == RCC_SAI2CLKSOURCE_CLKP)
34183822:	4a71      	ldr	r2, [pc, #452]	@ (341839e8 <HAL_RCCEx_PeriphCLKConfig+0x1134>)
34183824:	4293      	cmp	r3, r2
34183826:	d129      	bne.n	3418387c <HAL_RCCEx_PeriphCLKConfig+0xfc8>
  WRITE_REG(RCC->MISCENSR, RCC_MISCENSR_PERENS);
34183828:	4b69      	ldr	r3, [pc, #420]	@ (341839d0 <HAL_RCCEx_PeriphCLKConfig+0x111c>)
3418382a:	2240      	movs	r2, #64	@ 0x40
3418382c:	f8c3 2a48 	str.w	r2, [r3, #2632]	@ 0xa48
}
34183830:	e024      	b.n	3418387c <HAL_RCCEx_PeriphCLKConfig+0xfc8>
      MODIFY_REG(RCC->IC8CFGR, RCC_IC8CFGR_IC8SEL | RCC_IC8CFGR_IC8INT,
34183832:	4a67      	ldr	r2, [pc, #412]	@ (341839d0 <HAL_RCCEx_PeriphCLKConfig+0x111c>)
34183834:	f8d2 30e0 	ldr.w	r3, [r2, #224]	@ 0xe0
34183838:	f023 5343 	bic.w	r3, r3, #817889280	@ 0x30c00000
3418383c:	f423 137c 	bic.w	r3, r3, #4128768	@ 0x3f0000
34183840:	6c21      	ldr	r1, [r4, #64]	@ 0x40
34183842:	6c60      	ldr	r0, [r4, #68]	@ 0x44
34183844:	3801      	subs	r0, #1
34183846:	ea41 4100 	orr.w	r1, r1, r0, lsl #16
3418384a:	430b      	orrs	r3, r1
3418384c:	f8c2 30e0 	str.w	r3, [r2, #224]	@ 0xe0
  WRITE_REG(RCC->DIVENSR, RCC_DIVENSR_IC8ENS);
34183850:	2380      	movs	r3, #128	@ 0x80
34183852:	f8c2 3a40 	str.w	r3, [r2, #2624]	@ 0xa40
}
34183856:	e7d4      	b.n	34183802 <HAL_RCCEx_PeriphCLKConfig+0xf4e>
      MODIFY_REG(RCC->IC7CFGR, RCC_IC7CFGR_IC7SEL | RCC_IC7CFGR_IC7INT,
34183858:	4a5d      	ldr	r2, [pc, #372]	@ (341839d0 <HAL_RCCEx_PeriphCLKConfig+0x111c>)
3418385a:	f8d2 30dc 	ldr.w	r3, [r2, #220]	@ 0xdc
3418385e:	f023 5343 	bic.w	r3, r3, #817889280	@ 0x30c00000
34183862:	f423 137c 	bic.w	r3, r3, #4128768	@ 0x3f0000
34183866:	6ba1      	ldr	r1, [r4, #56]	@ 0x38
34183868:	6be0      	ldr	r0, [r4, #60]	@ 0x3c
3418386a:	3801      	subs	r0, #1
3418386c:	ea41 4100 	orr.w	r1, r1, r0, lsl #16
34183870:	430b      	orrs	r3, r1
34183872:	f8c2 30dc 	str.w	r3, [r2, #220]	@ 0xdc
  WRITE_REG(RCC->DIVENSR, RCC_DIVENSR_IC7ENS);
34183876:	2340      	movs	r3, #64	@ 0x40
34183878:	f8c2 3a40 	str.w	r3, [r2, #2624]	@ 0xa40
  LL_RCC_SetClockSource(ClkSource);
3418387c:	f8d4 0128 	ldr.w	r0, [r4, #296]	@ 0x128
34183880:	f7fe ff2a 	bl	341826d8 <LL_RCC_SetClockSource>
  if ((PeriphClkInit->PeriphClockSelection & RCC_PERIPHCLK_SPDIFRX1) == RCC_PERIPHCLK_SPDIFRX1)
34183884:	6863      	ldr	r3, [r4, #4]
34183886:	f013 0f01 	tst.w	r3, #1
3418388a:	d03b      	beq.n	34183904 <HAL_RCCEx_PeriphCLKConfig+0x1050>
    if (PeriphClkInit->Spdifrx1ClockSelection == RCC_SPDIFRX1CLKSOURCE_IC7)
3418388c:	f8d4 314c 	ldr.w	r3, [r4, #332]	@ 0x14c
34183890:	2b02      	cmp	r3, #2
34183892:	d01b      	beq.n	341838cc <HAL_RCCEx_PeriphCLKConfig+0x1018>
    else if (PeriphClkInit->Spdifrx1ClockSelection == RCC_SPDIFRX1CLKSOURCE_IC8)
34183894:	2b03      	cmp	r3, #3
34183896:	d049      	beq.n	3418392c <HAL_RCCEx_PeriphCLKConfig+0x1078>
    else if (PeriphClkInit->Spdifrx1ClockSelection == RCC_SPDIFRX1CLKSOURCE_CLKP)
34183898:	2b01      	cmp	r3, #1
3418389a:	d129      	bne.n	341838f0 <HAL_RCCEx_PeriphCLKConfig+0x103c>
  WRITE_REG(RCC->MISCENSR, RCC_MISCENSR_PERENS);
3418389c:	4b4c      	ldr	r3, [pc, #304]	@ (341839d0 <HAL_RCCEx_PeriphCLKConfig+0x111c>)
3418389e:	2240      	movs	r2, #64	@ 0x40
341838a0:	f8c3 2a48 	str.w	r2, [r3, #2632]	@ 0xa48
}
341838a4:	e024      	b.n	341838f0 <HAL_RCCEx_PeriphCLKConfig+0x103c>
      MODIFY_REG(RCC->IC8CFGR, RCC_IC8CFGR_IC8SEL | RCC_IC8CFGR_IC8INT,
341838a6:	4a4a      	ldr	r2, [pc, #296]	@ (341839d0 <HAL_RCCEx_PeriphCLKConfig+0x111c>)
341838a8:	f8d2 30e0 	ldr.w	r3, [r2, #224]	@ 0xe0
341838ac:	f023 5343 	bic.w	r3, r3, #817889280	@ 0x30c00000
341838b0:	f423 137c 	bic.w	r3, r3, #4128768	@ 0x3f0000
341838b4:	6c21      	ldr	r1, [r4, #64]	@ 0x40
341838b6:	6c60      	ldr	r0, [r4, #68]	@ 0x44
341838b8:	3801      	subs	r0, #1
341838ba:	ea41 4100 	orr.w	r1, r1, r0, lsl #16
341838be:	430b      	orrs	r3, r1
341838c0:	f8c2 30e0 	str.w	r3, [r2, #224]	@ 0xe0
  WRITE_REG(RCC->DIVENSR, RCC_DIVENSR_IC8ENS);
341838c4:	2380      	movs	r3, #128	@ 0x80
341838c6:	f8c2 3a40 	str.w	r3, [r2, #2624]	@ 0xa40
}
341838ca:	e7d7      	b.n	3418387c <HAL_RCCEx_PeriphCLKConfig+0xfc8>
      MODIFY_REG(RCC->IC7CFGR, RCC_IC7CFGR_IC7SEL | RCC_IC7CFGR_IC7INT,
341838cc:	4a40      	ldr	r2, [pc, #256]	@ (341839d0 <HAL_RCCEx_PeriphCLKConfig+0x111c>)
341838ce:	f8d2 30dc 	ldr.w	r3, [r2, #220]	@ 0xdc
341838d2:	f023 5343 	bic.w	r3, r3, #817889280	@ 0x30c00000
341838d6:	f423 137c 	bic.w	r3, r3, #4128768	@ 0x3f0000
341838da:	6ba1      	ldr	r1, [r4, #56]	@ 0x38
341838dc:	6be0      	ldr	r0, [r4, #60]	@ 0x3c
341838de:	3801      	subs	r0, #1
341838e0:	ea41 4100 	orr.w	r1, r1, r0, lsl #16
341838e4:	430b      	orrs	r3, r1
341838e6:	f8c2 30dc 	str.w	r3, [r2, #220]	@ 0xdc
  WRITE_REG(RCC->DIVENSR, RCC_DIVENSR_IC7ENS);
341838ea:	2340      	movs	r3, #64	@ 0x40
341838ec:	f8c2 3a40 	str.w	r3, [r2, #2624]	@ 0xa40
    __HAL_RCC_SPDIFRX1_CONFIG(PeriphClkInit->Spdifrx1ClockSelection);
341838f0:	f8d4 314c 	ldr.w	r3, [r4, #332]	@ 0x14c
  MODIFY_REG(RCC->CCIPR9, RCC_CCIPR9_SPDIFRX1SEL, ClkSource);
341838f4:	4936      	ldr	r1, [pc, #216]	@ (341839d0 <HAL_RCCEx_PeriphCLKConfig+0x111c>)
341838f6:	f8d1 2164 	ldr.w	r2, [r1, #356]	@ 0x164
341838fa:	f022 0207 	bic.w	r2, r2, #7
341838fe:	4313      	orrs	r3, r2
34183900:	f8c1 3164 	str.w	r3, [r1, #356]	@ 0x164
  if ((PeriphClkInit->PeriphClockSelection & RCC_PERIPHCLK_SPI1) == RCC_PERIPHCLK_SPI1)
34183904:	6863      	ldr	r3, [r4, #4]
34183906:	f013 0f02 	tst.w	r3, #2
3418390a:	d038      	beq.n	3418397e <HAL_RCCEx_PeriphCLKConfig+0x10ca>
    if (PeriphClkInit->Spi1ClockSelection == RCC_SPI1CLKSOURCE_IC8)
3418390c:	f8d4 3134 	ldr.w	r3, [r4, #308]	@ 0x134
34183910:	4a36      	ldr	r2, [pc, #216]	@ (341839ec <HAL_RCCEx_PeriphCLKConfig+0x1138>)
34183912:	4293      	cmp	r3, r2
34183914:	d01d      	beq.n	34183952 <HAL_RCCEx_PeriphCLKConfig+0x109e>
    else if (PeriphClkInit->Spi1ClockSelection == RCC_SPI1CLKSOURCE_IC9)
34183916:	4a36      	ldr	r2, [pc, #216]	@ (341839f0 <HAL_RCCEx_PeriphCLKConfig+0x113c>)
34183918:	4293      	cmp	r3, r2
3418391a:	d044      	beq.n	341839a6 <HAL_RCCEx_PeriphCLKConfig+0x10f2>
    else if (PeriphClkInit->Spi1ClockSelection == RCC_SPI1CLKSOURCE_CLKP)
3418391c:	4a35      	ldr	r2, [pc, #212]	@ (341839f4 <HAL_RCCEx_PeriphCLKConfig+0x1140>)
3418391e:	4293      	cmp	r3, r2
34183920:	d129      	bne.n	34183976 <HAL_RCCEx_PeriphCLKConfig+0x10c2>
  WRITE_REG(RCC->MISCENSR, RCC_MISCENSR_PERENS);
34183922:	4b2b      	ldr	r3, [pc, #172]	@ (341839d0 <HAL_RCCEx_PeriphCLKConfig+0x111c>)
34183924:	2240      	movs	r2, #64	@ 0x40
34183926:	f8c3 2a48 	str.w	r2, [r3, #2632]	@ 0xa48
}
3418392a:	e024      	b.n	34183976 <HAL_RCCEx_PeriphCLKConfig+0x10c2>
      MODIFY_REG(RCC->IC8CFGR, RCC_IC8CFGR_IC8SEL | RCC_IC8CFGR_IC8INT,
3418392c:	4a28      	ldr	r2, [pc, #160]	@ (341839d0 <HAL_RCCEx_PeriphCLKConfig+0x111c>)
3418392e:	f8d2 30e0 	ldr.w	r3, [r2, #224]	@ 0xe0
34183932:	f023 5343 	bic.w	r3, r3, #817889280	@ 0x30c00000
34183936:	f423 137c 	bic.w	r3, r3, #4128768	@ 0x3f0000
3418393a:	6c21      	ldr	r1, [r4, #64]	@ 0x40
3418393c:	6c60      	ldr	r0, [r4, #68]	@ 0x44
3418393e:	3801      	subs	r0, #1
34183940:	ea41 4100 	orr.w	r1, r1, r0, lsl #16
34183944:	430b      	orrs	r3, r1
34183946:	f8c2 30e0 	str.w	r3, [r2, #224]	@ 0xe0
  WRITE_REG(RCC->DIVENSR, RCC_DIVENSR_IC8ENS);
3418394a:	2380      	movs	r3, #128	@ 0x80
3418394c:	f8c2 3a40 	str.w	r3, [r2, #2624]	@ 0xa40
}
34183950:	e7ce      	b.n	341838f0 <HAL_RCCEx_PeriphCLKConfig+0x103c>
      MODIFY_REG(RCC->IC8CFGR, RCC_IC8CFGR_IC8SEL | RCC_IC8CFGR_IC8INT,
34183952:	4a1f      	ldr	r2, [pc, #124]	@ (341839d0 <HAL_RCCEx_PeriphCLKConfig+0x111c>)
34183954:	f8d2 30e0 	ldr.w	r3, [r2, #224]	@ 0xe0
34183958:	f023 5343 	bic.w	r3, r3, #817889280	@ 0x30c00000
3418395c:	f423 137c 	bic.w	r3, r3, #4128768	@ 0x3f0000
34183960:	6c21      	ldr	r1, [r4, #64]	@ 0x40
34183962:	6c60      	ldr	r0, [r4, #68]	@ 0x44
34183964:	3801      	subs	r0, #1
34183966:	ea41 4100 	orr.w	r1, r1, r0, lsl #16
3418396a:	430b      	orrs	r3, r1
3418396c:	f8c2 30e0 	str.w	r3, [r2, #224]	@ 0xe0
  WRITE_REG(RCC->DIVENSR, RCC_DIVENSR_IC8ENS);
34183970:	2380      	movs	r3, #128	@ 0x80
34183972:	f8c2 3a40 	str.w	r3, [r2, #2624]	@ 0xa40
  LL_RCC_SetClockSource(ClkSource);
34183976:	f8d4 0134 	ldr.w	r0, [r4, #308]	@ 0x134
3418397a:	f7fe fead 	bl	341826d8 <LL_RCC_SetClockSource>
  if ((PeriphClkInit->PeriphClockSelection & RCC_PERIPHCLK_SPI2) == RCC_PERIPHCLK_SPI2)
3418397e:	6863      	ldr	r3, [r4, #4]
34183980:	f013 0f04 	tst.w	r3, #4
34183984:	d054      	beq.n	34183a30 <HAL_RCCEx_PeriphCLKConfig+0x117c>
    if (PeriphClkInit->Spi2ClockSelection == RCC_SPI2CLKSOURCE_IC8)
34183986:	f8d4 3138 	ldr.w	r3, [r4, #312]	@ 0x138
3418398a:	4a1b      	ldr	r2, [pc, #108]	@ (341839f8 <HAL_RCCEx_PeriphCLKConfig+0x1144>)
3418398c:	4293      	cmp	r3, r2
3418398e:	d039      	beq.n	34183a04 <HAL_RCCEx_PeriphCLKConfig+0x1150>
    else if (PeriphClkInit->Spi2ClockSelection == RCC_SPI2CLKSOURCE_IC9)
34183990:	4a1a      	ldr	r2, [pc, #104]	@ (341839fc <HAL_RCCEx_PeriphCLKConfig+0x1148>)
34183992:	4293      	cmp	r3, r2
34183994:	d060      	beq.n	34183a58 <HAL_RCCEx_PeriphCLKConfig+0x11a4>
    else if (PeriphClkInit->Spi2ClockSelection == RCC_SPI2CLKSOURCE_CLKP)
34183996:	4a1a      	ldr	r2, [pc, #104]	@ (34183a00 <HAL_RCCEx_PeriphCLKConfig+0x114c>)
34183998:	4293      	cmp	r3, r2
3418399a:	d145      	bne.n	34183a28 <HAL_RCCEx_PeriphCLKConfig+0x1174>
  WRITE_REG(RCC->MISCENSR, RCC_MISCENSR_PERENS);
3418399c:	4b0c      	ldr	r3, [pc, #48]	@ (341839d0 <HAL_RCCEx_PeriphCLKConfig+0x111c>)
3418399e:	2240      	movs	r2, #64	@ 0x40
341839a0:	f8c3 2a48 	str.w	r2, [r3, #2632]	@ 0xa48
}
341839a4:	e040      	b.n	34183a28 <HAL_RCCEx_PeriphCLKConfig+0x1174>
      MODIFY_REG(RCC->IC9CFGR, RCC_IC9CFGR_IC9SEL | RCC_IC9CFGR_IC9INT,
341839a6:	4a0a      	ldr	r2, [pc, #40]	@ (341839d0 <HAL_RCCEx_PeriphCLKConfig+0x111c>)
341839a8:	f8d2 30e4 	ldr.w	r3, [r2, #228]	@ 0xe4
341839ac:	f023 5343 	bic.w	r3, r3, #817889280	@ 0x30c00000
341839b0:	f423 137c 	bic.w	r3, r3, #4128768	@ 0x3f0000
341839b4:	6ca1      	ldr	r1, [r4, #72]	@ 0x48
341839b6:	6ce0      	ldr	r0, [r4, #76]	@ 0x4c
341839b8:	3801      	subs	r0, #1
341839ba:	ea41 4100 	orr.w	r1, r1, r0, lsl #16
341839be:	430b      	orrs	r3, r1
341839c0:	f8c2 30e4 	str.w	r3, [r2, #228]	@ 0xe4
  WRITE_REG(RCC->DIVENSR, RCC_DIVENSR_IC9ENS);
341839c4:	f44f 7380 	mov.w	r3, #256	@ 0x100
341839c8:	f8c2 3a40 	str.w	r3, [r2, #2624]	@ 0xa40
}
341839cc:	e7d3      	b.n	34183976 <HAL_RCCEx_PeriphCLKConfig+0x10c2>
341839ce:	bf00      	nop
341839d0:	56028000 	.word	0x56028000
341839d4:	07021418 	.word	0x07021418
341839d8:	07031418 	.word	0x07031418
341839dc:	07011418 	.word	0x07011418
341839e0:	07021818 	.word	0x07021818
341839e4:	07031818 	.word	0x07031818
341839e8:	07011818 	.word	0x07011818
341839ec:	07020420 	.word	0x07020420
341839f0:	07030420 	.word	0x07030420
341839f4:	07010420 	.word	0x07010420
341839f8:	07020820 	.word	0x07020820
341839fc:	07030820 	.word	0x07030820
34183a00:	07010820 	.word	0x07010820
      MODIFY_REG(RCC->IC8CFGR, RCC_IC8CFGR_IC8SEL | RCC_IC8CFGR_IC8INT,
34183a04:	4abb      	ldr	r2, [pc, #748]	@ (34183cf4 <HAL_RCCEx_PeriphCLKConfig+0x1440>)
34183a06:	f8d2 30e0 	ldr.w	r3, [r2, #224]	@ 0xe0
34183a0a:	f023 5343 	bic.w	r3, r3, #817889280	@ 0x30c00000
34183a0e:	f423 137c 	bic.w	r3, r3, #4128768	@ 0x3f0000
34183a12:	6c21      	ldr	r1, [r4, #64]	@ 0x40
34183a14:	6c60      	ldr	r0, [r4, #68]	@ 0x44
34183a16:	3801      	subs	r0, #1
34183a18:	ea41 4100 	orr.w	r1, r1, r0, lsl #16
34183a1c:	430b      	orrs	r3, r1
34183a1e:	f8c2 30e0 	str.w	r3, [r2, #224]	@ 0xe0
  WRITE_REG(RCC->DIVENSR, RCC_DIVENSR_IC8ENS);
34183a22:	2380      	movs	r3, #128	@ 0x80
34183a24:	f8c2 3a40 	str.w	r3, [r2, #2624]	@ 0xa40
  LL_RCC_SetClockSource(ClkSource);
34183a28:	f8d4 0138 	ldr.w	r0, [r4, #312]	@ 0x138
34183a2c:	f7fe fe54 	bl	341826d8 <LL_RCC_SetClockSource>
  if ((PeriphClkInit->PeriphClockSelection & RCC_PERIPHCLK_SPI3) == RCC_PERIPHCLK_SPI3)
34183a30:	6863      	ldr	r3, [r4, #4]
34183a32:	f013 0f08 	tst.w	r3, #8
34183a36:	d039      	beq.n	34183aac <HAL_RCCEx_PeriphCLKConfig+0x11f8>
    if (PeriphClkInit->Spi3ClockSelection == RCC_SPI3CLKSOURCE_IC8)
34183a38:	f8d4 313c 	ldr.w	r3, [r4, #316]	@ 0x13c
34183a3c:	4aae      	ldr	r2, [pc, #696]	@ (34183cf8 <HAL_RCCEx_PeriphCLKConfig+0x1444>)
34183a3e:	4293      	cmp	r3, r2
34183a40:	d01e      	beq.n	34183a80 <HAL_RCCEx_PeriphCLKConfig+0x11cc>
    else if (PeriphClkInit->Spi3ClockSelection == RCC_SPI3CLKSOURCE_IC9)
34183a42:	4aae      	ldr	r2, [pc, #696]	@ (34183cfc <HAL_RCCEx_PeriphCLKConfig+0x1448>)
34183a44:	4293      	cmp	r3, r2
34183a46:	d045      	beq.n	34183ad4 <HAL_RCCEx_PeriphCLKConfig+0x1220>
    else if (PeriphClkInit->Spi3ClockSelection == RCC_SPI3CLKSOURCE_CLKP)
34183a48:	4aad      	ldr	r2, [pc, #692]	@ (34183d00 <HAL_RCCEx_PeriphCLKConfig+0x144c>)
34183a4a:	4293      	cmp	r3, r2
34183a4c:	d12a      	bne.n	34183aa4 <HAL_RCCEx_PeriphCLKConfig+0x11f0>
  WRITE_REG(RCC->MISCENSR, RCC_MISCENSR_PERENS);
34183a4e:	4ba9      	ldr	r3, [pc, #676]	@ (34183cf4 <HAL_RCCEx_PeriphCLKConfig+0x1440>)
34183a50:	2240      	movs	r2, #64	@ 0x40
34183a52:	f8c3 2a48 	str.w	r2, [r3, #2632]	@ 0xa48
}
34183a56:	e025      	b.n	34183aa4 <HAL_RCCEx_PeriphCLKConfig+0x11f0>
      MODIFY_REG(RCC->IC9CFGR, RCC_IC9CFGR_IC9SEL | RCC_IC9CFGR_IC9INT,
34183a58:	4aa6      	ldr	r2, [pc, #664]	@ (34183cf4 <HAL_RCCEx_PeriphCLKConfig+0x1440>)
34183a5a:	f8d2 30e4 	ldr.w	r3, [r2, #228]	@ 0xe4
34183a5e:	f023 5343 	bic.w	r3, r3, #817889280	@ 0x30c00000
34183a62:	f423 137c 	bic.w	r3, r3, #4128768	@ 0x3f0000
34183a66:	6ca1      	ldr	r1, [r4, #72]	@ 0x48
34183a68:	6ce0      	ldr	r0, [r4, #76]	@ 0x4c
34183a6a:	3801      	subs	r0, #1
34183a6c:	ea41 4100 	orr.w	r1, r1, r0, lsl #16
34183a70:	430b      	orrs	r3, r1
34183a72:	f8c2 30e4 	str.w	r3, [r2, #228]	@ 0xe4
  WRITE_REG(RCC->DIVENSR, RCC_DIVENSR_IC9ENS);
34183a76:	f44f 7380 	mov.w	r3, #256	@ 0x100
34183a7a:	f8c2 3a40 	str.w	r3, [r2, #2624]	@ 0xa40
}
34183a7e:	e7d3      	b.n	34183a28 <HAL_RCCEx_PeriphCLKConfig+0x1174>
      MODIFY_REG(RCC->IC8CFGR, RCC_IC8CFGR_IC8SEL | RCC_IC8CFGR_IC8INT,
34183a80:	4a9c      	ldr	r2, [pc, #624]	@ (34183cf4 <HAL_RCCEx_PeriphCLKConfig+0x1440>)
34183a82:	f8d2 30e0 	ldr.w	r3, [r2, #224]	@ 0xe0
34183a86:	f023 5343 	bic.w	r3, r3, #817889280	@ 0x30c00000
34183a8a:	f423 137c 	bic.w	r3, r3, #4128768	@ 0x3f0000
34183a8e:	6c21      	ldr	r1, [r4, #64]	@ 0x40
34183a90:	6c60      	ldr	r0, [r4, #68]	@ 0x44
34183a92:	3801      	subs	r0, #1
34183a94:	ea41 4100 	orr.w	r1, r1, r0, lsl #16
34183a98:	430b      	orrs	r3, r1
34183a9a:	f8c2 30e0 	str.w	r3, [r2, #224]	@ 0xe0
  WRITE_REG(RCC->DIVENSR, RCC_DIVENSR_IC8ENS);
34183a9e:	2380      	movs	r3, #128	@ 0x80
34183aa0:	f8c2 3a40 	str.w	r3, [r2, #2624]	@ 0xa40
  LL_RCC_SetClockSource(ClkSource);
34183aa4:	f8d4 013c 	ldr.w	r0, [r4, #316]	@ 0x13c
34183aa8:	f7fe fe16 	bl	341826d8 <LL_RCC_SetClockSource>
  if ((PeriphClkInit->PeriphClockSelection & RCC_PERIPHCLK_SPI4) == RCC_PERIPHCLK_SPI4)
34183aac:	6863      	ldr	r3, [r4, #4]
34183aae:	f013 0f10 	tst.w	r3, #16
34183ab2:	d03a      	beq.n	34183b2a <HAL_RCCEx_PeriphCLKConfig+0x1276>
    if (PeriphClkInit->Spi4ClockSelection == RCC_SPI4CLKSOURCE_IC9)
34183ab4:	f8d4 3140 	ldr.w	r3, [r4, #320]	@ 0x140
34183ab8:	4a92      	ldr	r2, [pc, #584]	@ (34183d04 <HAL_RCCEx_PeriphCLKConfig+0x1450>)
34183aba:	4293      	cmp	r3, r2
34183abc:	d01e      	beq.n	34183afc <HAL_RCCEx_PeriphCLKConfig+0x1248>
    else if (PeriphClkInit->Spi4ClockSelection == RCC_SPI4CLKSOURCE_IC14)
34183abe:	4a92      	ldr	r2, [pc, #584]	@ (34183d08 <HAL_RCCEx_PeriphCLKConfig+0x1454>)
34183ac0:	4293      	cmp	r3, r2
34183ac2:	d046      	beq.n	34183b52 <HAL_RCCEx_PeriphCLKConfig+0x129e>
    else if (PeriphClkInit->Spi4ClockSelection == RCC_SPI4CLKSOURCE_CLKP)
34183ac4:	4a91      	ldr	r2, [pc, #580]	@ (34183d0c <HAL_RCCEx_PeriphCLKConfig+0x1458>)
34183ac6:	4293      	cmp	r3, r2
34183ac8:	d12b      	bne.n	34183b22 <HAL_RCCEx_PeriphCLKConfig+0x126e>
  WRITE_REG(RCC->MISCENSR, RCC_MISCENSR_PERENS);
34183aca:	4b8a      	ldr	r3, [pc, #552]	@ (34183cf4 <HAL_RCCEx_PeriphCLKConfig+0x1440>)
34183acc:	2240      	movs	r2, #64	@ 0x40
34183ace:	f8c3 2a48 	str.w	r2, [r3, #2632]	@ 0xa48
}
34183ad2:	e026      	b.n	34183b22 <HAL_RCCEx_PeriphCLKConfig+0x126e>
      MODIFY_REG(RCC->IC9CFGR, RCC_IC9CFGR_IC9SEL | RCC_IC9CFGR_IC9INT,
34183ad4:	4a87      	ldr	r2, [pc, #540]	@ (34183cf4 <HAL_RCCEx_PeriphCLKConfig+0x1440>)
34183ad6:	f8d2 30e4 	ldr.w	r3, [r2, #228]	@ 0xe4
34183ada:	f023 5343 	bic.w	r3, r3, #817889280	@ 0x30c00000
34183ade:	f423 137c 	bic.w	r3, r3, #4128768	@ 0x3f0000
34183ae2:	6ca1      	ldr	r1, [r4, #72]	@ 0x48
34183ae4:	6ce0      	ldr	r0, [r4, #76]	@ 0x4c
34183ae6:	3801      	subs	r0, #1
34183ae8:	ea41 4100 	orr.w	r1, r1, r0, lsl #16
34183aec:	430b      	orrs	r3, r1
34183aee:	f8c2 30e4 	str.w	r3, [r2, #228]	@ 0xe4
  WRITE_REG(RCC->DIVENSR, RCC_DIVENSR_IC9ENS);
34183af2:	f44f 7380 	mov.w	r3, #256	@ 0x100
34183af6:	f8c2 3a40 	str.w	r3, [r2, #2624]	@ 0xa40
}
34183afa:	e7d3      	b.n	34183aa4 <HAL_RCCEx_PeriphCLKConfig+0x11f0>
      MODIFY_REG(RCC->IC9CFGR, RCC_IC9CFGR_IC9SEL | RCC_IC9CFGR_IC9INT,
34183afc:	4a7d      	ldr	r2, [pc, #500]	@ (34183cf4 <HAL_RCCEx_PeriphCLKConfig+0x1440>)
34183afe:	f8d2 30e4 	ldr.w	r3, [r2, #228]	@ 0xe4
34183b02:	f023 5343 	bic.w	r3, r3, #817889280	@ 0x30c00000
34183b06:	f423 137c 	bic.w	r3, r3, #4128768	@ 0x3f0000
34183b0a:	6ca1      	ldr	r1, [r4, #72]	@ 0x48
34183b0c:	6ce0      	ldr	r0, [r4, #76]	@ 0x4c
34183b0e:	3801      	subs	r0, #1
34183b10:	ea41 4100 	orr.w	r1, r1, r0, lsl #16
34183b14:	430b      	orrs	r3, r1
34183b16:	f8c2 30e4 	str.w	r3, [r2, #228]	@ 0xe4
  WRITE_REG(RCC->DIVENSR, RCC_DIVENSR_IC9ENS);
34183b1a:	f44f 7380 	mov.w	r3, #256	@ 0x100
34183b1e:	f8c2 3a40 	str.w	r3, [r2, #2624]	@ 0xa40
  LL_RCC_SetClockSource(ClkSource);
34183b22:	f8d4 0140 	ldr.w	r0, [r4, #320]	@ 0x140
34183b26:	f7fe fdd7 	bl	341826d8 <LL_RCC_SetClockSource>
  if ((PeriphClkInit->PeriphClockSelection & RCC_PERIPHCLK_SPI5) == RCC_PERIPHCLK_SPI5)
34183b2a:	6863      	ldr	r3, [r4, #4]
34183b2c:	f013 0f20 	tst.w	r3, #32
34183b30:	d03a      	beq.n	34183ba8 <HAL_RCCEx_PeriphCLKConfig+0x12f4>
    if (PeriphClkInit->Spi5ClockSelection == RCC_SPI5CLKSOURCE_IC9)
34183b32:	f8d4 3144 	ldr.w	r3, [r4, #324]	@ 0x144
34183b36:	4a76      	ldr	r2, [pc, #472]	@ (34183d10 <HAL_RCCEx_PeriphCLKConfig+0x145c>)
34183b38:	4293      	cmp	r3, r2
34183b3a:	d01e      	beq.n	34183b7a <HAL_RCCEx_PeriphCLKConfig+0x12c6>
    else if (PeriphClkInit->Spi5ClockSelection == RCC_SPI5CLKSOURCE_IC14)
34183b3c:	4a75      	ldr	r2, [pc, #468]	@ (34183d14 <HAL_RCCEx_PeriphCLKConfig+0x1460>)
34183b3e:	4293      	cmp	r3, r2
34183b40:	d046      	beq.n	34183bd0 <HAL_RCCEx_PeriphCLKConfig+0x131c>
    else if (PeriphClkInit->Spi5ClockSelection == RCC_SPI5CLKSOURCE_CLKP)
34183b42:	4a75      	ldr	r2, [pc, #468]	@ (34183d18 <HAL_RCCEx_PeriphCLKConfig+0x1464>)
34183b44:	4293      	cmp	r3, r2
34183b46:	d12b      	bne.n	34183ba0 <HAL_RCCEx_PeriphCLKConfig+0x12ec>
  WRITE_REG(RCC->MISCENSR, RCC_MISCENSR_PERENS);
34183b48:	4b6a      	ldr	r3, [pc, #424]	@ (34183cf4 <HAL_RCCEx_PeriphCLKConfig+0x1440>)
34183b4a:	2240      	movs	r2, #64	@ 0x40
34183b4c:	f8c3 2a48 	str.w	r2, [r3, #2632]	@ 0xa48
}
34183b50:	e026      	b.n	34183ba0 <HAL_RCCEx_PeriphCLKConfig+0x12ec>
      MODIFY_REG(RCC->IC14CFGR, RCC_IC14CFGR_IC14SEL | RCC_IC14CFGR_IC14INT,
34183b52:	4a68      	ldr	r2, [pc, #416]	@ (34183cf4 <HAL_RCCEx_PeriphCLKConfig+0x1440>)
34183b54:	f8d2 30f8 	ldr.w	r3, [r2, #248]	@ 0xf8
34183b58:	f023 5343 	bic.w	r3, r3, #817889280	@ 0x30c00000
34183b5c:	f423 137c 	bic.w	r3, r3, #4128768	@ 0x3f0000
34183b60:	6f21      	ldr	r1, [r4, #112]	@ 0x70
34183b62:	6f60      	ldr	r0, [r4, #116]	@ 0x74
34183b64:	3801      	subs	r0, #1
34183b66:	ea41 4100 	orr.w	r1, r1, r0, lsl #16
34183b6a:	430b      	orrs	r3, r1
34183b6c:	f8c2 30f8 	str.w	r3, [r2, #248]	@ 0xf8
  WRITE_REG(RCC->DIVENSR, RCC_DIVENSR_IC14ENS);
34183b70:	f44f 5300 	mov.w	r3, #8192	@ 0x2000
34183b74:	f8c2 3a40 	str.w	r3, [r2, #2624]	@ 0xa40
}
34183b78:	e7d3      	b.n	34183b22 <HAL_RCCEx_PeriphCLKConfig+0x126e>
      MODIFY_REG(RCC->IC9CFGR, RCC_IC9CFGR_IC9SEL | RCC_IC9CFGR_IC9INT,
34183b7a:	4a5e      	ldr	r2, [pc, #376]	@ (34183cf4 <HAL_RCCEx_PeriphCLKConfig+0x1440>)
34183b7c:	f8d2 30e4 	ldr.w	r3, [r2, #228]	@ 0xe4
34183b80:	f023 5343 	bic.w	r3, r3, #817889280	@ 0x30c00000
34183b84:	f423 137c 	bic.w	r3, r3, #4128768	@ 0x3f0000
34183b88:	6ca1      	ldr	r1, [r4, #72]	@ 0x48
34183b8a:	6ce0      	ldr	r0, [r4, #76]	@ 0x4c
34183b8c:	3801      	subs	r0, #1
34183b8e:	ea41 4100 	orr.w	r1, r1, r0, lsl #16
34183b92:	430b      	orrs	r3, r1
34183b94:	f8c2 30e4 	str.w	r3, [r2, #228]	@ 0xe4
  WRITE_REG(RCC->DIVENSR, RCC_DIVENSR_IC9ENS);
34183b98:	f44f 7380 	mov.w	r3, #256	@ 0x100
34183b9c:	f8c2 3a40 	str.w	r3, [r2, #2624]	@ 0xa40
  LL_RCC_SetClockSource(ClkSource);
34183ba0:	f8d4 0144 	ldr.w	r0, [r4, #324]	@ 0x144
34183ba4:	f7fe fd98 	bl	341826d8 <LL_RCC_SetClockSource>
  if ((PeriphClkInit->PeriphClockSelection & RCC_PERIPHCLK_SPI6) == RCC_PERIPHCLK_SPI6)
34183ba8:	6863      	ldr	r3, [r4, #4]
34183baa:	f013 0f40 	tst.w	r3, #64	@ 0x40
34183bae:	d039      	beq.n	34183c24 <HAL_RCCEx_PeriphCLKConfig+0x1370>
    if (PeriphClkInit->Spi6ClockSelection == RCC_SPI6CLKSOURCE_IC8)
34183bb0:	f8d4 3148 	ldr.w	r3, [r4, #328]	@ 0x148
34183bb4:	4a59      	ldr	r2, [pc, #356]	@ (34183d1c <HAL_RCCEx_PeriphCLKConfig+0x1468>)
34183bb6:	4293      	cmp	r3, r2
34183bb8:	d01e      	beq.n	34183bf8 <HAL_RCCEx_PeriphCLKConfig+0x1344>
    else if (PeriphClkInit->Spi6ClockSelection == RCC_SPI6CLKSOURCE_IC9)
34183bba:	4a59      	ldr	r2, [pc, #356]	@ (34183d20 <HAL_RCCEx_PeriphCLKConfig+0x146c>)
34183bbc:	4293      	cmp	r3, r2
34183bbe:	d045      	beq.n	34183c4c <HAL_RCCEx_PeriphCLKConfig+0x1398>
    else if (PeriphClkInit->Spi6ClockSelection == RCC_SPI6CLKSOURCE_CLKP)
34183bc0:	4a58      	ldr	r2, [pc, #352]	@ (34183d24 <HAL_RCCEx_PeriphCLKConfig+0x1470>)
34183bc2:	4293      	cmp	r3, r2
34183bc4:	d12a      	bne.n	34183c1c <HAL_RCCEx_PeriphCLKConfig+0x1368>
  WRITE_REG(RCC->MISCENSR, RCC_MISCENSR_PERENS);
34183bc6:	4b4b      	ldr	r3, [pc, #300]	@ (34183cf4 <HAL_RCCEx_PeriphCLKConfig+0x1440>)
34183bc8:	2240      	movs	r2, #64	@ 0x40
34183bca:	f8c3 2a48 	str.w	r2, [r3, #2632]	@ 0xa48
}
34183bce:	e025      	b.n	34183c1c <HAL_RCCEx_PeriphCLKConfig+0x1368>
      MODIFY_REG(RCC->IC14CFGR, RCC_IC14CFGR_IC14SEL | RCC_IC14CFGR_IC14INT,
34183bd0:	4a48      	ldr	r2, [pc, #288]	@ (34183cf4 <HAL_RCCEx_PeriphCLKConfig+0x1440>)
34183bd2:	f8d2 30f8 	ldr.w	r3, [r2, #248]	@ 0xf8
34183bd6:	f023 5343 	bic.w	r3, r3, #817889280	@ 0x30c00000
34183bda:	f423 137c 	bic.w	r3, r3, #4128768	@ 0x3f0000
34183bde:	6f21      	ldr	r1, [r4, #112]	@ 0x70
34183be0:	6f60      	ldr	r0, [r4, #116]	@ 0x74
34183be2:	3801      	subs	r0, #1
34183be4:	ea41 4100 	orr.w	r1, r1, r0, lsl #16
34183be8:	430b      	orrs	r3, r1
34183bea:	f8c2 30f8 	str.w	r3, [r2, #248]	@ 0xf8
  WRITE_REG(RCC->DIVENSR, RCC_DIVENSR_IC14ENS);
34183bee:	f44f 5300 	mov.w	r3, #8192	@ 0x2000
34183bf2:	f8c2 3a40 	str.w	r3, [r2, #2624]	@ 0xa40
}
34183bf6:	e7d3      	b.n	34183ba0 <HAL_RCCEx_PeriphCLKConfig+0x12ec>
      MODIFY_REG(RCC->IC8CFGR, RCC_IC8CFGR_IC8SEL | RCC_IC8CFGR_IC8INT,
34183bf8:	4a3e      	ldr	r2, [pc, #248]	@ (34183cf4 <HAL_RCCEx_PeriphCLKConfig+0x1440>)
34183bfa:	f8d2 30e0 	ldr.w	r3, [r2, #224]	@ 0xe0
34183bfe:	f023 5343 	bic.w	r3, r3, #817889280	@ 0x30c00000
34183c02:	f423 137c 	bic.w	r3, r3, #4128768	@ 0x3f0000
34183c06:	6c21      	ldr	r1, [r4, #64]	@ 0x40
34183c08:	6c60      	ldr	r0, [r4, #68]	@ 0x44
34183c0a:	3801      	subs	r0, #1
34183c0c:	ea41 4100 	orr.w	r1, r1, r0, lsl #16
34183c10:	430b      	orrs	r3, r1
34183c12:	f8c2 30e0 	str.w	r3, [r2, #224]	@ 0xe0
  WRITE_REG(RCC->DIVENSR, RCC_DIVENSR_IC8ENS);
34183c16:	2380      	movs	r3, #128	@ 0x80
34183c18:	f8c2 3a40 	str.w	r3, [r2, #2624]	@ 0xa40
  LL_RCC_SetClockSource(ClkSource);
34183c1c:	f8d4 0148 	ldr.w	r0, [r4, #328]	@ 0x148
34183c20:	f7fe fd5a 	bl	341826d8 <LL_RCC_SetClockSource>
  if ((PeriphClkInit->PeriphClockSelection & RCC_PERIPHCLK_USART1) == RCC_PERIPHCLK_USART1)
34183c24:	6863      	ldr	r3, [r4, #4]
34183c26:	f413 7f80 	tst.w	r3, #256	@ 0x100
34183c2a:	d03a      	beq.n	34183ca2 <HAL_RCCEx_PeriphCLKConfig+0x13ee>
    if (PeriphClkInit->Usart1ClockSelection == RCC_USART1CLKSOURCE_IC9)
34183c2c:	f8d4 3150 	ldr.w	r3, [r4, #336]	@ 0x150
34183c30:	4a3d      	ldr	r2, [pc, #244]	@ (34183d28 <HAL_RCCEx_PeriphCLKConfig+0x1474>)
34183c32:	4293      	cmp	r3, r2
34183c34:	d01e      	beq.n	34183c74 <HAL_RCCEx_PeriphCLKConfig+0x13c0>
    else if (PeriphClkInit->Usart1ClockSelection == RCC_USART1CLKSOURCE_IC14)
34183c36:	4a3d      	ldr	r2, [pc, #244]	@ (34183d2c <HAL_RCCEx_PeriphCLKConfig+0x1478>)
34183c38:	4293      	cmp	r3, r2
34183c3a:	d046      	beq.n	34183cca <HAL_RCCEx_PeriphCLKConfig+0x1416>
    else if (PeriphClkInit->Usart1ClockSelection == RCC_USART1CLKSOURCE_CLKP)
34183c3c:	4a3c      	ldr	r2, [pc, #240]	@ (34183d30 <HAL_RCCEx_PeriphCLKConfig+0x147c>)
34183c3e:	4293      	cmp	r3, r2
34183c40:	d12b      	bne.n	34183c9a <HAL_RCCEx_PeriphCLKConfig+0x13e6>
  WRITE_REG(RCC->MISCENSR, RCC_MISCENSR_PERENS);
34183c42:	4b2c      	ldr	r3, [pc, #176]	@ (34183cf4 <HAL_RCCEx_PeriphCLKConfig+0x1440>)
34183c44:	2240      	movs	r2, #64	@ 0x40
34183c46:	f8c3 2a48 	str.w	r2, [r3, #2632]	@ 0xa48
}
34183c4a:	e026      	b.n	34183c9a <HAL_RCCEx_PeriphCLKConfig+0x13e6>
      MODIFY_REG(RCC->IC9CFGR, RCC_IC9CFGR_IC9SEL | RCC_IC9CFGR_IC9INT,
34183c4c:	4a29      	ldr	r2, [pc, #164]	@ (34183cf4 <HAL_RCCEx_PeriphCLKConfig+0x1440>)
34183c4e:	f8d2 30e4 	ldr.w	r3, [r2, #228]	@ 0xe4
34183c52:	f023 5343 	bic.w	r3, r3, #817889280	@ 0x30c00000
34183c56:	f423 137c 	bic.w	r3, r3, #4128768	@ 0x3f0000
34183c5a:	6ca1      	ldr	r1, [r4, #72]	@ 0x48
34183c5c:	6ce0      	ldr	r0, [r4, #76]	@ 0x4c
34183c5e:	3801      	subs	r0, #1
34183c60:	ea41 4100 	orr.w	r1, r1, r0, lsl #16
34183c64:	430b      	orrs	r3, r1
34183c66:	f8c2 30e4 	str.w	r3, [r2, #228]	@ 0xe4
  WRITE_REG(RCC->DIVENSR, RCC_DIVENSR_IC9ENS);
34183c6a:	f44f 7380 	mov.w	r3, #256	@ 0x100
34183c6e:	f8c2 3a40 	str.w	r3, [r2, #2624]	@ 0xa40
}
34183c72:	e7d3      	b.n	34183c1c <HAL_RCCEx_PeriphCLKConfig+0x1368>
      MODIFY_REG(RCC->IC9CFGR, RCC_IC9CFGR_IC9SEL | RCC_IC9CFGR_IC9INT,
34183c74:	4a1f      	ldr	r2, [pc, #124]	@ (34183cf4 <HAL_RCCEx_PeriphCLKConfig+0x1440>)
34183c76:	f8d2 30e4 	ldr.w	r3, [r2, #228]	@ 0xe4
34183c7a:	f023 5343 	bic.w	r3, r3, #817889280	@ 0x30c00000
34183c7e:	f423 137c 	bic.w	r3, r3, #4128768	@ 0x3f0000
34183c82:	6ca1      	ldr	r1, [r4, #72]	@ 0x48
34183c84:	6ce0      	ldr	r0, [r4, #76]	@ 0x4c
34183c86:	3801      	subs	r0, #1
34183c88:	ea41 4100 	orr.w	r1, r1, r0, lsl #16
34183c8c:	430b      	orrs	r3, r1
34183c8e:	f8c2 30e4 	str.w	r3, [r2, #228]	@ 0xe4
  WRITE_REG(RCC->DIVENSR, RCC_DIVENSR_IC9ENS);
34183c92:	f44f 7380 	mov.w	r3, #256	@ 0x100
34183c96:	f8c2 3a40 	str.w	r3, [r2, #2624]	@ 0xa40
  LL_RCC_SetClockSource(ClkSource);
34183c9a:	f8d4 0150 	ldr.w	r0, [r4, #336]	@ 0x150
34183c9e:	f7fe fd1b 	bl	341826d8 <LL_RCC_SetClockSource>
  if ((PeriphClkInit->PeriphClockSelection & RCC_PERIPHCLK_USART2) == RCC_PERIPHCLK_USART2)
34183ca2:	6863      	ldr	r3, [r4, #4]
34183ca4:	f413 7f00 	tst.w	r3, #512	@ 0x200
34183ca8:	d061      	beq.n	34183d6e <HAL_RCCEx_PeriphCLKConfig+0x14ba>
    if (PeriphClkInit->Usart2ClockSelection == RCC_USART2CLKSOURCE_IC9)
34183caa:	f8d4 3154 	ldr.w	r3, [r4, #340]	@ 0x154
34183cae:	4a21      	ldr	r2, [pc, #132]	@ (34183d34 <HAL_RCCEx_PeriphCLKConfig+0x1480>)
34183cb0:	4293      	cmp	r3, r2
34183cb2:	d045      	beq.n	34183d40 <HAL_RCCEx_PeriphCLKConfig+0x148c>
    else if (PeriphClkInit->Usart2ClockSelection == RCC_USART2CLKSOURCE_IC14)
34183cb4:	4a20      	ldr	r2, [pc, #128]	@ (34183d38 <HAL_RCCEx_PeriphCLKConfig+0x1484>)
34183cb6:	4293      	cmp	r3, r2
34183cb8:	d06d      	beq.n	34183d96 <HAL_RCCEx_PeriphCLKConfig+0x14e2>
    else if (PeriphClkInit->Usart2ClockSelection == RCC_USART2CLKSOURCE_CLKP)
34183cba:	4a20      	ldr	r2, [pc, #128]	@ (34183d3c <HAL_RCCEx_PeriphCLKConfig+0x1488>)
34183cbc:	4293      	cmp	r3, r2
34183cbe:	d152      	bne.n	34183d66 <HAL_RCCEx_PeriphCLKConfig+0x14b2>
  WRITE_REG(RCC->MISCENSR, RCC_MISCENSR_PERENS);
34183cc0:	4b0c      	ldr	r3, [pc, #48]	@ (34183cf4 <HAL_RCCEx_PeriphCLKConfig+0x1440>)
34183cc2:	2240      	movs	r2, #64	@ 0x40
34183cc4:	f8c3 2a48 	str.w	r2, [r3, #2632]	@ 0xa48
}
34183cc8:	e04d      	b.n	34183d66 <HAL_RCCEx_PeriphCLKConfig+0x14b2>
      MODIFY_REG(RCC->IC14CFGR, RCC_IC14CFGR_IC14SEL | RCC_IC14CFGR_IC14INT,
34183cca:	4a0a      	ldr	r2, [pc, #40]	@ (34183cf4 <HAL_RCCEx_PeriphCLKConfig+0x1440>)
34183ccc:	f8d2 30f8 	ldr.w	r3, [r2, #248]	@ 0xf8
34183cd0:	f023 5343 	bic.w	r3, r3, #817889280	@ 0x30c00000
34183cd4:	f423 137c 	bic.w	r3, r3, #4128768	@ 0x3f0000
34183cd8:	6f21      	ldr	r1, [r4, #112]	@ 0x70
34183cda:	6f60      	ldr	r0, [r4, #116]	@ 0x74
34183cdc:	3801      	subs	r0, #1
34183cde:	ea41 4100 	orr.w	r1, r1, r0, lsl #16
34183ce2:	430b      	orrs	r3, r1
34183ce4:	f8c2 30f8 	str.w	r3, [r2, #248]	@ 0xf8
  WRITE_REG(RCC->DIVENSR, RCC_DIVENSR_IC14ENS);
34183ce8:	f44f 5300 	mov.w	r3, #8192	@ 0x2000
34183cec:	f8c2 3a40 	str.w	r3, [r2, #2624]	@ 0xa40
}
34183cf0:	e7d3      	b.n	34183c9a <HAL_RCCEx_PeriphCLKConfig+0x13e6>
34183cf2:	bf00      	nop
34183cf4:	56028000 	.word	0x56028000
34183cf8:	07020c20 	.word	0x07020c20
34183cfc:	07030c20 	.word	0x07030c20
34183d00:	07010c20 	.word	0x07010c20
34183d04:	07021020 	.word	0x07021020
34183d08:	07031020 	.word	0x07031020
34183d0c:	07011020 	.word	0x07011020
34183d10:	07021420 	.word	0x07021420
34183d14:	07031420 	.word	0x07031420
34183d18:	07011420 	.word	0x07011420
34183d1c:	07021820 	.word	0x07021820
34183d20:	07031820 	.word	0x07031820
34183d24:	07011820 	.word	0x07011820
34183d28:	07020030 	.word	0x07020030
34183d2c:	07030030 	.word	0x07030030
34183d30:	07010030 	.word	0x07010030
34183d34:	07020430 	.word	0x07020430
34183d38:	07030430 	.word	0x07030430
34183d3c:	07010430 	.word	0x07010430
      MODIFY_REG(RCC->IC9CFGR, RCC_IC9CFGR_IC9SEL | RCC_IC9CFGR_IC9INT,
34183d40:	4abc      	ldr	r2, [pc, #752]	@ (34184034 <HAL_RCCEx_PeriphCLKConfig+0x1780>)
34183d42:	f8d2 30e4 	ldr.w	r3, [r2, #228]	@ 0xe4
34183d46:	f023 5343 	bic.w	r3, r3, #817889280	@ 0x30c00000
34183d4a:	f423 137c 	bic.w	r3, r3, #4128768	@ 0x3f0000
34183d4e:	6ca1      	ldr	r1, [r4, #72]	@ 0x48
34183d50:	6ce0      	ldr	r0, [r4, #76]	@ 0x4c
34183d52:	3801      	subs	r0, #1
34183d54:	ea41 4100 	orr.w	r1, r1, r0, lsl #16
34183d58:	430b      	orrs	r3, r1
34183d5a:	f8c2 30e4 	str.w	r3, [r2, #228]	@ 0xe4
  WRITE_REG(RCC->DIVENSR, RCC_DIVENSR_IC9ENS);
34183d5e:	f44f 7380 	mov.w	r3, #256	@ 0x100
34183d62:	f8c2 3a40 	str.w	r3, [r2, #2624]	@ 0xa40
  LL_RCC_SetClockSource(ClkSource);
34183d66:	f8d4 0154 	ldr.w	r0, [r4, #340]	@ 0x154
34183d6a:	f7fe fcb5 	bl	341826d8 <LL_RCC_SetClockSource>
  if ((PeriphClkInit->PeriphClockSelection & RCC_PERIPHCLK_USART3) == RCC_PERIPHCLK_USART3)
34183d6e:	6863      	ldr	r3, [r4, #4]
34183d70:	f413 6f80 	tst.w	r3, #1024	@ 0x400
34183d74:	d03a      	beq.n	34183dec <HAL_RCCEx_PeriphCLKConfig+0x1538>
    if (PeriphClkInit->Usart3ClockSelection == RCC_USART3CLKSOURCE_IC9)
34183d76:	f8d4 3158 	ldr.w	r3, [r4, #344]	@ 0x158
34183d7a:	4aaf      	ldr	r2, [pc, #700]	@ (34184038 <HAL_RCCEx_PeriphCLKConfig+0x1784>)
34183d7c:	4293      	cmp	r3, r2
34183d7e:	d01e      	beq.n	34183dbe <HAL_RCCEx_PeriphCLKConfig+0x150a>
    else if (PeriphClkInit->Usart3ClockSelection == RCC_USART3CLKSOURCE_IC14)
34183d80:	4aae      	ldr	r2, [pc, #696]	@ (3418403c <HAL_RCCEx_PeriphCLKConfig+0x1788>)
34183d82:	4293      	cmp	r3, r2
34183d84:	d046      	beq.n	34183e14 <HAL_RCCEx_PeriphCLKConfig+0x1560>
    else if (PeriphClkInit->Usart3ClockSelection == RCC_USART3CLKSOURCE_CLKP)
34183d86:	4aae      	ldr	r2, [pc, #696]	@ (34184040 <HAL_RCCEx_PeriphCLKConfig+0x178c>)
34183d88:	4293      	cmp	r3, r2
34183d8a:	d12b      	bne.n	34183de4 <HAL_RCCEx_PeriphCLKConfig+0x1530>
  WRITE_REG(RCC->MISCENSR, RCC_MISCENSR_PERENS);
34183d8c:	4ba9      	ldr	r3, [pc, #676]	@ (34184034 <HAL_RCCEx_PeriphCLKConfig+0x1780>)
34183d8e:	2240      	movs	r2, #64	@ 0x40
34183d90:	f8c3 2a48 	str.w	r2, [r3, #2632]	@ 0xa48
}
34183d94:	e026      	b.n	34183de4 <HAL_RCCEx_PeriphCLKConfig+0x1530>
      MODIFY_REG(RCC->IC14CFGR, RCC_IC14CFGR_IC14SEL | RCC_IC14CFGR_IC14INT,
34183d96:	4aa7      	ldr	r2, [pc, #668]	@ (34184034 <HAL_RCCEx_PeriphCLKConfig+0x1780>)
34183d98:	f8d2 30f8 	ldr.w	r3, [r2, #248]	@ 0xf8
34183d9c:	f023 5343 	bic.w	r3, r3, #817889280	@ 0x30c00000
34183da0:	f423 137c 	bic.w	r3, r3, #4128768	@ 0x3f0000
34183da4:	6f21      	ldr	r1, [r4, #112]	@ 0x70
34183da6:	6f60      	ldr	r0, [r4, #116]	@ 0x74
34183da8:	3801      	subs	r0, #1
34183daa:	ea41 4100 	orr.w	r1, r1, r0, lsl #16
34183dae:	430b      	orrs	r3, r1
34183db0:	f8c2 30f8 	str.w	r3, [r2, #248]	@ 0xf8
  WRITE_REG(RCC->DIVENSR, RCC_DIVENSR_IC14ENS);
34183db4:	f44f 5300 	mov.w	r3, #8192	@ 0x2000
34183db8:	f8c2 3a40 	str.w	r3, [r2, #2624]	@ 0xa40
}
34183dbc:	e7d3      	b.n	34183d66 <HAL_RCCEx_PeriphCLKConfig+0x14b2>
      MODIFY_REG(RCC->IC9CFGR, RCC_IC9CFGR_IC9SEL | RCC_IC9CFGR_IC9INT,
34183dbe:	4a9d      	ldr	r2, [pc, #628]	@ (34184034 <HAL_RCCEx_PeriphCLKConfig+0x1780>)
34183dc0:	f8d2 30e4 	ldr.w	r3, [r2, #228]	@ 0xe4
34183dc4:	f023 5343 	bic.w	r3, r3, #817889280	@ 0x30c00000
34183dc8:	f423 137c 	bic.w	r3, r3, #4128768	@ 0x3f0000
34183dcc:	6ca1      	ldr	r1, [r4, #72]	@ 0x48
34183dce:	6ce0      	ldr	r0, [r4, #76]	@ 0x4c
34183dd0:	3801      	subs	r0, #1
34183dd2:	ea41 4100 	orr.w	r1, r1, r0, lsl #16
34183dd6:	430b      	orrs	r3, r1
34183dd8:	f8c2 30e4 	str.w	r3, [r2, #228]	@ 0xe4
  WRITE_REG(RCC->DIVENSR, RCC_DIVENSR_IC9ENS);
34183ddc:	f44f 7380 	mov.w	r3, #256	@ 0x100
34183de0:	f8c2 3a40 	str.w	r3, [r2, #2624]	@ 0xa40
  LL_RCC_SetClockSource(ClkSource);
34183de4:	f8d4 0158 	ldr.w	r0, [r4, #344]	@ 0x158
34183de8:	f7fe fc76 	bl	341826d8 <LL_RCC_SetClockSource>
  if ((PeriphClkInit->PeriphClockSelection & RCC_PERIPHCLK_UART4) == RCC_PERIPHCLK_UART4)
34183dec:	6863      	ldr	r3, [r4, #4]
34183dee:	f413 6f00 	tst.w	r3, #2048	@ 0x800
34183df2:	d03a      	beq.n	34183e6a <HAL_RCCEx_PeriphCLKConfig+0x15b6>
    if (PeriphClkInit->Uart4ClockSelection == RCC_UART4CLKSOURCE_IC9)
34183df4:	f8d4 315c 	ldr.w	r3, [r4, #348]	@ 0x15c
34183df8:	4a92      	ldr	r2, [pc, #584]	@ (34184044 <HAL_RCCEx_PeriphCLKConfig+0x1790>)
34183dfa:	4293      	cmp	r3, r2
34183dfc:	d01e      	beq.n	34183e3c <HAL_RCCEx_PeriphCLKConfig+0x1588>
    else if (PeriphClkInit->Uart4ClockSelection == RCC_UART4CLKSOURCE_IC14)
34183dfe:	4a92      	ldr	r2, [pc, #584]	@ (34184048 <HAL_RCCEx_PeriphCLKConfig+0x1794>)
34183e00:	4293      	cmp	r3, r2
34183e02:	d046      	beq.n	34183e92 <HAL_RCCEx_PeriphCLKConfig+0x15de>
    else if (PeriphClkInit->Uart4ClockSelection == RCC_UART4CLKSOURCE_CLKP)
34183e04:	4a91      	ldr	r2, [pc, #580]	@ (3418404c <HAL_RCCEx_PeriphCLKConfig+0x1798>)
34183e06:	4293      	cmp	r3, r2
34183e08:	d12b      	bne.n	34183e62 <HAL_RCCEx_PeriphCLKConfig+0x15ae>
  WRITE_REG(RCC->MISCENSR, RCC_MISCENSR_PERENS);
34183e0a:	4b8a      	ldr	r3, [pc, #552]	@ (34184034 <HAL_RCCEx_PeriphCLKConfig+0x1780>)
34183e0c:	2240      	movs	r2, #64	@ 0x40
34183e0e:	f8c3 2a48 	str.w	r2, [r3, #2632]	@ 0xa48
}
34183e12:	e026      	b.n	34183e62 <HAL_RCCEx_PeriphCLKConfig+0x15ae>
      MODIFY_REG(RCC->IC14CFGR, RCC_IC14CFGR_IC14SEL | RCC_IC14CFGR_IC14INT,
34183e14:	4a87      	ldr	r2, [pc, #540]	@ (34184034 <HAL_RCCEx_PeriphCLKConfig+0x1780>)
34183e16:	f8d2 30f8 	ldr.w	r3, [r2, #248]	@ 0xf8
34183e1a:	f023 5343 	bic.w	r3, r3, #817889280	@ 0x30c00000
34183e1e:	f423 137c 	bic.w	r3, r3, #4128768	@ 0x3f0000
34183e22:	6f21      	ldr	r1, [r4, #112]	@ 0x70
34183e24:	6f60      	ldr	r0, [r4, #116]	@ 0x74
34183e26:	3801      	subs	r0, #1
34183e28:	ea41 4100 	orr.w	r1, r1, r0, lsl #16
34183e2c:	430b      	orrs	r3, r1
34183e2e:	f8c2 30f8 	str.w	r3, [r2, #248]	@ 0xf8
  WRITE_REG(RCC->DIVENSR, RCC_DIVENSR_IC14ENS);
34183e32:	f44f 5300 	mov.w	r3, #8192	@ 0x2000
34183e36:	f8c2 3a40 	str.w	r3, [r2, #2624]	@ 0xa40
}
34183e3a:	e7d3      	b.n	34183de4 <HAL_RCCEx_PeriphCLKConfig+0x1530>
      MODIFY_REG(RCC->IC9CFGR, RCC_IC9CFGR_IC9SEL | RCC_IC9CFGR_IC9INT,
34183e3c:	4a7d      	ldr	r2, [pc, #500]	@ (34184034 <HAL_RCCEx_PeriphCLKConfig+0x1780>)
34183e3e:	f8d2 30e4 	ldr.w	r3, [r2, #228]	@ 0xe4
34183e42:	f023 5343 	bic.w	r3, r3, #817889280	@ 0x30c00000
34183e46:	f423 137c 	bic.w	r3, r3, #4128768	@ 0x3f0000
34183e4a:	6ca1      	ldr	r1, [r4, #72]	@ 0x48
34183e4c:	6ce0      	ldr	r0, [r4, #76]	@ 0x4c
34183e4e:	3801      	subs	r0, #1
34183e50:	ea41 4100 	orr.w	r1, r1, r0, lsl #16
34183e54:	430b      	orrs	r3, r1
34183e56:	f8c2 30e4 	str.w	r3, [r2, #228]	@ 0xe4
  WRITE_REG(RCC->DIVENSR, RCC_DIVENSR_IC9ENS);
34183e5a:	f44f 7380 	mov.w	r3, #256	@ 0x100
34183e5e:	f8c2 3a40 	str.w	r3, [r2, #2624]	@ 0xa40
  LL_RCC_SetClockSource(ClkSource);
34183e62:	f8d4 015c 	ldr.w	r0, [r4, #348]	@ 0x15c
34183e66:	f7fe fc37 	bl	341826d8 <LL_RCC_SetClockSource>
  if ((PeriphClkInit->PeriphClockSelection & RCC_PERIPHCLK_UART5) == RCC_PERIPHCLK_UART5)
34183e6a:	6863      	ldr	r3, [r4, #4]
34183e6c:	f413 5f80 	tst.w	r3, #4096	@ 0x1000
34183e70:	d03a      	beq.n	34183ee8 <HAL_RCCEx_PeriphCLKConfig+0x1634>
    if (PeriphClkInit->Uart5ClockSelection == RCC_UART5CLKSOURCE_IC9)
34183e72:	f8d4 3160 	ldr.w	r3, [r4, #352]	@ 0x160
34183e76:	4a76      	ldr	r2, [pc, #472]	@ (34184050 <HAL_RCCEx_PeriphCLKConfig+0x179c>)
34183e78:	4293      	cmp	r3, r2
34183e7a:	d01e      	beq.n	34183eba <HAL_RCCEx_PeriphCLKConfig+0x1606>
    else if (PeriphClkInit->Uart5ClockSelection == RCC_UART5CLKSOURCE_IC14)
34183e7c:	4a75      	ldr	r2, [pc, #468]	@ (34184054 <HAL_RCCEx_PeriphCLKConfig+0x17a0>)
34183e7e:	4293      	cmp	r3, r2
34183e80:	d046      	beq.n	34183f10 <HAL_RCCEx_PeriphCLKConfig+0x165c>
    else if (PeriphClkInit->Uart5ClockSelection == RCC_UART5CLKSOURCE_CLKP)
34183e82:	4a75      	ldr	r2, [pc, #468]	@ (34184058 <HAL_RCCEx_PeriphCLKConfig+0x17a4>)
34183e84:	4293      	cmp	r3, r2
34183e86:	d12b      	bne.n	34183ee0 <HAL_RCCEx_PeriphCLKConfig+0x162c>
  WRITE_REG(RCC->MISCENSR, RCC_MISCENSR_PERENS);
34183e88:	4b6a      	ldr	r3, [pc, #424]	@ (34184034 <HAL_RCCEx_PeriphCLKConfig+0x1780>)
34183e8a:	2240      	movs	r2, #64	@ 0x40
34183e8c:	f8c3 2a48 	str.w	r2, [r3, #2632]	@ 0xa48
}
34183e90:	e026      	b.n	34183ee0 <HAL_RCCEx_PeriphCLKConfig+0x162c>
      MODIFY_REG(RCC->IC14CFGR, RCC_IC14CFGR_IC14SEL | RCC_IC14CFGR_IC14INT,
34183e92:	4a68      	ldr	r2, [pc, #416]	@ (34184034 <HAL_RCCEx_PeriphCLKConfig+0x1780>)
34183e94:	f8d2 30f8 	ldr.w	r3, [r2, #248]	@ 0xf8
34183e98:	f023 5343 	bic.w	r3, r3, #817889280	@ 0x30c00000
34183e9c:	f423 137c 	bic.w	r3, r3, #4128768	@ 0x3f0000
34183ea0:	6f21      	ldr	r1, [r4, #112]	@ 0x70
34183ea2:	6f60      	ldr	r0, [r4, #116]	@ 0x74
34183ea4:	3801      	subs	r0, #1
34183ea6:	ea41 4100 	orr.w	r1, r1, r0, lsl #16
34183eaa:	430b      	orrs	r3, r1
34183eac:	f8c2 30f8 	str.w	r3, [r2, #248]	@ 0xf8
  WRITE_REG(RCC->DIVENSR, RCC_DIVENSR_IC14ENS);
34183eb0:	f44f 5300 	mov.w	r3, #8192	@ 0x2000
34183eb4:	f8c2 3a40 	str.w	r3, [r2, #2624]	@ 0xa40
}
34183eb8:	e7d3      	b.n	34183e62 <HAL_RCCEx_PeriphCLKConfig+0x15ae>
      MODIFY_REG(RCC->IC9CFGR, RCC_IC9CFGR_IC9SEL | RCC_IC9CFGR_IC9INT,
34183eba:	4a5e      	ldr	r2, [pc, #376]	@ (34184034 <HAL_RCCEx_PeriphCLKConfig+0x1780>)
34183ebc:	f8d2 30e4 	ldr.w	r3, [r2, #228]	@ 0xe4
34183ec0:	f023 5343 	bic.w	r3, r3, #817889280	@ 0x30c00000
34183ec4:	f423 137c 	bic.w	r3, r3, #4128768	@ 0x3f0000
34183ec8:	6ca1      	ldr	r1, [r4, #72]	@ 0x48
34183eca:	6ce0      	ldr	r0, [r4, #76]	@ 0x4c
34183ecc:	3801      	subs	r0, #1
34183ece:	ea41 4100 	orr.w	r1, r1, r0, lsl #16
34183ed2:	430b      	orrs	r3, r1
34183ed4:	f8c2 30e4 	str.w	r3, [r2, #228]	@ 0xe4
  WRITE_REG(RCC->DIVENSR, RCC_DIVENSR_IC9ENS);
34183ed8:	f44f 7380 	mov.w	r3, #256	@ 0x100
34183edc:	f8c2 3a40 	str.w	r3, [r2, #2624]	@ 0xa40
  LL_RCC_SetClockSource(ClkSource);
34183ee0:	f8d4 0160 	ldr.w	r0, [r4, #352]	@ 0x160
34183ee4:	f7fe fbf8 	bl	341826d8 <LL_RCC_SetClockSource>
  if ((PeriphClkInit->PeriphClockSelection & RCC_PERIPHCLK_USART6) == RCC_PERIPHCLK_USART6)
34183ee8:	6863      	ldr	r3, [r4, #4]
34183eea:	f413 5f00 	tst.w	r3, #8192	@ 0x2000
34183eee:	d03a      	beq.n	34183f66 <HAL_RCCEx_PeriphCLKConfig+0x16b2>
    if (PeriphClkInit->Usart6ClockSelection == RCC_USART6CLKSOURCE_IC9)
34183ef0:	f8d4 3164 	ldr.w	r3, [r4, #356]	@ 0x164
34183ef4:	4a59      	ldr	r2, [pc, #356]	@ (3418405c <HAL_RCCEx_PeriphCLKConfig+0x17a8>)
34183ef6:	4293      	cmp	r3, r2
34183ef8:	d01e      	beq.n	34183f38 <HAL_RCCEx_PeriphCLKConfig+0x1684>
    else if (PeriphClkInit->Usart6ClockSelection == RCC_USART6CLKSOURCE_IC14)
34183efa:	4a59      	ldr	r2, [pc, #356]	@ (34184060 <HAL_RCCEx_PeriphCLKConfig+0x17ac>)
34183efc:	4293      	cmp	r3, r2
34183efe:	d046      	beq.n	34183f8e <HAL_RCCEx_PeriphCLKConfig+0x16da>
    else if (PeriphClkInit->Usart6ClockSelection == RCC_USART6CLKSOURCE_CLKP)
34183f00:	4a58      	ldr	r2, [pc, #352]	@ (34184064 <HAL_RCCEx_PeriphCLKConfig+0x17b0>)
34183f02:	4293      	cmp	r3, r2
34183f04:	d12b      	bne.n	34183f5e <HAL_RCCEx_PeriphCLKConfig+0x16aa>
  WRITE_REG(RCC->MISCENSR, RCC_MISCENSR_PERENS);
34183f06:	4b4b      	ldr	r3, [pc, #300]	@ (34184034 <HAL_RCCEx_PeriphCLKConfig+0x1780>)
34183f08:	2240      	movs	r2, #64	@ 0x40
34183f0a:	f8c3 2a48 	str.w	r2, [r3, #2632]	@ 0xa48
}
34183f0e:	e026      	b.n	34183f5e <HAL_RCCEx_PeriphCLKConfig+0x16aa>
      MODIFY_REG(RCC->IC14CFGR, RCC_IC14CFGR_IC14SEL | RCC_IC14CFGR_IC14INT,
34183f10:	4a48      	ldr	r2, [pc, #288]	@ (34184034 <HAL_RCCEx_PeriphCLKConfig+0x1780>)
34183f12:	f8d2 30f8 	ldr.w	r3, [r2, #248]	@ 0xf8
34183f16:	f023 5343 	bic.w	r3, r3, #817889280	@ 0x30c00000
34183f1a:	f423 137c 	bic.w	r3, r3, #4128768	@ 0x3f0000
34183f1e:	6f21      	ldr	r1, [r4, #112]	@ 0x70
34183f20:	6f60      	ldr	r0, [r4, #116]	@ 0x74
34183f22:	3801      	subs	r0, #1
34183f24:	ea41 4100 	orr.w	r1, r1, r0, lsl #16
34183f28:	430b      	orrs	r3, r1
34183f2a:	f8c2 30f8 	str.w	r3, [r2, #248]	@ 0xf8
  WRITE_REG(RCC->DIVENSR, RCC_DIVENSR_IC14ENS);
34183f2e:	f44f 5300 	mov.w	r3, #8192	@ 0x2000
34183f32:	f8c2 3a40 	str.w	r3, [r2, #2624]	@ 0xa40
}
34183f36:	e7d3      	b.n	34183ee0 <HAL_RCCEx_PeriphCLKConfig+0x162c>
      MODIFY_REG(RCC->IC9CFGR, RCC_IC9CFGR_IC9SEL | RCC_IC9CFGR_IC9INT,
34183f38:	4a3e      	ldr	r2, [pc, #248]	@ (34184034 <HAL_RCCEx_PeriphCLKConfig+0x1780>)
34183f3a:	f8d2 30e4 	ldr.w	r3, [r2, #228]	@ 0xe4
34183f3e:	f023 5343 	bic.w	r3, r3, #817889280	@ 0x30c00000
34183f42:	f423 137c 	bic.w	r3, r3, #4128768	@ 0x3f0000
34183f46:	6ca1      	ldr	r1, [r4, #72]	@ 0x48
34183f48:	6ce0      	ldr	r0, [r4, #76]	@ 0x4c
34183f4a:	3801      	subs	r0, #1
34183f4c:	ea41 4100 	orr.w	r1, r1, r0, lsl #16
34183f50:	430b      	orrs	r3, r1
34183f52:	f8c2 30e4 	str.w	r3, [r2, #228]	@ 0xe4
  WRITE_REG(RCC->DIVENSR, RCC_DIVENSR_IC9ENS);
34183f56:	f44f 7380 	mov.w	r3, #256	@ 0x100
34183f5a:	f8c2 3a40 	str.w	r3, [r2, #2624]	@ 0xa40
  LL_RCC_SetClockSource(ClkSource);
34183f5e:	f8d4 0164 	ldr.w	r0, [r4, #356]	@ 0x164
34183f62:	f7fe fbb9 	bl	341826d8 <LL_RCC_SetClockSource>
  if ((PeriphClkInit->PeriphClockSelection & RCC_PERIPHCLK_UART7) == RCC_PERIPHCLK_UART7)
34183f66:	6863      	ldr	r3, [r4, #4]
34183f68:	f413 4f80 	tst.w	r3, #16384	@ 0x4000
34183f6c:	d03a      	beq.n	34183fe4 <HAL_RCCEx_PeriphCLKConfig+0x1730>
    if (PeriphClkInit->Uart7ClockSelection == RCC_UART7CLKSOURCE_IC9)
34183f6e:	f8d4 3168 	ldr.w	r3, [r4, #360]	@ 0x168
34183f72:	4a3d      	ldr	r2, [pc, #244]	@ (34184068 <HAL_RCCEx_PeriphCLKConfig+0x17b4>)
34183f74:	4293      	cmp	r3, r2
34183f76:	d01e      	beq.n	34183fb6 <HAL_RCCEx_PeriphCLKConfig+0x1702>
    else if (PeriphClkInit->Uart7ClockSelection == RCC_UART7CLKSOURCE_IC14)
34183f78:	4a3c      	ldr	r2, [pc, #240]	@ (3418406c <HAL_RCCEx_PeriphCLKConfig+0x17b8>)
34183f7a:	4293      	cmp	r3, r2
34183f7c:	d046      	beq.n	3418400c <HAL_RCCEx_PeriphCLKConfig+0x1758>
    else if (PeriphClkInit->Uart7ClockSelection == RCC_UART7CLKSOURCE_CLKP)
34183f7e:	4a3c      	ldr	r2, [pc, #240]	@ (34184070 <HAL_RCCEx_PeriphCLKConfig+0x17bc>)
34183f80:	4293      	cmp	r3, r2
34183f82:	d12b      	bne.n	34183fdc <HAL_RCCEx_PeriphCLKConfig+0x1728>
  WRITE_REG(RCC->MISCENSR, RCC_MISCENSR_PERENS);
34183f84:	4b2b      	ldr	r3, [pc, #172]	@ (34184034 <HAL_RCCEx_PeriphCLKConfig+0x1780>)
34183f86:	2240      	movs	r2, #64	@ 0x40
34183f88:	f8c3 2a48 	str.w	r2, [r3, #2632]	@ 0xa48
}
34183f8c:	e026      	b.n	34183fdc <HAL_RCCEx_PeriphCLKConfig+0x1728>
      MODIFY_REG(RCC->IC14CFGR, RCC_IC14CFGR_IC14SEL | RCC_IC14CFGR_IC14INT,
34183f8e:	4a29      	ldr	r2, [pc, #164]	@ (34184034 <HAL_RCCEx_PeriphCLKConfig+0x1780>)
34183f90:	f8d2 30f8 	ldr.w	r3, [r2, #248]	@ 0xf8
34183f94:	f023 5343 	bic.w	r3, r3, #817889280	@ 0x30c00000
34183f98:	f423 137c 	bic.w	r3, r3, #4128768	@ 0x3f0000
34183f9c:	6f21      	ldr	r1, [r4, #112]	@ 0x70
34183f9e:	6f60      	ldr	r0, [r4, #116]	@ 0x74
34183fa0:	3801      	subs	r0, #1
34183fa2:	ea41 4100 	orr.w	r1, r1, r0, lsl #16
34183fa6:	430b      	orrs	r3, r1
34183fa8:	f8c2 30f8 	str.w	r3, [r2, #248]	@ 0xf8
  WRITE_REG(RCC->DIVENSR, RCC_DIVENSR_IC14ENS);
34183fac:	f44f 5300 	mov.w	r3, #8192	@ 0x2000
34183fb0:	f8c2 3a40 	str.w	r3, [r2, #2624]	@ 0xa40
}
34183fb4:	e7d3      	b.n	34183f5e <HAL_RCCEx_PeriphCLKConfig+0x16aa>
      MODIFY_REG(RCC->IC9CFGR, RCC_IC9CFGR_IC9SEL | RCC_IC9CFGR_IC9INT,
34183fb6:	4a1f      	ldr	r2, [pc, #124]	@ (34184034 <HAL_RCCEx_PeriphCLKConfig+0x1780>)
34183fb8:	f8d2 30e4 	ldr.w	r3, [r2, #228]	@ 0xe4
34183fbc:	f023 5343 	bic.w	r3, r3, #817889280	@ 0x30c00000
34183fc0:	f423 137c 	bic.w	r3, r3, #4128768	@ 0x3f0000
34183fc4:	6ca1      	ldr	r1, [r4, #72]	@ 0x48
34183fc6:	6ce0      	ldr	r0, [r4, #76]	@ 0x4c
34183fc8:	3801      	subs	r0, #1
34183fca:	ea41 4100 	orr.w	r1, r1, r0, lsl #16
34183fce:	430b      	orrs	r3, r1
34183fd0:	f8c2 30e4 	str.w	r3, [r2, #228]	@ 0xe4
  WRITE_REG(RCC->DIVENSR, RCC_DIVENSR_IC9ENS);
34183fd4:	f44f 7380 	mov.w	r3, #256	@ 0x100
34183fd8:	f8c2 3a40 	str.w	r3, [r2, #2624]	@ 0xa40
  LL_RCC_SetClockSource(ClkSource);
34183fdc:	f8d4 0168 	ldr.w	r0, [r4, #360]	@ 0x168
34183fe0:	f7fe fb7a 	bl	341826d8 <LL_RCC_SetClockSource>
  if ((PeriphClkInit->PeriphClockSelection & RCC_PERIPHCLK_UART8) == RCC_PERIPHCLK_UART8)
34183fe4:	6863      	ldr	r3, [r4, #4]
34183fe6:	f413 4f00 	tst.w	r3, #32768	@ 0x8000
34183fea:	d060      	beq.n	341840ae <HAL_RCCEx_PeriphCLKConfig+0x17fa>
    if (PeriphClkInit->Uart8ClockSelection == RCC_UART8CLKSOURCE_IC9)
34183fec:	f8d4 316c 	ldr.w	r3, [r4, #364]	@ 0x16c
34183ff0:	4a20      	ldr	r2, [pc, #128]	@ (34184074 <HAL_RCCEx_PeriphCLKConfig+0x17c0>)
34183ff2:	4293      	cmp	r3, r2
34183ff4:	d044      	beq.n	34184080 <HAL_RCCEx_PeriphCLKConfig+0x17cc>
    else if (PeriphClkInit->Uart8ClockSelection == RCC_UART8CLKSOURCE_IC14)
34183ff6:	4a20      	ldr	r2, [pc, #128]	@ (34184078 <HAL_RCCEx_PeriphCLKConfig+0x17c4>)
34183ff8:	4293      	cmp	r3, r2
34183ffa:	d06c      	beq.n	341840d6 <HAL_RCCEx_PeriphCLKConfig+0x1822>
    else if (PeriphClkInit->Uart8ClockSelection == RCC_UART8CLKSOURCE_CLKP)
34183ffc:	4a1f      	ldr	r2, [pc, #124]	@ (3418407c <HAL_RCCEx_PeriphCLKConfig+0x17c8>)
34183ffe:	4293      	cmp	r3, r2
34184000:	d151      	bne.n	341840a6 <HAL_RCCEx_PeriphCLKConfig+0x17f2>
  WRITE_REG(RCC->MISCENSR, RCC_MISCENSR_PERENS);
34184002:	4b0c      	ldr	r3, [pc, #48]	@ (34184034 <HAL_RCCEx_PeriphCLKConfig+0x1780>)
34184004:	2240      	movs	r2, #64	@ 0x40
34184006:	f8c3 2a48 	str.w	r2, [r3, #2632]	@ 0xa48
}
3418400a:	e04c      	b.n	341840a6 <HAL_RCCEx_PeriphCLKConfig+0x17f2>
      MODIFY_REG(RCC->IC14CFGR, RCC_IC14CFGR_IC14SEL | RCC_IC14CFGR_IC14INT,
3418400c:	4a09      	ldr	r2, [pc, #36]	@ (34184034 <HAL_RCCEx_PeriphCLKConfig+0x1780>)
3418400e:	f8d2 30f8 	ldr.w	r3, [r2, #248]	@ 0xf8
34184012:	f023 5343 	bic.w	r3, r3, #817889280	@ 0x30c00000
34184016:	f423 137c 	bic.w	r3, r3, #4128768	@ 0x3f0000
3418401a:	6f21      	ldr	r1, [r4, #112]	@ 0x70
3418401c:	6f60      	ldr	r0, [r4, #116]	@ 0x74
3418401e:	3801      	subs	r0, #1
34184020:	ea41 4100 	orr.w	r1, r1, r0, lsl #16
34184024:	430b      	orrs	r3, r1
34184026:	f8c2 30f8 	str.w	r3, [r2, #248]	@ 0xf8
  WRITE_REG(RCC->DIVENSR, RCC_DIVENSR_IC14ENS);
3418402a:	f44f 5300 	mov.w	r3, #8192	@ 0x2000
3418402e:	f8c2 3a40 	str.w	r3, [r2, #2624]	@ 0xa40
}
34184032:	e7d3      	b.n	34183fdc <HAL_RCCEx_PeriphCLKConfig+0x1728>
34184034:	56028000 	.word	0x56028000
34184038:	07020830 	.word	0x07020830
3418403c:	07030830 	.word	0x07030830
34184040:	07010830 	.word	0x07010830
34184044:	07020c30 	.word	0x07020c30
34184048:	07030c30 	.word	0x07030c30
3418404c:	07010c30 	.word	0x07010c30
34184050:	07021030 	.word	0x07021030
34184054:	07031030 	.word	0x07031030
34184058:	07011030 	.word	0x07011030
3418405c:	07021430 	.word	0x07021430
34184060:	07031430 	.word	0x07031430
34184064:	07011430 	.word	0x07011430
34184068:	07021830 	.word	0x07021830
3418406c:	07031830 	.word	0x07031830
34184070:	07011830 	.word	0x07011830
34184074:	07021c30 	.word	0x07021c30
34184078:	07031c30 	.word	0x07031c30
3418407c:	07011c30 	.word	0x07011c30
      MODIFY_REG(RCC->IC9CFGR, RCC_IC9CFGR_IC9SEL | RCC_IC9CFGR_IC9INT,
34184080:	4ab1      	ldr	r2, [pc, #708]	@ (34184348 <HAL_RCCEx_PeriphCLKConfig+0x1a94>)
34184082:	f8d2 30e4 	ldr.w	r3, [r2, #228]	@ 0xe4
34184086:	f023 5343 	bic.w	r3, r3, #817889280	@ 0x30c00000
3418408a:	f423 137c 	bic.w	r3, r3, #4128768	@ 0x3f0000
3418408e:	6ca1      	ldr	r1, [r4, #72]	@ 0x48
34184090:	6ce0      	ldr	r0, [r4, #76]	@ 0x4c
34184092:	3801      	subs	r0, #1
34184094:	ea41 4100 	orr.w	r1, r1, r0, lsl #16
34184098:	430b      	orrs	r3, r1
3418409a:	f8c2 30e4 	str.w	r3, [r2, #228]	@ 0xe4
  WRITE_REG(RCC->DIVENSR, RCC_DIVENSR_IC9ENS);
3418409e:	f44f 7380 	mov.w	r3, #256	@ 0x100
341840a2:	f8c2 3a40 	str.w	r3, [r2, #2624]	@ 0xa40
  LL_RCC_SetClockSource(ClkSource);
341840a6:	f8d4 016c 	ldr.w	r0, [r4, #364]	@ 0x16c
341840aa:	f7fe fb15 	bl	341826d8 <LL_RCC_SetClockSource>
  if ((PeriphClkInit->PeriphClockSelection & RCC_PERIPHCLK_UART9) == RCC_PERIPHCLK_UART9)
341840ae:	6863      	ldr	r3, [r4, #4]
341840b0:	f413 3f80 	tst.w	r3, #65536	@ 0x10000
341840b4:	d03a      	beq.n	3418412c <HAL_RCCEx_PeriphCLKConfig+0x1878>
    if (PeriphClkInit->Uart9ClockSelection == RCC_UART9CLKSOURCE_IC9)
341840b6:	f8d4 3170 	ldr.w	r3, [r4, #368]	@ 0x170
341840ba:	4aa4      	ldr	r2, [pc, #656]	@ (3418434c <HAL_RCCEx_PeriphCLKConfig+0x1a98>)
341840bc:	4293      	cmp	r3, r2
341840be:	d01e      	beq.n	341840fe <HAL_RCCEx_PeriphCLKConfig+0x184a>
    else if (PeriphClkInit->Uart9ClockSelection == RCC_UART9CLKSOURCE_IC14)
341840c0:	4aa3      	ldr	r2, [pc, #652]	@ (34184350 <HAL_RCCEx_PeriphCLKConfig+0x1a9c>)
341840c2:	4293      	cmp	r3, r2
341840c4:	d047      	beq.n	34184156 <HAL_RCCEx_PeriphCLKConfig+0x18a2>
    else if (PeriphClkInit->Uart9ClockSelection == RCC_UART9CLKSOURCE_CLKP)
341840c6:	4aa3      	ldr	r2, [pc, #652]	@ (34184354 <HAL_RCCEx_PeriphCLKConfig+0x1aa0>)
341840c8:	4293      	cmp	r3, r2
341840ca:	d12b      	bne.n	34184124 <HAL_RCCEx_PeriphCLKConfig+0x1870>
  WRITE_REG(RCC->MISCENSR, RCC_MISCENSR_PERENS);
341840cc:	4b9e      	ldr	r3, [pc, #632]	@ (34184348 <HAL_RCCEx_PeriphCLKConfig+0x1a94>)
341840ce:	2240      	movs	r2, #64	@ 0x40
341840d0:	f8c3 2a48 	str.w	r2, [r3, #2632]	@ 0xa48
}
341840d4:	e026      	b.n	34184124 <HAL_RCCEx_PeriphCLKConfig+0x1870>
      MODIFY_REG(RCC->IC14CFGR, RCC_IC14CFGR_IC14SEL | RCC_IC14CFGR_IC14INT,
341840d6:	4a9c      	ldr	r2, [pc, #624]	@ (34184348 <HAL_RCCEx_PeriphCLKConfig+0x1a94>)
341840d8:	f8d2 30f8 	ldr.w	r3, [r2, #248]	@ 0xf8
341840dc:	f023 5343 	bic.w	r3, r3, #817889280	@ 0x30c00000
341840e0:	f423 137c 	bic.w	r3, r3, #4128768	@ 0x3f0000
341840e4:	6f21      	ldr	r1, [r4, #112]	@ 0x70
341840e6:	6f60      	ldr	r0, [r4, #116]	@ 0x74
341840e8:	3801      	subs	r0, #1
341840ea:	ea41 4100 	orr.w	r1, r1, r0, lsl #16
341840ee:	430b      	orrs	r3, r1
341840f0:	f8c2 30f8 	str.w	r3, [r2, #248]	@ 0xf8
  WRITE_REG(RCC->DIVENSR, RCC_DIVENSR_IC14ENS);
341840f4:	f44f 5300 	mov.w	r3, #8192	@ 0x2000
341840f8:	f8c2 3a40 	str.w	r3, [r2, #2624]	@ 0xa40
}
341840fc:	e7d3      	b.n	341840a6 <HAL_RCCEx_PeriphCLKConfig+0x17f2>
      MODIFY_REG(RCC->IC9CFGR, RCC_IC9CFGR_IC9SEL | RCC_IC9CFGR_IC9INT,
341840fe:	4a92      	ldr	r2, [pc, #584]	@ (34184348 <HAL_RCCEx_PeriphCLKConfig+0x1a94>)
34184100:	f8d2 30e4 	ldr.w	r3, [r2, #228]	@ 0xe4
34184104:	f023 5343 	bic.w	r3, r3, #817889280	@ 0x30c00000
34184108:	f423 137c 	bic.w	r3, r3, #4128768	@ 0x3f0000
3418410c:	6ca1      	ldr	r1, [r4, #72]	@ 0x48
3418410e:	6ce0      	ldr	r0, [r4, #76]	@ 0x4c
34184110:	3801      	subs	r0, #1
34184112:	ea41 4100 	orr.w	r1, r1, r0, lsl #16
34184116:	430b      	orrs	r3, r1
34184118:	f8c2 30e4 	str.w	r3, [r2, #228]	@ 0xe4
  WRITE_REG(RCC->DIVENSR, RCC_DIVENSR_IC9ENS);
3418411c:	f44f 7380 	mov.w	r3, #256	@ 0x100
34184120:	f8c2 3a40 	str.w	r3, [r2, #2624]	@ 0xa40
  LL_RCC_SetClockSource(ClkSource);
34184124:	f8d4 0170 	ldr.w	r0, [r4, #368]	@ 0x170
34184128:	f7fe fad6 	bl	341826d8 <LL_RCC_SetClockSource>
  if ((PeriphClkInit->PeriphClockSelection & RCC_PERIPHCLK_USART10) == RCC_PERIPHCLK_USART10)
3418412c:	6863      	ldr	r3, [r4, #4]
3418412e:	f413 3f00 	tst.w	r3, #131072	@ 0x20000
34184132:	d03b      	beq.n	341841ac <HAL_RCCEx_PeriphCLKConfig+0x18f8>
    if (PeriphClkInit->Usart10ClockSelection == RCC_USART10CLKSOURCE_IC9)
34184134:	f8d4 3174 	ldr.w	r3, [r4, #372]	@ 0x174
34184138:	4a87      	ldr	r2, [pc, #540]	@ (34184358 <HAL_RCCEx_PeriphCLKConfig+0x1aa4>)
3418413a:	4293      	cmp	r3, r2
3418413c:	d01f      	beq.n	3418417e <HAL_RCCEx_PeriphCLKConfig+0x18ca>
    else if (PeriphClkInit->Usart10ClockSelection == RCC_USART10CLKSOURCE_IC14)
3418413e:	4a87      	ldr	r2, [pc, #540]	@ (3418435c <HAL_RCCEx_PeriphCLKConfig+0x1aa8>)
34184140:	4293      	cmp	r3, r2
34184142:	f000 8082 	beq.w	3418424a <HAL_RCCEx_PeriphCLKConfig+0x1996>
    else if (PeriphClkInit->Usart10ClockSelection == RCC_USART10CLKSOURCE_CLKP)
34184146:	4a86      	ldr	r2, [pc, #536]	@ (34184360 <HAL_RCCEx_PeriphCLKConfig+0x1aac>)
34184148:	4293      	cmp	r3, r2
3418414a:	d12b      	bne.n	341841a4 <HAL_RCCEx_PeriphCLKConfig+0x18f0>
  WRITE_REG(RCC->MISCENSR, RCC_MISCENSR_PERENS);
3418414c:	4b7e      	ldr	r3, [pc, #504]	@ (34184348 <HAL_RCCEx_PeriphCLKConfig+0x1a94>)
3418414e:	2240      	movs	r2, #64	@ 0x40
34184150:	f8c3 2a48 	str.w	r2, [r3, #2632]	@ 0xa48
}
34184154:	e026      	b.n	341841a4 <HAL_RCCEx_PeriphCLKConfig+0x18f0>
      MODIFY_REG(RCC->IC14CFGR, RCC_IC14CFGR_IC14SEL | RCC_IC14CFGR_IC14INT,
34184156:	4a7c      	ldr	r2, [pc, #496]	@ (34184348 <HAL_RCCEx_PeriphCLKConfig+0x1a94>)
34184158:	f8d2 30f8 	ldr.w	r3, [r2, #248]	@ 0xf8
3418415c:	f023 5343 	bic.w	r3, r3, #817889280	@ 0x30c00000
34184160:	f423 137c 	bic.w	r3, r3, #4128768	@ 0x3f0000
34184164:	6f21      	ldr	r1, [r4, #112]	@ 0x70
34184166:	6f60      	ldr	r0, [r4, #116]	@ 0x74
34184168:	3801      	subs	r0, #1
3418416a:	ea41 4100 	orr.w	r1, r1, r0, lsl #16
3418416e:	430b      	orrs	r3, r1
34184170:	f8c2 30f8 	str.w	r3, [r2, #248]	@ 0xf8
  WRITE_REG(RCC->DIVENSR, RCC_DIVENSR_IC14ENS);
34184174:	f44f 5300 	mov.w	r3, #8192	@ 0x2000
34184178:	f8c2 3a40 	str.w	r3, [r2, #2624]	@ 0xa40
}
3418417c:	e7d2      	b.n	34184124 <HAL_RCCEx_PeriphCLKConfig+0x1870>
      MODIFY_REG(RCC->IC9CFGR, RCC_IC9CFGR_IC9SEL | RCC_IC9CFGR_IC9INT,
3418417e:	4a72      	ldr	r2, [pc, #456]	@ (34184348 <HAL_RCCEx_PeriphCLKConfig+0x1a94>)
34184180:	f8d2 30e4 	ldr.w	r3, [r2, #228]	@ 0xe4
34184184:	f023 5343 	bic.w	r3, r3, #817889280	@ 0x30c00000
34184188:	f423 137c 	bic.w	r3, r3, #4128768	@ 0x3f0000
3418418c:	6ca1      	ldr	r1, [r4, #72]	@ 0x48
3418418e:	6ce0      	ldr	r0, [r4, #76]	@ 0x4c
34184190:	3801      	subs	r0, #1
34184192:	ea41 4100 	orr.w	r1, r1, r0, lsl #16
34184196:	430b      	orrs	r3, r1
34184198:	f8c2 30e4 	str.w	r3, [r2, #228]	@ 0xe4
  WRITE_REG(RCC->DIVENSR, RCC_DIVENSR_IC9ENS);
3418419c:	f44f 7380 	mov.w	r3, #256	@ 0x100
341841a0:	f8c2 3a40 	str.w	r3, [r2, #2624]	@ 0xa40
  LL_RCC_SetClockSource(ClkSource);
341841a4:	f8d4 0174 	ldr.w	r0, [r4, #372]	@ 0x174
341841a8:	f7fe fa96 	bl	341826d8 <LL_RCC_SetClockSource>
  if ((PeriphClkInit->PeriphClockSelection & RCC_PERIPHCLK_USBPHY1) == RCC_PERIPHCLK_USBPHY1)
341841ac:	6863      	ldr	r3, [r4, #4]
341841ae:	f413 2f80 	tst.w	r3, #262144	@ 0x40000
341841b2:	d016      	beq.n	341841e2 <HAL_RCCEx_PeriphCLKConfig+0x192e>
    if (PeriphClkInit->UsbPhy1ClockSelection == RCC_USBPHY1CLKSOURCE_IC15)
341841b4:	f8d4 3178 	ldr.w	r3, [r4, #376]	@ 0x178
341841b8:	4a6a      	ldr	r2, [pc, #424]	@ (34184364 <HAL_RCCEx_PeriphCLKConfig+0x1ab0>)
341841ba:	4293      	cmp	r3, r2
341841bc:	d059      	beq.n	34184272 <HAL_RCCEx_PeriphCLKConfig+0x19be>
    else if (PeriphClkInit->UsbPhy1ClockSelection == RCC_USBPHY1CLKSOURCE_CLKP)
341841be:	4a6a      	ldr	r2, [pc, #424]	@ (34184368 <HAL_RCCEx_PeriphCLKConfig+0x1ab4>)
341841c0:	4293      	cmp	r3, r2
341841c2:	d06a      	beq.n	3418429a <HAL_RCCEx_PeriphCLKConfig+0x19e6>
    __HAL_RCC_USBPHY1_CONFIG(PeriphClkInit->UsbPhy1ClockSelection);
341841c4:	f8d4 0178 	ldr.w	r0, [r4, #376]	@ 0x178
  LL_RCC_SetClockSource(ClkSource);
341841c8:	f020 4000 	bic.w	r0, r0, #2147483648	@ 0x80000000
341841cc:	f7fe fa84 	bl	341826d8 <LL_RCC_SetClockSource>
341841d0:	f8d4 3178 	ldr.w	r3, [r4, #376]	@ 0x178
341841d4:	2b00      	cmp	r3, #0
341841d6:	db65      	blt.n	341842a4 <HAL_RCCEx_PeriphCLKConfig+0x19f0>
  CLEAR_BIT(RCC->HSECFGR, RCC_HSECFGR_HSEDIV2SEL);
341841d8:	4a5b      	ldr	r2, [pc, #364]	@ (34184348 <HAL_RCCEx_PeriphCLKConfig+0x1a94>)
341841da:	6d53      	ldr	r3, [r2, #84]	@ 0x54
341841dc:	f023 0340 	bic.w	r3, r3, #64	@ 0x40
341841e0:	6553      	str	r3, [r2, #84]	@ 0x54
  if ((PeriphClkInit->PeriphClockSelection & RCC_PERIPHCLK_USBPHY2) == RCC_PERIPHCLK_USBPHY2)
341841e2:	6863      	ldr	r3, [r4, #4]
341841e4:	f413 1f80 	tst.w	r3, #1048576	@ 0x100000
341841e8:	d016      	beq.n	34184218 <HAL_RCCEx_PeriphCLKConfig+0x1964>
    if (PeriphClkInit->UsbPhy2ClockSelection == RCC_USBPHY2CLKSOURCE_IC15)
341841ea:	f8d4 3180 	ldr.w	r3, [r4, #384]	@ 0x180
341841ee:	4a5f      	ldr	r2, [pc, #380]	@ (3418436c <HAL_RCCEx_PeriphCLKConfig+0x1ab8>)
341841f0:	4293      	cmp	r3, r2
341841f2:	d05d      	beq.n	341842b0 <HAL_RCCEx_PeriphCLKConfig+0x19fc>
    else if (PeriphClkInit->UsbPhy2ClockSelection == RCC_USBPHY2CLKSOURCE_CLKP)
341841f4:	4a5e      	ldr	r2, [pc, #376]	@ (34184370 <HAL_RCCEx_PeriphCLKConfig+0x1abc>)
341841f6:	4293      	cmp	r3, r2
341841f8:	d06e      	beq.n	341842d8 <HAL_RCCEx_PeriphCLKConfig+0x1a24>
    __HAL_RCC_USBPHY2_CONFIG(PeriphClkInit->UsbPhy2ClockSelection);
341841fa:	f8d4 0180 	ldr.w	r0, [r4, #384]	@ 0x180
  LL_RCC_SetClockSource(ClkSource);
341841fe:	f020 4000 	bic.w	r0, r0, #2147483648	@ 0x80000000
34184202:	f7fe fa69 	bl	341826d8 <LL_RCC_SetClockSource>
34184206:	f8d4 3180 	ldr.w	r3, [r4, #384]	@ 0x180
3418420a:	2b00      	cmp	r3, #0
3418420c:	db69      	blt.n	341842e2 <HAL_RCCEx_PeriphCLKConfig+0x1a2e>
  CLEAR_BIT(RCC->HSECFGR, RCC_HSECFGR_HSEDIV2SEL);
3418420e:	4a4e      	ldr	r2, [pc, #312]	@ (34184348 <HAL_RCCEx_PeriphCLKConfig+0x1a94>)
34184210:	6d53      	ldr	r3, [r2, #84]	@ 0x54
34184212:	f023 0340 	bic.w	r3, r3, #64	@ 0x40
34184216:	6553      	str	r3, [r2, #84]	@ 0x54
  if ((PeriphClkInit->PeriphClockSelection & RCC_PERIPHCLK_USBOTGHS1) == RCC_PERIPHCLK_USBOTGHS1)
34184218:	6863      	ldr	r3, [r4, #4]
3418421a:	f413 2f00 	tst.w	r3, #524288	@ 0x80000
3418421e:	d166      	bne.n	341842ee <HAL_RCCEx_PeriphCLKConfig+0x1a3a>
  if ((PeriphClkInit->PeriphClockSelection & RCC_PERIPHCLK_USBOTGHS2) == RCC_PERIPHCLK_USBOTGHS2)
34184220:	6863      	ldr	r3, [r4, #4]
34184222:	f413 1f00 	tst.w	r3, #2097152	@ 0x200000
34184226:	d178      	bne.n	3418431a <HAL_RCCEx_PeriphCLKConfig+0x1a66>
  if ((PeriphClkInit->PeriphClockSelection & RCC_PERIPHCLK_TIM) == RCC_PERIPHCLK_TIM)
34184228:	6863      	ldr	r3, [r4, #4]
3418422a:	f013 0f80 	tst.w	r3, #128	@ 0x80
3418422e:	d008      	beq.n	34184242 <HAL_RCCEx_PeriphCLKConfig+0x198e>
    __HAL_RCC_TIMCLKPRESCALER_CONFIG(PeriphClkInit->TIMPresSelection);
34184230:	f8d4 118c 	ldr.w	r1, [r4, #396]	@ 0x18c
  MODIFY_REG(RCC->CFGR2, RCC_CFGR2_TIMPRE, Prescaler << RCC_CFGR2_TIMPRE_Pos);
34184234:	4a44      	ldr	r2, [pc, #272]	@ (34184348 <HAL_RCCEx_PeriphCLKConfig+0x1a94>)
34184236:	6a53      	ldr	r3, [r2, #36]	@ 0x24
34184238:	f023 7340 	bic.w	r3, r3, #50331648	@ 0x3000000
3418423c:	ea43 6301 	orr.w	r3, r3, r1, lsl #24
34184240:	6253      	str	r3, [r2, #36]	@ 0x24
  if (status == HAL_OK)
34184242:	b105      	cbz	r5, 34184246 <HAL_RCCEx_PeriphCLKConfig+0x1992>
  return HAL_ERROR;
34184244:	2501      	movs	r5, #1
}
34184246:	4628      	mov	r0, r5
34184248:	bd38      	pop	{r3, r4, r5, pc}
      MODIFY_REG(RCC->IC14CFGR, RCC_IC14CFGR_IC14SEL | RCC_IC14CFGR_IC14INT,
3418424a:	4a3f      	ldr	r2, [pc, #252]	@ (34184348 <HAL_RCCEx_PeriphCLKConfig+0x1a94>)
3418424c:	f8d2 30f8 	ldr.w	r3, [r2, #248]	@ 0xf8
34184250:	f023 5343 	bic.w	r3, r3, #817889280	@ 0x30c00000
34184254:	f423 137c 	bic.w	r3, r3, #4128768	@ 0x3f0000
34184258:	6f21      	ldr	r1, [r4, #112]	@ 0x70
3418425a:	6f60      	ldr	r0, [r4, #116]	@ 0x74
3418425c:	3801      	subs	r0, #1
3418425e:	ea41 4100 	orr.w	r1, r1, r0, lsl #16
34184262:	430b      	orrs	r3, r1
34184264:	f8c2 30f8 	str.w	r3, [r2, #248]	@ 0xf8
  WRITE_REG(RCC->DIVENSR, RCC_DIVENSR_IC14ENS);
34184268:	f44f 5300 	mov.w	r3, #8192	@ 0x2000
3418426c:	f8c2 3a40 	str.w	r3, [r2, #2624]	@ 0xa40
}
34184270:	e798      	b.n	341841a4 <HAL_RCCEx_PeriphCLKConfig+0x18f0>
      MODIFY_REG(RCC->IC15CFGR, RCC_IC15CFGR_IC15SEL | RCC_IC15CFGR_IC15INT,
34184272:	4a35      	ldr	r2, [pc, #212]	@ (34184348 <HAL_RCCEx_PeriphCLKConfig+0x1a94>)
34184274:	f8d2 30fc 	ldr.w	r3, [r2, #252]	@ 0xfc
34184278:	f023 5343 	bic.w	r3, r3, #817889280	@ 0x30c00000
3418427c:	f423 137c 	bic.w	r3, r3, #4128768	@ 0x3f0000
34184280:	6fa1      	ldr	r1, [r4, #120]	@ 0x78
34184282:	6fe0      	ldr	r0, [r4, #124]	@ 0x7c
34184284:	3801      	subs	r0, #1
34184286:	ea41 4100 	orr.w	r1, r1, r0, lsl #16
3418428a:	430b      	orrs	r3, r1
3418428c:	f8c2 30fc 	str.w	r3, [r2, #252]	@ 0xfc
  WRITE_REG(RCC->DIVENSR, RCC_DIVENSR_IC15ENS);
34184290:	f44f 4380 	mov.w	r3, #16384	@ 0x4000
34184294:	f8c2 3a40 	str.w	r3, [r2, #2624]	@ 0xa40
}
34184298:	e794      	b.n	341841c4 <HAL_RCCEx_PeriphCLKConfig+0x1910>
  WRITE_REG(RCC->MISCENSR, RCC_MISCENSR_PERENS);
3418429a:	4b2b      	ldr	r3, [pc, #172]	@ (34184348 <HAL_RCCEx_PeriphCLKConfig+0x1a94>)
3418429c:	2240      	movs	r2, #64	@ 0x40
3418429e:	f8c3 2a48 	str.w	r2, [r3, #2632]	@ 0xa48
}
341842a2:	e78f      	b.n	341841c4 <HAL_RCCEx_PeriphCLKConfig+0x1910>
  SET_BIT(RCC->HSECFGR, RCC_HSECFGR_HSEDIV2SEL);
341842a4:	4a28      	ldr	r2, [pc, #160]	@ (34184348 <HAL_RCCEx_PeriphCLKConfig+0x1a94>)
341842a6:	6d53      	ldr	r3, [r2, #84]	@ 0x54
341842a8:	f043 0340 	orr.w	r3, r3, #64	@ 0x40
341842ac:	6553      	str	r3, [r2, #84]	@ 0x54
}
341842ae:	e798      	b.n	341841e2 <HAL_RCCEx_PeriphCLKConfig+0x192e>
      MODIFY_REG(RCC->IC15CFGR, RCC_IC15CFGR_IC15SEL | RCC_IC15CFGR_IC15INT,
341842b0:	4a25      	ldr	r2, [pc, #148]	@ (34184348 <HAL_RCCEx_PeriphCLKConfig+0x1a94>)
341842b2:	f8d2 30fc 	ldr.w	r3, [r2, #252]	@ 0xfc
341842b6:	f023 5343 	bic.w	r3, r3, #817889280	@ 0x30c00000
341842ba:	f423 137c 	bic.w	r3, r3, #4128768	@ 0x3f0000
341842be:	6fa1      	ldr	r1, [r4, #120]	@ 0x78
341842c0:	6fe0      	ldr	r0, [r4, #124]	@ 0x7c
341842c2:	3801      	subs	r0, #1
341842c4:	ea41 4100 	orr.w	r1, r1, r0, lsl #16
341842c8:	430b      	orrs	r3, r1
341842ca:	f8c2 30fc 	str.w	r3, [r2, #252]	@ 0xfc
  WRITE_REG(RCC->DIVENSR, RCC_DIVENSR_IC15ENS);
341842ce:	f44f 4380 	mov.w	r3, #16384	@ 0x4000
341842d2:	f8c2 3a40 	str.w	r3, [r2, #2624]	@ 0xa40
}
341842d6:	e790      	b.n	341841fa <HAL_RCCEx_PeriphCLKConfig+0x1946>
  WRITE_REG(RCC->MISCENSR, RCC_MISCENSR_PERENS);
341842d8:	4b1b      	ldr	r3, [pc, #108]	@ (34184348 <HAL_RCCEx_PeriphCLKConfig+0x1a94>)
341842da:	2240      	movs	r2, #64	@ 0x40
341842dc:	f8c3 2a48 	str.w	r2, [r3, #2632]	@ 0xa48
}
341842e0:	e78b      	b.n	341841fa <HAL_RCCEx_PeriphCLKConfig+0x1946>
  SET_BIT(RCC->HSECFGR, RCC_HSECFGR_HSEDIV2SEL);
341842e2:	4a19      	ldr	r2, [pc, #100]	@ (34184348 <HAL_RCCEx_PeriphCLKConfig+0x1a94>)
341842e4:	6d53      	ldr	r3, [r2, #84]	@ 0x54
341842e6:	f043 0340 	orr.w	r3, r3, #64	@ 0x40
341842ea:	6553      	str	r3, [r2, #84]	@ 0x54
}
341842ec:	e794      	b.n	34184218 <HAL_RCCEx_PeriphCLKConfig+0x1964>
    __HAL_RCC_USBOTGHS1_CONFIG(PeriphClkInit->UsbOtgHs1ClockSelection);
341842ee:	f8d4 017c 	ldr.w	r0, [r4, #380]	@ 0x17c
  LL_RCC_SetClockSource(ClkSource);
341842f2:	f020 4000 	bic.w	r0, r0, #2147483648	@ 0x80000000
341842f6:	f7fe f9ef 	bl	341826d8 <LL_RCC_SetClockSource>
341842fa:	f8d4 317c 	ldr.w	r3, [r4, #380]	@ 0x17c
341842fe:	2b00      	cmp	r3, #0
34184300:	db05      	blt.n	3418430e <HAL_RCCEx_PeriphCLKConfig+0x1a5a>
  CLEAR_BIT(RCC->HSECFGR, RCC_HSECFGR_HSEDIV2SEL);
34184302:	4a11      	ldr	r2, [pc, #68]	@ (34184348 <HAL_RCCEx_PeriphCLKConfig+0x1a94>)
34184304:	6d53      	ldr	r3, [r2, #84]	@ 0x54
34184306:	f023 0340 	bic.w	r3, r3, #64	@ 0x40
3418430a:	6553      	str	r3, [r2, #84]	@ 0x54
}
3418430c:	e788      	b.n	34184220 <HAL_RCCEx_PeriphCLKConfig+0x196c>
  SET_BIT(RCC->HSECFGR, RCC_HSECFGR_HSEDIV2SEL);
3418430e:	4a0e      	ldr	r2, [pc, #56]	@ (34184348 <HAL_RCCEx_PeriphCLKConfig+0x1a94>)
34184310:	6d53      	ldr	r3, [r2, #84]	@ 0x54
34184312:	f043 0340 	orr.w	r3, r3, #64	@ 0x40
34184316:	6553      	str	r3, [r2, #84]	@ 0x54
}
34184318:	e782      	b.n	34184220 <HAL_RCCEx_PeriphCLKConfig+0x196c>
    __HAL_RCC_USBOTGHS2_CONFIG(PeriphClkInit->UsbOtgHs2ClockSelection);
3418431a:	f8d4 0184 	ldr.w	r0, [r4, #388]	@ 0x184
  LL_RCC_SetClockSource(ClkSource);
3418431e:	f020 4000 	bic.w	r0, r0, #2147483648	@ 0x80000000
34184322:	f7fe f9d9 	bl	341826d8 <LL_RCC_SetClockSource>
34184326:	f8d4 3184 	ldr.w	r3, [r4, #388]	@ 0x184
3418432a:	2b00      	cmp	r3, #0
3418432c:	db05      	blt.n	3418433a <HAL_RCCEx_PeriphCLKConfig+0x1a86>
  CLEAR_BIT(RCC->HSECFGR, RCC_HSECFGR_HSEDIV2SEL);
3418432e:	4a06      	ldr	r2, [pc, #24]	@ (34184348 <HAL_RCCEx_PeriphCLKConfig+0x1a94>)
34184330:	6d53      	ldr	r3, [r2, #84]	@ 0x54
34184332:	f023 0340 	bic.w	r3, r3, #64	@ 0x40
34184336:	6553      	str	r3, [r2, #84]	@ 0x54
}
34184338:	e776      	b.n	34184228 <HAL_RCCEx_PeriphCLKConfig+0x1974>
  SET_BIT(RCC->HSECFGR, RCC_HSECFGR_HSEDIV2SEL);
3418433a:	4a03      	ldr	r2, [pc, #12]	@ (34184348 <HAL_RCCEx_PeriphCLKConfig+0x1a94>)
3418433c:	6d53      	ldr	r3, [r2, #84]	@ 0x54
3418433e:	f043 0340 	orr.w	r3, r3, #64	@ 0x40
34184342:	6553      	str	r3, [r2, #84]	@ 0x54
}
34184344:	e770      	b.n	34184228 <HAL_RCCEx_PeriphCLKConfig+0x1974>
34184346:	bf00      	nop
34184348:	56028000 	.word	0x56028000
3418434c:	07020034 	.word	0x07020034
34184350:	07030034 	.word	0x07030034
34184354:	07010034 	.word	0x07010034
34184358:	07020434 	.word	0x07020434
3418435c:	07030434 	.word	0x07030434
34184360:	07010434 	.word	0x07010434
34184364:	03020c14 	.word	0x03020c14
34184368:	03010c14 	.word	0x03010c14
3418436c:	03021414 	.word	0x03021414
34184370:	03011414 	.word	0x03011414

34184374 <HAL_RCCEx_GetPLL1CLKFreq>:
{
34184374:	b530      	push	{r4, r5, lr}
34184376:	b083      	sub	sp, #12
  return ((READ_BIT(RCC->SR, RCC_SR_PLL1RDY) == (RCC_SR_PLL1RDY)) ? 1UL : 0UL);
34184378:	4b21      	ldr	r3, [pc, #132]	@ (34184400 <HAL_RCCEx_GetPLL1CLKFreq+0x8c>)
3418437a:	685b      	ldr	r3, [r3, #4]
3418437c:	f413 7f80 	tst.w	r3, #256	@ 0x100
34184380:	d007      	beq.n	34184392 <HAL_RCCEx_GetPLL1CLKFreq+0x1e>
  return ((READ_BIT(RCC->PLL1CFGR3, RCC_PLL1CFGR3_PLL1PDIVEN) == RCC_PLL1CFGR3_PLL1PDIVEN) ? 1UL : 0UL);
34184382:	4b1f      	ldr	r3, [pc, #124]	@ (34184400 <HAL_RCCEx_GetPLL1CLKFreq+0x8c>)
34184384:	f8d3 0088 	ldr.w	r0, [r3, #136]	@ 0x88
34184388:	f010 4080 	ands.w	r0, r0, #1073741824	@ 0x40000000
3418438c:	d10f      	bne.n	341843ae <HAL_RCCEx_GetPLL1CLKFreq+0x3a>
}
3418438e:	b003      	add	sp, #12
34184390:	bd30      	pop	{r4, r5, pc}
  return ((READ_BIT(RCC->PLL1CFGR1, RCC_PLL1CFGR1_PLL1BYP) == RCC_PLL1CFGR1_PLL1BYP) ? 1UL : 0UL);
34184392:	4b1b      	ldr	r3, [pc, #108]	@ (34184400 <HAL_RCCEx_GetPLL1CLKFreq+0x8c>)
34184394:	f8d3 0080 	ldr.w	r0, [r3, #128]	@ 0x80
34184398:	f010 6000 	ands.w	r0, r0, #134217728	@ 0x8000000
3418439c:	d0f7      	beq.n	3418438e <HAL_RCCEx_GetPLL1CLKFreq+0x1a>
  return (uint32_t)(READ_BIT(RCC->PLL1CFGR1, RCC_PLL1CFGR1_PLL1SEL));
3418439e:	4b18      	ldr	r3, [pc, #96]	@ (34184400 <HAL_RCCEx_GetPLL1CLKFreq+0x8c>)
341843a0:	f8d3 0080 	ldr.w	r0, [r3, #128]	@ 0x80
    plloutputfreq = RCCEx_GetPLLSourceFreq(LL_RCC_PLL1_GetSource());
341843a4:	f000 40e0 	and.w	r0, r0, #1879048192	@ 0x70000000
341843a8:	f7fe f9e4 	bl	34182774 <RCCEx_GetPLLSourceFreq>
341843ac:	e7ef      	b.n	3418438e <HAL_RCCEx_GetPLL1CLKFreq+0x1a>
341843ae:	4b14      	ldr	r3, [pc, #80]	@ (34184400 <HAL_RCCEx_GetPLL1CLKFreq+0x8c>)
341843b0:	f8d3 0080 	ldr.w	r0, [r3, #128]	@ 0x80
      uint32_t pllinputfreq = RCCEx_GetPLLSourceFreq(LL_RCC_PLL1_GetSource());
341843b4:	f000 40e0 	and.w	r0, r0, #1879048192	@ 0x70000000
341843b8:	f7fe f9dc 	bl	34182774 <RCCEx_GetPLLSourceFreq>
      if (pllinputfreq != RCC_PERIPH_FREQUENCY_NO)
341843bc:	2800      	cmp	r0, #0
341843be:	d0e6      	beq.n	3418438e <HAL_RCCEx_GetPLL1CLKFreq+0x1a>
  return (uint32_t)(READ_BIT(RCC->PLL1CFGR1, RCC_PLL1CFGR1_PLL1DIVM) >> RCC_PLL1CFGR1_PLL1DIVM_Pos);
341843c0:	4b0f      	ldr	r3, [pc, #60]	@ (34184400 <HAL_RCCEx_GetPLL1CLKFreq+0x8c>)
341843c2:	f8d3 3080 	ldr.w	r3, [r3, #128]	@ 0x80
341843c6:	f3c3 5105 	ubfx	r1, r3, #20, #6
        if (divm != 0U)
341843ca:	f013 7f7c 	tst.w	r3, #66060288	@ 0x3f00000
341843ce:	d015      	beq.n	341843fc <HAL_RCCEx_GetPLL1CLKFreq+0x88>
  return (uint32_t)((READ_BIT(RCC->PLL1CFGR1, RCC_PLL1CFGR1_PLL1DIVN) >> RCC_PLL1CFGR1_PLL1DIVN_Pos));
341843d0:	4b0b      	ldr	r3, [pc, #44]	@ (34184400 <HAL_RCCEx_GetPLL1CLKFreq+0x8c>)
341843d2:	f8d3 4080 	ldr.w	r4, [r3, #128]	@ 0x80
  return (uint32_t)(READ_BIT(RCC->PLL1CFGR2, RCC_PLL1CFGR2_PLL1DIVNFRAC) >> RCC_PLL1CFGR2_PLL1DIVNFRAC_Pos);
341843d6:	f8d3 5084 	ldr.w	r5, [r3, #132]	@ 0x84
  return (uint32_t)(READ_BIT(RCC->PLL1CFGR3, RCC_PLL1CFGR3_PLL1PDIV1) >> RCC_PLL1CFGR3_PLL1PDIV1_Pos);
341843da:	f8d3 2088 	ldr.w	r2, [r3, #136]	@ 0x88
341843de:	f3c2 62c2 	ubfx	r2, r2, #27, #3
  return (uint32_t)(READ_BIT(RCC->PLL1CFGR3, RCC_PLL1CFGR3_PLL1PDIV2) >> RCC_PLL1CFGR3_PLL1PDIV2_Pos);
341843e2:	f8d3 3088 	ldr.w	r3, [r3, #136]	@ 0x88
341843e6:	f3c3 6302 	ubfx	r3, r3, #24, #3
          plloutputfreq = RCCEx_CalcPLLFreq(pllinputfreq, divm, LL_RCC_PLL1_GetN(), LL_RCC_PLL1_GetFRACN(), \
341843ea:	9301      	str	r3, [sp, #4]
341843ec:	9200      	str	r2, [sp, #0]
341843ee:	f025 437f 	bic.w	r3, r5, #4278190080	@ 0xff000000
341843f2:	f3c4 220b 	ubfx	r2, r4, #8, #12
341843f6:	f7fe f9fb 	bl	341827f0 <RCCEx_CalcPLLFreq>
341843fa:	e7c8      	b.n	3418438e <HAL_RCCEx_GetPLL1CLKFreq+0x1a>
  uint32_t plloutputfreq = RCC_PERIPH_FREQUENCY_NO;
341843fc:	4608      	mov	r0, r1
  return plloutputfreq;
341843fe:	e7c6      	b.n	3418438e <HAL_RCCEx_GetPLL1CLKFreq+0x1a>
34184400:	56028000 	.word	0x56028000

34184404 <HAL_RCCEx_GetPLL2CLKFreq>:
{
34184404:	b530      	push	{r4, r5, lr}
34184406:	b083      	sub	sp, #12
  return ((READ_BIT(RCC->SR, RCC_SR_PLL2RDY) == (RCC_SR_PLL2RDY)) ? 1UL : 0UL);
34184408:	4b21      	ldr	r3, [pc, #132]	@ (34184490 <HAL_RCCEx_GetPLL2CLKFreq+0x8c>)
3418440a:	685b      	ldr	r3, [r3, #4]
3418440c:	f413 7f00 	tst.w	r3, #512	@ 0x200
34184410:	d007      	beq.n	34184422 <HAL_RCCEx_GetPLL2CLKFreq+0x1e>
  return ((READ_BIT(RCC->PLL2CFGR3, RCC_PLL2CFGR3_PLL2PDIVEN) == RCC_PLL2CFGR3_PLL2PDIVEN) ? 1UL : 0UL);
34184412:	4b1f      	ldr	r3, [pc, #124]	@ (34184490 <HAL_RCCEx_GetPLL2CLKFreq+0x8c>)
34184414:	f8d3 0098 	ldr.w	r0, [r3, #152]	@ 0x98
34184418:	f010 4080 	ands.w	r0, r0, #1073741824	@ 0x40000000
3418441c:	d10f      	bne.n	3418443e <HAL_RCCEx_GetPLL2CLKFreq+0x3a>
}
3418441e:	b003      	add	sp, #12
34184420:	bd30      	pop	{r4, r5, pc}
  return ((READ_BIT(RCC->PLL2CFGR1, RCC_PLL2CFGR1_PLL2BYP) == RCC_PLL2CFGR1_PLL2BYP) ? 1UL : 0UL);
34184422:	4b1b      	ldr	r3, [pc, #108]	@ (34184490 <HAL_RCCEx_GetPLL2CLKFreq+0x8c>)
34184424:	f8d3 0090 	ldr.w	r0, [r3, #144]	@ 0x90
34184428:	f010 6000 	ands.w	r0, r0, #134217728	@ 0x8000000
3418442c:	d0f7      	beq.n	3418441e <HAL_RCCEx_GetPLL2CLKFreq+0x1a>
  return (uint32_t)(READ_BIT(RCC->PLL2CFGR1, RCC_PLL2CFGR1_PLL2SEL));
3418442e:	4b18      	ldr	r3, [pc, #96]	@ (34184490 <HAL_RCCEx_GetPLL2CLKFreq+0x8c>)
34184430:	f8d3 0090 	ldr.w	r0, [r3, #144]	@ 0x90
    plloutputfreq = RCCEx_GetPLLSourceFreq(LL_RCC_PLL2_GetSource());
34184434:	f000 40e0 	and.w	r0, r0, #1879048192	@ 0x70000000
34184438:	f7fe f99c 	bl	34182774 <RCCEx_GetPLLSourceFreq>
3418443c:	e7ef      	b.n	3418441e <HAL_RCCEx_GetPLL2CLKFreq+0x1a>
3418443e:	4b14      	ldr	r3, [pc, #80]	@ (34184490 <HAL_RCCEx_GetPLL2CLKFreq+0x8c>)
34184440:	f8d3 0090 	ldr.w	r0, [r3, #144]	@ 0x90
      uint32_t pllinputfreq = RCCEx_GetPLLSourceFreq(LL_RCC_PLL2_GetSource());
34184444:	f000 40e0 	and.w	r0, r0, #1879048192	@ 0x70000000
34184448:	f7fe f994 	bl	34182774 <RCCEx_GetPLLSourceFreq>
      if (pllinputfreq != RCC_PERIPH_FREQUENCY_NO)
3418444c:	2800      	cmp	r0, #0
3418444e:	d0e6      	beq.n	3418441e <HAL_RCCEx_GetPLL2CLKFreq+0x1a>
  return (uint32_t)(READ_BIT(RCC->PLL2CFGR1, RCC_PLL2CFGR1_PLL2DIVM) >> RCC_PLL2CFGR1_PLL2DIVM_Pos);
34184450:	4b0f      	ldr	r3, [pc, #60]	@ (34184490 <HAL_RCCEx_GetPLL2CLKFreq+0x8c>)
34184452:	f8d3 3090 	ldr.w	r3, [r3, #144]	@ 0x90
34184456:	f3c3 5105 	ubfx	r1, r3, #20, #6
        if (divm != 0U)
3418445a:	f013 7f7c 	tst.w	r3, #66060288	@ 0x3f00000
3418445e:	d015      	beq.n	3418448c <HAL_RCCEx_GetPLL2CLKFreq+0x88>
  return (uint32_t)((READ_BIT(RCC->PLL2CFGR1, RCC_PLL2CFGR1_PLL2DIVN) >> RCC_PLL2CFGR1_PLL2DIVN_Pos));
34184460:	4b0b      	ldr	r3, [pc, #44]	@ (34184490 <HAL_RCCEx_GetPLL2CLKFreq+0x8c>)
34184462:	f8d3 4090 	ldr.w	r4, [r3, #144]	@ 0x90
  return (uint32_t)(READ_BIT(RCC->PLL2CFGR2, RCC_PLL2CFGR2_PLL2DIVNFRAC) >> RCC_PLL2CFGR2_PLL2DIVNFRAC_Pos);
34184466:	f8d3 5094 	ldr.w	r5, [r3, #148]	@ 0x94
  return (uint32_t)(READ_BIT(RCC->PLL2CFGR3, RCC_PLL2CFGR3_PLL2PDIV1) >> RCC_PLL2CFGR3_PLL2PDIV1_Pos);
3418446a:	f8d3 2098 	ldr.w	r2, [r3, #152]	@ 0x98
3418446e:	f3c2 62c2 	ubfx	r2, r2, #27, #3
  return (uint32_t)(READ_BIT(RCC->PLL2CFGR3, RCC_PLL2CFGR3_PLL2PDIV2) >> RCC_PLL2CFGR3_PLL2PDIV2_Pos);
34184472:	f8d3 3098 	ldr.w	r3, [r3, #152]	@ 0x98
34184476:	f3c3 6302 	ubfx	r3, r3, #24, #3
          plloutputfreq = RCCEx_CalcPLLFreq(pllinputfreq, divm, LL_RCC_PLL2_GetN(), LL_RCC_PLL2_GetFRACN(), \
3418447a:	9301      	str	r3, [sp, #4]
3418447c:	9200      	str	r2, [sp, #0]
3418447e:	f025 437f 	bic.w	r3, r5, #4278190080	@ 0xff000000
34184482:	f3c4 220b 	ubfx	r2, r4, #8, #12
34184486:	f7fe f9b3 	bl	341827f0 <RCCEx_CalcPLLFreq>
3418448a:	e7c8      	b.n	3418441e <HAL_RCCEx_GetPLL2CLKFreq+0x1a>
  uint32_t plloutputfreq = RCC_PERIPH_FREQUENCY_NO;
3418448c:	4608      	mov	r0, r1
  return plloutputfreq;
3418448e:	e7c6      	b.n	3418441e <HAL_RCCEx_GetPLL2CLKFreq+0x1a>
34184490:	56028000 	.word	0x56028000

34184494 <HAL_RCCEx_GetPLL3CLKFreq>:
{
34184494:	b530      	push	{r4, r5, lr}
34184496:	b083      	sub	sp, #12
  return ((READ_BIT(RCC->SR, RCC_SR_PLL3RDY) == (RCC_SR_PLL3RDY)) ? 1UL : 0UL);
34184498:	4b21      	ldr	r3, [pc, #132]	@ (34184520 <HAL_RCCEx_GetPLL3CLKFreq+0x8c>)
3418449a:	685b      	ldr	r3, [r3, #4]
3418449c:	f413 6f80 	tst.w	r3, #1024	@ 0x400
341844a0:	d007      	beq.n	341844b2 <HAL_RCCEx_GetPLL3CLKFreq+0x1e>
  return ((READ_BIT(RCC->PLL3CFGR3, RCC_PLL3CFGR3_PLL3PDIVEN) == RCC_PLL3CFGR3_PLL3PDIVEN) ? 1UL : 0UL);
341844a2:	4b1f      	ldr	r3, [pc, #124]	@ (34184520 <HAL_RCCEx_GetPLL3CLKFreq+0x8c>)
341844a4:	f8d3 00a8 	ldr.w	r0, [r3, #168]	@ 0xa8
341844a8:	f010 4080 	ands.w	r0, r0, #1073741824	@ 0x40000000
341844ac:	d10f      	bne.n	341844ce <HAL_RCCEx_GetPLL3CLKFreq+0x3a>
}
341844ae:	b003      	add	sp, #12
341844b0:	bd30      	pop	{r4, r5, pc}
  return ((READ_BIT(RCC->PLL3CFGR1, RCC_PLL3CFGR1_PLL3BYP) == RCC_PLL3CFGR1_PLL3BYP) ? 1UL : 0UL);
341844b2:	4b1b      	ldr	r3, [pc, #108]	@ (34184520 <HAL_RCCEx_GetPLL3CLKFreq+0x8c>)
341844b4:	f8d3 00a0 	ldr.w	r0, [r3, #160]	@ 0xa0
341844b8:	f010 6000 	ands.w	r0, r0, #134217728	@ 0x8000000
341844bc:	d0f7      	beq.n	341844ae <HAL_RCCEx_GetPLL3CLKFreq+0x1a>
  return (uint32_t)(READ_BIT(RCC->PLL3CFGR1, RCC_PLL3CFGR1_PLL3SEL));
341844be:	4b18      	ldr	r3, [pc, #96]	@ (34184520 <HAL_RCCEx_GetPLL3CLKFreq+0x8c>)
341844c0:	f8d3 00a0 	ldr.w	r0, [r3, #160]	@ 0xa0
    plloutputfreq = RCCEx_GetPLLSourceFreq(LL_RCC_PLL3_GetSource());
341844c4:	f000 40e0 	and.w	r0, r0, #1879048192	@ 0x70000000
341844c8:	f7fe f954 	bl	34182774 <RCCEx_GetPLLSourceFreq>
341844cc:	e7ef      	b.n	341844ae <HAL_RCCEx_GetPLL3CLKFreq+0x1a>
341844ce:	4b14      	ldr	r3, [pc, #80]	@ (34184520 <HAL_RCCEx_GetPLL3CLKFreq+0x8c>)
341844d0:	f8d3 00a0 	ldr.w	r0, [r3, #160]	@ 0xa0
      uint32_t pllinputfreq = RCCEx_GetPLLSourceFreq(LL_RCC_PLL3_GetSource());
341844d4:	f000 40e0 	and.w	r0, r0, #1879048192	@ 0x70000000
341844d8:	f7fe f94c 	bl	34182774 <RCCEx_GetPLLSourceFreq>
      if (pllinputfreq != RCC_PERIPH_FREQUENCY_NO)
341844dc:	2800      	cmp	r0, #0
341844de:	d0e6      	beq.n	341844ae <HAL_RCCEx_GetPLL3CLKFreq+0x1a>
  return (uint32_t)(READ_BIT(RCC->PLL3CFGR1, RCC_PLL3CFGR1_PLL3DIVM) >> RCC_PLL3CFGR1_PLL3DIVM_Pos);
341844e0:	4b0f      	ldr	r3, [pc, #60]	@ (34184520 <HAL_RCCEx_GetPLL3CLKFreq+0x8c>)
341844e2:	f8d3 30a0 	ldr.w	r3, [r3, #160]	@ 0xa0
341844e6:	f3c3 5105 	ubfx	r1, r3, #20, #6
        if (divm != 0U)
341844ea:	f013 7f7c 	tst.w	r3, #66060288	@ 0x3f00000
341844ee:	d015      	beq.n	3418451c <HAL_RCCEx_GetPLL3CLKFreq+0x88>
  return (uint32_t)((READ_BIT(RCC->PLL3CFGR1, RCC_PLL3CFGR1_PLL3DIVN) >> RCC_PLL3CFGR1_PLL3DIVN_Pos));
341844f0:	4b0b      	ldr	r3, [pc, #44]	@ (34184520 <HAL_RCCEx_GetPLL3CLKFreq+0x8c>)
341844f2:	f8d3 40a0 	ldr.w	r4, [r3, #160]	@ 0xa0
  return (uint32_t)(READ_BIT(RCC->PLL3CFGR2, RCC_PLL3CFGR2_PLL3DIVNFRAC) >> RCC_PLL3CFGR2_PLL3DIVNFRAC_Pos);
341844f6:	f8d3 50a4 	ldr.w	r5, [r3, #164]	@ 0xa4
  return (uint32_t)(READ_BIT(RCC->PLL3CFGR3, RCC_PLL3CFGR3_PLL3PDIV1) >> RCC_PLL3CFGR3_PLL3PDIV1_Pos);
341844fa:	f8d3 20a8 	ldr.w	r2, [r3, #168]	@ 0xa8
341844fe:	f3c2 62c2 	ubfx	r2, r2, #27, #3
  return (uint32_t)(READ_BIT(RCC->PLL3CFGR3, RCC_PLL3CFGR3_PLL3PDIV2) >> RCC_PLL3CFGR3_PLL3PDIV2_Pos);
34184502:	f8d3 30a8 	ldr.w	r3, [r3, #168]	@ 0xa8
34184506:	f3c3 6302 	ubfx	r3, r3, #24, #3
          plloutputfreq = RCCEx_CalcPLLFreq(pllinputfreq, divm, LL_RCC_PLL3_GetN(), LL_RCC_PLL3_GetFRACN(), \
3418450a:	9301      	str	r3, [sp, #4]
3418450c:	9200      	str	r2, [sp, #0]
3418450e:	f025 437f 	bic.w	r3, r5, #4278190080	@ 0xff000000
34184512:	f3c4 220b 	ubfx	r2, r4, #8, #12
34184516:	f7fe f96b 	bl	341827f0 <RCCEx_CalcPLLFreq>
3418451a:	e7c8      	b.n	341844ae <HAL_RCCEx_GetPLL3CLKFreq+0x1a>
  uint32_t plloutputfreq = RCC_PERIPH_FREQUENCY_NO;
3418451c:	4608      	mov	r0, r1
  return plloutputfreq;
3418451e:	e7c6      	b.n	341844ae <HAL_RCCEx_GetPLL3CLKFreq+0x1a>
34184520:	56028000 	.word	0x56028000

34184524 <HAL_RCCEx_GetPLL4CLKFreq>:
{
34184524:	b530      	push	{r4, r5, lr}
34184526:	b083      	sub	sp, #12
  return ((READ_BIT(RCC->SR, RCC_SR_PLL4RDY) == (RCC_SR_PLL4RDY)) ? 1UL : 0UL);
34184528:	4b21      	ldr	r3, [pc, #132]	@ (341845b0 <HAL_RCCEx_GetPLL4CLKFreq+0x8c>)
3418452a:	685b      	ldr	r3, [r3, #4]
3418452c:	f413 6f00 	tst.w	r3, #2048	@ 0x800
34184530:	d007      	beq.n	34184542 <HAL_RCCEx_GetPLL4CLKFreq+0x1e>
  return ((READ_BIT(RCC->PLL4CFGR3, RCC_PLL4CFGR3_PLL4PDIVEN) == RCC_PLL4CFGR3_PLL4PDIVEN) ? 1UL : 0UL);
34184532:	4b1f      	ldr	r3, [pc, #124]	@ (341845b0 <HAL_RCCEx_GetPLL4CLKFreq+0x8c>)
34184534:	f8d3 00b8 	ldr.w	r0, [r3, #184]	@ 0xb8
34184538:	f010 4080 	ands.w	r0, r0, #1073741824	@ 0x40000000
3418453c:	d10f      	bne.n	3418455e <HAL_RCCEx_GetPLL4CLKFreq+0x3a>
}
3418453e:	b003      	add	sp, #12
34184540:	bd30      	pop	{r4, r5, pc}
  return ((READ_BIT(RCC->PLL4CFGR1, RCC_PLL4CFGR1_PLL4BYP) == RCC_PLL4CFGR1_PLL4BYP) ? 1UL : 0UL);
34184542:	4b1b      	ldr	r3, [pc, #108]	@ (341845b0 <HAL_RCCEx_GetPLL4CLKFreq+0x8c>)
34184544:	f8d3 00b0 	ldr.w	r0, [r3, #176]	@ 0xb0
34184548:	f010 6000 	ands.w	r0, r0, #134217728	@ 0x8000000
3418454c:	d0f7      	beq.n	3418453e <HAL_RCCEx_GetPLL4CLKFreq+0x1a>
  return (uint32_t)(READ_BIT(RCC->PLL4CFGR1, RCC_PLL4CFGR1_PLL4SEL));
3418454e:	4b18      	ldr	r3, [pc, #96]	@ (341845b0 <HAL_RCCEx_GetPLL4CLKFreq+0x8c>)
34184550:	f8d3 00b0 	ldr.w	r0, [r3, #176]	@ 0xb0
    plloutputfreq = RCCEx_GetPLLSourceFreq(LL_RCC_PLL4_GetSource());
34184554:	f000 40e0 	and.w	r0, r0, #1879048192	@ 0x70000000
34184558:	f7fe f90c 	bl	34182774 <RCCEx_GetPLLSourceFreq>
3418455c:	e7ef      	b.n	3418453e <HAL_RCCEx_GetPLL4CLKFreq+0x1a>
3418455e:	4b14      	ldr	r3, [pc, #80]	@ (341845b0 <HAL_RCCEx_GetPLL4CLKFreq+0x8c>)
34184560:	f8d3 00b0 	ldr.w	r0, [r3, #176]	@ 0xb0
      uint32_t pllinputfreq = RCCEx_GetPLLSourceFreq(LL_RCC_PLL4_GetSource());
34184564:	f000 40e0 	and.w	r0, r0, #1879048192	@ 0x70000000
34184568:	f7fe f904 	bl	34182774 <RCCEx_GetPLLSourceFreq>
      if (pllinputfreq != RCC_PERIPH_FREQUENCY_NO)
3418456c:	2800      	cmp	r0, #0
3418456e:	d0e6      	beq.n	3418453e <HAL_RCCEx_GetPLL4CLKFreq+0x1a>
  return (uint32_t)(READ_BIT(RCC->PLL4CFGR1, RCC_PLL4CFGR1_PLL4DIVM) >> RCC_PLL4CFGR1_PLL4DIVM_Pos);
34184570:	4b0f      	ldr	r3, [pc, #60]	@ (341845b0 <HAL_RCCEx_GetPLL4CLKFreq+0x8c>)
34184572:	f8d3 30b0 	ldr.w	r3, [r3, #176]	@ 0xb0
34184576:	f3c3 5105 	ubfx	r1, r3, #20, #6
        if (divm != 0U)
3418457a:	f013 7f7c 	tst.w	r3, #66060288	@ 0x3f00000
3418457e:	d015      	beq.n	341845ac <HAL_RCCEx_GetPLL4CLKFreq+0x88>
  return (uint32_t)((READ_BIT(RCC->PLL4CFGR1, RCC_PLL4CFGR1_PLL4DIVN) >> RCC_PLL4CFGR1_PLL4DIVN_Pos));
34184580:	4b0b      	ldr	r3, [pc, #44]	@ (341845b0 <HAL_RCCEx_GetPLL4CLKFreq+0x8c>)
34184582:	f8d3 40b0 	ldr.w	r4, [r3, #176]	@ 0xb0
  return (uint32_t)(READ_BIT(RCC->PLL4CFGR2, RCC_PLL4CFGR2_PLL4DIVNFRAC) >> RCC_PLL4CFGR2_PLL4DIVNFRAC_Pos);
34184586:	f8d3 50b4 	ldr.w	r5, [r3, #180]	@ 0xb4
  return (uint32_t)(READ_BIT(RCC->PLL4CFGR3, RCC_PLL4CFGR3_PLL4PDIV1) >> RCC_PLL4CFGR3_PLL4PDIV1_Pos);
3418458a:	f8d3 20b8 	ldr.w	r2, [r3, #184]	@ 0xb8
3418458e:	f3c2 62c2 	ubfx	r2, r2, #27, #3
  return (uint32_t)(READ_BIT(RCC->PLL4CFGR3, RCC_PLL4CFGR3_PLL4PDIV2) >> RCC_PLL4CFGR3_PLL4PDIV2_Pos);
34184592:	f8d3 30b8 	ldr.w	r3, [r3, #184]	@ 0xb8
34184596:	f3c3 6302 	ubfx	r3, r3, #24, #3
          plloutputfreq = RCCEx_CalcPLLFreq(pllinputfreq, divm, LL_RCC_PLL4_GetN(), LL_RCC_PLL4_GetFRACN(), \
3418459a:	9301      	str	r3, [sp, #4]
3418459c:	9200      	str	r2, [sp, #0]
3418459e:	f025 437f 	bic.w	r3, r5, #4278190080	@ 0xff000000
341845a2:	f3c4 220b 	ubfx	r2, r4, #8, #12
341845a6:	f7fe f923 	bl	341827f0 <RCCEx_CalcPLLFreq>
341845aa:	e7c8      	b.n	3418453e <HAL_RCCEx_GetPLL4CLKFreq+0x1a>
  uint32_t plloutputfreq = RCC_PERIPH_FREQUENCY_NO;
341845ac:	4608      	mov	r0, r1
  return plloutputfreq;
341845ae:	e7c6      	b.n	3418453e <HAL_RCCEx_GetPLL4CLKFreq+0x1a>
341845b0:	56028000 	.word	0x56028000

341845b4 <RCCEx_GetCSICLKFreq>:
  return ((READ_BIT(RCC->DIVENR, RCC_DIVENR_IC18EN) == RCC_DIVENR_IC18EN) ? 1UL : 0UL);
341845b4:	4b19      	ldr	r3, [pc, #100]	@ (3418461c <RCCEx_GetCSICLKFreq+0x68>)
341845b6:	f8d3 0240 	ldr.w	r0, [r3, #576]	@ 0x240
341845ba:	f410 3000 	ands.w	r0, r0, #131072	@ 0x20000
341845be:	d02c      	beq.n	3418461a <RCCEx_GetCSICLKFreq+0x66>
{
341845c0:	b510      	push	{r4, lr}
  return ((READ_BIT(RCC->IC18CFGR, RCC_IC18CFGR_IC18INT) >> RCC_IC18CFGR_IC18INT_Pos) + 1UL);
341845c2:	f8d3 0108 	ldr.w	r0, [r3, #264]	@ 0x108
341845c6:	f3c0 4007 	ubfx	r0, r0, #16, #8
341845ca:	1c44      	adds	r4, r0, #1
  return (uint32_t)(READ_BIT(RCC->IC18CFGR, RCC_IC18CFGR_IC18SEL));
341845cc:	f8d3 3108 	ldr.w	r3, [r3, #264]	@ 0x108
341845d0:	f003 5340 	and.w	r3, r3, #805306368	@ 0x30000000
    switch (LL_RCC_IC18_GetSource())
341845d4:	f1b3 5f00 	cmp.w	r3, #536870912	@ 0x20000000
341845d8:	d01a      	beq.n	34184610 <RCCEx_GetCSICLKFreq+0x5c>
341845da:	d80a      	bhi.n	341845f2 <RCCEx_GetCSICLKFreq+0x3e>
341845dc:	b19b      	cbz	r3, 34184606 <RCCEx_GetCSICLKFreq+0x52>
341845de:	f1b3 5f80 	cmp.w	r3, #268435456	@ 0x10000000
341845e2:	d104      	bne.n	341845ee <RCCEx_GetCSICLKFreq+0x3a>
        clkp_frequency = HAL_RCCEx_GetPLL2CLKFreq();
341845e4:	f7ff ff0e 	bl	34184404 <HAL_RCCEx_GetPLL2CLKFreq>
        clkp_frequency = clkp_frequency / ic_divider;
341845e8:	fbb0 f0f4 	udiv	r0, r0, r4
        break;
341845ec:	e00f      	b.n	3418460e <RCCEx_GetCSICLKFreq+0x5a>
    switch (LL_RCC_IC18_GetSource())
341845ee:	2000      	movs	r0, #0
341845f0:	e00d      	b.n	3418460e <RCCEx_GetCSICLKFreq+0x5a>
341845f2:	f1b3 5f40 	cmp.w	r3, #805306368	@ 0x30000000
341845f6:	d104      	bne.n	34184602 <RCCEx_GetCSICLKFreq+0x4e>
        clkp_frequency = HAL_RCCEx_GetPLL4CLKFreq();
341845f8:	f7ff ff94 	bl	34184524 <HAL_RCCEx_GetPLL4CLKFreq>
        clkp_frequency = clkp_frequency / ic_divider;
341845fc:	fbb0 f0f4 	udiv	r0, r0, r4
  return clkp_frequency;
34184600:	e005      	b.n	3418460e <RCCEx_GetCSICLKFreq+0x5a>
    switch (LL_RCC_IC18_GetSource())
34184602:	2000      	movs	r0, #0
34184604:	e003      	b.n	3418460e <RCCEx_GetCSICLKFreq+0x5a>
        clkp_frequency = HAL_RCCEx_GetPLL1CLKFreq();
34184606:	f7ff feb5 	bl	34184374 <HAL_RCCEx_GetPLL1CLKFreq>
        clkp_frequency = clkp_frequency / ic_divider;
3418460a:	fbb0 f0f4 	udiv	r0, r0, r4
}
3418460e:	bd10      	pop	{r4, pc}
        clkp_frequency = HAL_RCCEx_GetPLL3CLKFreq();
34184610:	f7ff ff40 	bl	34184494 <HAL_RCCEx_GetPLL3CLKFreq>
        clkp_frequency = clkp_frequency / ic_divider;
34184614:	fbb0 f0f4 	udiv	r0, r0, r4
        break;
34184618:	e7f9      	b.n	3418460e <RCCEx_GetCSICLKFreq+0x5a>
}
3418461a:	4770      	bx	lr
3418461c:	56028000 	.word	0x56028000

34184620 <RCCEx_GetCLKPCLKFreq>:
  * @rmtoll MISCENR       PEREN         LL_RCC_CLKP_IsEnabled
  * @retval State of bit (1 or 0).
  */
__STATIC_INLINE uint32_t LL_RCC_CLKP_IsEnabled(void)
{
  return ((READ_BIT(RCC->MISCENR, RCC_MISCENR_PEREN) == RCC_MISCENR_PEREN) ? 1UL : 0UL);
34184620:	4b96      	ldr	r3, [pc, #600]	@ (3418487c <RCCEx_GetCLKPCLKFreq+0x25c>)
34184622:	f8d3 0248 	ldr.w	r0, [r3, #584]	@ 0x248
34184626:	f010 0040 	ands.w	r0, r0, #64	@ 0x40
3418462a:	f000 8125 	beq.w	34184878 <RCCEx_GetCLKPCLKFreq+0x258>
{
3418462e:	b510      	push	{r4, lr}
  return (uint32_t)(READ_BIT(RCC->CCIPR7, RCC_CCIPR7_PERSEL));
34184630:	f8d3 315c 	ldr.w	r3, [r3, #348]	@ 0x15c
34184634:	f003 0307 	and.w	r3, r3, #7
    switch (LL_RCC_GetCLKPClockSource(CLKPxSource))
34184638:	2b07      	cmp	r3, #7
3418463a:	f200 811b 	bhi.w	34184874 <RCCEx_GetCLKPCLKFreq+0x254>
3418463e:	e8df f003 	tbb	[pc, r3]
34184642:	0f04      	.short	0x0f04
34184644:	4f1db316 	.word	0x4f1db316
34184648:	e681      	.short	0xe681
  return ((READ_BIT(RCC->SR, RCC_SR_HSIRDY) != 0UL) ? 1UL : 0UL);
3418464a:	4b8c      	ldr	r3, [pc, #560]	@ (3418487c <RCCEx_GetCLKPCLKFreq+0x25c>)
3418464c:	6858      	ldr	r0, [r3, #4]
3418464e:	f010 0008 	ands.w	r0, r0, #8
34184652:	d004      	beq.n	3418465e <RCCEx_GetCLKPCLKFreq+0x3e>
  return (READ_BIT(RCC->HSICFGR, RCC_HSICFGR_HSIDIV));
34184654:	6c9b      	ldr	r3, [r3, #72]	@ 0x48
          clkp_frequency = HSI_VALUE >> (LL_RCC_HSI_GetDivider() >> RCC_HSICFGR_HSIDIV_Pos);
34184656:	f3c3 13c1 	ubfx	r3, r3, #7, #2
3418465a:	4889      	ldr	r0, [pc, #548]	@ (34184880 <RCCEx_GetCLKPCLKFreq+0x260>)
3418465c:	40d8      	lsrs	r0, r3
}
3418465e:	bd10      	pop	{r4, pc}
  return ((READ_BIT(RCC->SR, RCC_SR_MSIRDY) != 0UL) ? 1UL : 0UL);
34184660:	4b86      	ldr	r3, [pc, #536]	@ (3418487c <RCCEx_GetCLKPCLKFreq+0x25c>)
34184662:	6858      	ldr	r0, [r3, #4]
34184664:	f010 0004 	ands.w	r0, r0, #4
34184668:	d0f9      	beq.n	3418465e <RCCEx_GetCLKPCLKFreq+0x3e>
          clkp_frequency = MSI_VALUE;
3418466a:	4886      	ldr	r0, [pc, #536]	@ (34184884 <RCCEx_GetCLKPCLKFreq+0x264>)
3418466c:	e7f7      	b.n	3418465e <RCCEx_GetCLKPCLKFreq+0x3e>
  return ((READ_BIT(RCC->SR, RCC_SR_HSERDY) != 0UL) ? 1UL : 0UL);
3418466e:	4b83      	ldr	r3, [pc, #524]	@ (3418487c <RCCEx_GetCLKPCLKFreq+0x25c>)
34184670:	6858      	ldr	r0, [r3, #4]
34184672:	f010 0010 	ands.w	r0, r0, #16
34184676:	d0f2      	beq.n	3418465e <RCCEx_GetCLKPCLKFreq+0x3e>
          clkp_frequency = HSE_VALUE;
34184678:	4883      	ldr	r0, [pc, #524]	@ (34184888 <RCCEx_GetCLKPCLKFreq+0x268>)
  return clkp_frequency;
3418467a:	e7f0      	b.n	3418465e <RCCEx_GetCLKPCLKFreq+0x3e>
  return ((READ_BIT(RCC->DIVENR, RCC_DIVENR_IC5EN) == RCC_DIVENR_IC5EN) ? 1UL : 0UL);
3418467c:	4b7f      	ldr	r3, [pc, #508]	@ (3418487c <RCCEx_GetCLKPCLKFreq+0x25c>)
3418467e:	f8d3 0240 	ldr.w	r0, [r3, #576]	@ 0x240
34184682:	f010 0010 	ands.w	r0, r0, #16
34184686:	d0ea      	beq.n	3418465e <RCCEx_GetCLKPCLKFreq+0x3e>
  return ((READ_BIT(RCC->IC5CFGR, RCC_IC5CFGR_IC5INT) >> RCC_IC5CFGR_IC5INT_Pos) + 1UL);
34184688:	f8d3 00d4 	ldr.w	r0, [r3, #212]	@ 0xd4
3418468c:	f3c0 4007 	ubfx	r0, r0, #16, #8
34184690:	1c44      	adds	r4, r0, #1
  return (uint32_t)(READ_BIT(RCC->IC5CFGR, RCC_IC5CFGR_IC5SEL));
34184692:	f8d3 30d4 	ldr.w	r3, [r3, #212]	@ 0xd4
34184696:	f003 5340 	and.w	r3, r3, #805306368	@ 0x30000000
          switch (LL_RCC_IC5_GetSource())
3418469a:	f1b3 5f00 	cmp.w	r3, #536870912	@ 0x20000000
3418469e:	d01a      	beq.n	341846d6 <RCCEx_GetCLKPCLKFreq+0xb6>
341846a0:	d80a      	bhi.n	341846b8 <RCCEx_GetCLKPCLKFreq+0x98>
341846a2:	b19b      	cbz	r3, 341846cc <RCCEx_GetCLKPCLKFreq+0xac>
341846a4:	f1b3 5f80 	cmp.w	r3, #268435456	@ 0x10000000
341846a8:	d104      	bne.n	341846b4 <RCCEx_GetCLKPCLKFreq+0x94>
              clkp_frequency = HAL_RCCEx_GetPLL2CLKFreq();
341846aa:	f7ff feab 	bl	34184404 <HAL_RCCEx_GetPLL2CLKFreq>
              clkp_frequency = clkp_frequency / ic_divider;
341846ae:	fbb0 f0f4 	udiv	r0, r0, r4
              break;
341846b2:	e7d4      	b.n	3418465e <RCCEx_GetCLKPCLKFreq+0x3e>
          switch (LL_RCC_IC5_GetSource())
341846b4:	2000      	movs	r0, #0
341846b6:	e7d2      	b.n	3418465e <RCCEx_GetCLKPCLKFreq+0x3e>
341846b8:	f1b3 5f40 	cmp.w	r3, #805306368	@ 0x30000000
341846bc:	d104      	bne.n	341846c8 <RCCEx_GetCLKPCLKFreq+0xa8>
              clkp_frequency = HAL_RCCEx_GetPLL4CLKFreq();
341846be:	f7ff ff31 	bl	34184524 <HAL_RCCEx_GetPLL4CLKFreq>
              clkp_frequency = clkp_frequency / ic_divider;
341846c2:	fbb0 f0f4 	udiv	r0, r0, r4
              break;
341846c6:	e7ca      	b.n	3418465e <RCCEx_GetCLKPCLKFreq+0x3e>
          switch (LL_RCC_IC5_GetSource())
341846c8:	2000      	movs	r0, #0
341846ca:	e7c8      	b.n	3418465e <RCCEx_GetCLKPCLKFreq+0x3e>
              clkp_frequency = HAL_RCCEx_GetPLL1CLKFreq();
341846cc:	f7ff fe52 	bl	34184374 <HAL_RCCEx_GetPLL1CLKFreq>
              clkp_frequency = clkp_frequency / ic_divider;
341846d0:	fbb0 f0f4 	udiv	r0, r0, r4
              break;
341846d4:	e7c3      	b.n	3418465e <RCCEx_GetCLKPCLKFreq+0x3e>
              clkp_frequency = HAL_RCCEx_GetPLL3CLKFreq();
341846d6:	f7ff fedd 	bl	34184494 <HAL_RCCEx_GetPLL3CLKFreq>
              clkp_frequency = clkp_frequency / ic_divider;
341846da:	fbb0 f0f4 	udiv	r0, r0, r4
              break;
341846de:	e7be      	b.n	3418465e <RCCEx_GetCLKPCLKFreq+0x3e>
  return ((READ_BIT(RCC->DIVENR, RCC_DIVENR_IC10EN) == RCC_DIVENR_IC10EN) ? 1UL : 0UL);
341846e0:	4b66      	ldr	r3, [pc, #408]	@ (3418487c <RCCEx_GetCLKPCLKFreq+0x25c>)
341846e2:	f8d3 0240 	ldr.w	r0, [r3, #576]	@ 0x240
341846e6:	f410 7000 	ands.w	r0, r0, #512	@ 0x200
341846ea:	d0b8      	beq.n	3418465e <RCCEx_GetCLKPCLKFreq+0x3e>
  return ((READ_BIT(RCC->IC10CFGR, RCC_IC10CFGR_IC10INT) >> RCC_IC10CFGR_IC10INT_Pos) + 1UL);
341846ec:	f8d3 00e8 	ldr.w	r0, [r3, #232]	@ 0xe8
341846f0:	f3c0 4007 	ubfx	r0, r0, #16, #8
341846f4:	1c44      	adds	r4, r0, #1
  return (uint32_t)(READ_BIT(RCC->IC10CFGR, RCC_IC10CFGR_IC10SEL));
341846f6:	f8d3 30e8 	ldr.w	r3, [r3, #232]	@ 0xe8
341846fa:	f003 5340 	and.w	r3, r3, #805306368	@ 0x30000000
          switch (LL_RCC_IC10_GetSource())
341846fe:	f1b3 5f00 	cmp.w	r3, #536870912	@ 0x20000000
34184702:	d01a      	beq.n	3418473a <RCCEx_GetCLKPCLKFreq+0x11a>
34184704:	d80a      	bhi.n	3418471c <RCCEx_GetCLKPCLKFreq+0xfc>
34184706:	b19b      	cbz	r3, 34184730 <RCCEx_GetCLKPCLKFreq+0x110>
34184708:	f1b3 5f80 	cmp.w	r3, #268435456	@ 0x10000000
3418470c:	d104      	bne.n	34184718 <RCCEx_GetCLKPCLKFreq+0xf8>
              clkp_frequency = HAL_RCCEx_GetPLL2CLKFreq();
3418470e:	f7ff fe79 	bl	34184404 <HAL_RCCEx_GetPLL2CLKFreq>
              clkp_frequency = clkp_frequency / ic_divider;
34184712:	fbb0 f0f4 	udiv	r0, r0, r4
              break;
34184716:	e7a2      	b.n	3418465e <RCCEx_GetCLKPCLKFreq+0x3e>
          switch (LL_RCC_IC10_GetSource())
34184718:	2000      	movs	r0, #0
3418471a:	e7a0      	b.n	3418465e <RCCEx_GetCLKPCLKFreq+0x3e>
3418471c:	f1b3 5f40 	cmp.w	r3, #805306368	@ 0x30000000
34184720:	d104      	bne.n	3418472c <RCCEx_GetCLKPCLKFreq+0x10c>
              clkp_frequency = HAL_RCCEx_GetPLL4CLKFreq();
34184722:	f7ff feff 	bl	34184524 <HAL_RCCEx_GetPLL4CLKFreq>
              clkp_frequency = clkp_frequency / ic_divider;
34184726:	fbb0 f0f4 	udiv	r0, r0, r4
              break;
3418472a:	e798      	b.n	3418465e <RCCEx_GetCLKPCLKFreq+0x3e>
          switch (LL_RCC_IC10_GetSource())
3418472c:	2000      	movs	r0, #0
3418472e:	e796      	b.n	3418465e <RCCEx_GetCLKPCLKFreq+0x3e>
              clkp_frequency = HAL_RCCEx_GetPLL1CLKFreq();
34184730:	f7ff fe20 	bl	34184374 <HAL_RCCEx_GetPLL1CLKFreq>
              clkp_frequency = clkp_frequency / ic_divider;
34184734:	fbb0 f0f4 	udiv	r0, r0, r4
              break;
34184738:	e791      	b.n	3418465e <RCCEx_GetCLKPCLKFreq+0x3e>
              clkp_frequency = HAL_RCCEx_GetPLL3CLKFreq();
3418473a:	f7ff feab 	bl	34184494 <HAL_RCCEx_GetPLL3CLKFreq>
              clkp_frequency = clkp_frequency / ic_divider;
3418473e:	fbb0 f0f4 	udiv	r0, r0, r4
              break;
34184742:	e78c      	b.n	3418465e <RCCEx_GetCLKPCLKFreq+0x3e>
  return ((READ_BIT(RCC->DIVENR, RCC_DIVENR_IC15EN) == RCC_DIVENR_IC15EN) ? 1UL : 0UL);
34184744:	4b4d      	ldr	r3, [pc, #308]	@ (3418487c <RCCEx_GetCLKPCLKFreq+0x25c>)
34184746:	f8d3 0240 	ldr.w	r0, [r3, #576]	@ 0x240
3418474a:	f410 4080 	ands.w	r0, r0, #16384	@ 0x4000
3418474e:	d086      	beq.n	3418465e <RCCEx_GetCLKPCLKFreq+0x3e>
  return ((READ_BIT(RCC->IC15CFGR, RCC_IC15CFGR_IC15INT) >> RCC_IC15CFGR_IC15INT_Pos) + 1UL);
34184750:	f8d3 00fc 	ldr.w	r0, [r3, #252]	@ 0xfc
34184754:	f3c0 4007 	ubfx	r0, r0, #16, #8
34184758:	1c44      	adds	r4, r0, #1
  return (uint32_t)(READ_BIT(RCC->IC15CFGR, RCC_IC15CFGR_IC15SEL));
3418475a:	f8d3 30fc 	ldr.w	r3, [r3, #252]	@ 0xfc
3418475e:	f003 5340 	and.w	r3, r3, #805306368	@ 0x30000000
          switch (LL_RCC_IC15_GetSource())
34184762:	f1b3 5f00 	cmp.w	r3, #536870912	@ 0x20000000
34184766:	d01a      	beq.n	3418479e <RCCEx_GetCLKPCLKFreq+0x17e>
34184768:	d80a      	bhi.n	34184780 <RCCEx_GetCLKPCLKFreq+0x160>
3418476a:	b19b      	cbz	r3, 34184794 <RCCEx_GetCLKPCLKFreq+0x174>
3418476c:	f1b3 5f80 	cmp.w	r3, #268435456	@ 0x10000000
34184770:	d104      	bne.n	3418477c <RCCEx_GetCLKPCLKFreq+0x15c>
              clkp_frequency = HAL_RCCEx_GetPLL2CLKFreq();
34184772:	f7ff fe47 	bl	34184404 <HAL_RCCEx_GetPLL2CLKFreq>
              clkp_frequency = clkp_frequency / ic_divider;
34184776:	fbb0 f0f4 	udiv	r0, r0, r4
              break;
3418477a:	e770      	b.n	3418465e <RCCEx_GetCLKPCLKFreq+0x3e>
          switch (LL_RCC_IC15_GetSource())
3418477c:	2000      	movs	r0, #0
3418477e:	e76e      	b.n	3418465e <RCCEx_GetCLKPCLKFreq+0x3e>
34184780:	f1b3 5f40 	cmp.w	r3, #805306368	@ 0x30000000
34184784:	d104      	bne.n	34184790 <RCCEx_GetCLKPCLKFreq+0x170>
              clkp_frequency = HAL_RCCEx_GetPLL4CLKFreq();
34184786:	f7ff fecd 	bl	34184524 <HAL_RCCEx_GetPLL4CLKFreq>
              clkp_frequency = clkp_frequency / ic_divider;
3418478a:	fbb0 f0f4 	udiv	r0, r0, r4
              break;
3418478e:	e766      	b.n	3418465e <RCCEx_GetCLKPCLKFreq+0x3e>
          switch (LL_RCC_IC15_GetSource())
34184790:	2000      	movs	r0, #0
34184792:	e764      	b.n	3418465e <RCCEx_GetCLKPCLKFreq+0x3e>
              clkp_frequency = HAL_RCCEx_GetPLL1CLKFreq();
34184794:	f7ff fdee 	bl	34184374 <HAL_RCCEx_GetPLL1CLKFreq>
              clkp_frequency = clkp_frequency / ic_divider;
34184798:	fbb0 f0f4 	udiv	r0, r0, r4
              break;
3418479c:	e75f      	b.n	3418465e <RCCEx_GetCLKPCLKFreq+0x3e>
              clkp_frequency = HAL_RCCEx_GetPLL3CLKFreq();
3418479e:	f7ff fe79 	bl	34184494 <HAL_RCCEx_GetPLL3CLKFreq>
              clkp_frequency = clkp_frequency / ic_divider;
341847a2:	fbb0 f0f4 	udiv	r0, r0, r4
              break;
341847a6:	e75a      	b.n	3418465e <RCCEx_GetCLKPCLKFreq+0x3e>
  return ((READ_BIT(RCC->DIVENR, RCC_DIVENR_IC19EN) == RCC_DIVENR_IC19EN) ? 1UL : 0UL);
341847a8:	4b34      	ldr	r3, [pc, #208]	@ (3418487c <RCCEx_GetCLKPCLKFreq+0x25c>)
341847aa:	f8d3 0240 	ldr.w	r0, [r3, #576]	@ 0x240
341847ae:	f410 2080 	ands.w	r0, r0, #262144	@ 0x40000
341847b2:	f43f af54 	beq.w	3418465e <RCCEx_GetCLKPCLKFreq+0x3e>
  return ((READ_BIT(RCC->IC19CFGR, RCC_IC19CFGR_IC19INT) >> RCC_IC19CFGR_IC19INT_Pos) + 1UL);
341847b6:	f8d3 010c 	ldr.w	r0, [r3, #268]	@ 0x10c
341847ba:	f3c0 4007 	ubfx	r0, r0, #16, #8
341847be:	1c44      	adds	r4, r0, #1
  return (uint32_t)(READ_BIT(RCC->IC19CFGR, RCC_IC19CFGR_IC19SEL));
341847c0:	f8d3 310c 	ldr.w	r3, [r3, #268]	@ 0x10c
341847c4:	f003 5340 	and.w	r3, r3, #805306368	@ 0x30000000
          switch (LL_RCC_IC19_GetSource())
341847c8:	f1b3 5f00 	cmp.w	r3, #536870912	@ 0x20000000
341847cc:	d01a      	beq.n	34184804 <RCCEx_GetCLKPCLKFreq+0x1e4>
341847ce:	d80a      	bhi.n	341847e6 <RCCEx_GetCLKPCLKFreq+0x1c6>
341847d0:	b19b      	cbz	r3, 341847fa <RCCEx_GetCLKPCLKFreq+0x1da>
341847d2:	f1b3 5f80 	cmp.w	r3, #268435456	@ 0x10000000
341847d6:	d104      	bne.n	341847e2 <RCCEx_GetCLKPCLKFreq+0x1c2>
              clkp_frequency = HAL_RCCEx_GetPLL2CLKFreq();
341847d8:	f7ff fe14 	bl	34184404 <HAL_RCCEx_GetPLL2CLKFreq>
              clkp_frequency = clkp_frequency / ic_divider;
341847dc:	fbb0 f0f4 	udiv	r0, r0, r4
              break;
341847e0:	e73d      	b.n	3418465e <RCCEx_GetCLKPCLKFreq+0x3e>
          switch (LL_RCC_IC19_GetSource())
341847e2:	2000      	movs	r0, #0
341847e4:	e73b      	b.n	3418465e <RCCEx_GetCLKPCLKFreq+0x3e>
341847e6:	f1b3 5f40 	cmp.w	r3, #805306368	@ 0x30000000
341847ea:	d104      	bne.n	341847f6 <RCCEx_GetCLKPCLKFreq+0x1d6>
              clkp_frequency = HAL_RCCEx_GetPLL4CLKFreq();
341847ec:	f7ff fe9a 	bl	34184524 <HAL_RCCEx_GetPLL4CLKFreq>
              clkp_frequency = clkp_frequency / ic_divider;
341847f0:	fbb0 f0f4 	udiv	r0, r0, r4
              break;
341847f4:	e733      	b.n	3418465e <RCCEx_GetCLKPCLKFreq+0x3e>
          switch (LL_RCC_IC19_GetSource())
341847f6:	2000      	movs	r0, #0
341847f8:	e731      	b.n	3418465e <RCCEx_GetCLKPCLKFreq+0x3e>
              clkp_frequency = HAL_RCCEx_GetPLL1CLKFreq();
341847fa:	f7ff fdbb 	bl	34184374 <HAL_RCCEx_GetPLL1CLKFreq>
              clkp_frequency = clkp_frequency / ic_divider;
341847fe:	fbb0 f0f4 	udiv	r0, r0, r4
              break;
34184802:	e72c      	b.n	3418465e <RCCEx_GetCLKPCLKFreq+0x3e>
              clkp_frequency = HAL_RCCEx_GetPLL3CLKFreq();
34184804:	f7ff fe46 	bl	34184494 <HAL_RCCEx_GetPLL3CLKFreq>
              clkp_frequency = clkp_frequency / ic_divider;
34184808:	fbb0 f0f4 	udiv	r0, r0, r4
              break;
3418480c:	e727      	b.n	3418465e <RCCEx_GetCLKPCLKFreq+0x3e>
  return ((READ_BIT(RCC->DIVENR, RCC_DIVENR_IC20EN) == RCC_DIVENR_IC20EN) ? 1UL : 0UL);
3418480e:	4b1b      	ldr	r3, [pc, #108]	@ (3418487c <RCCEx_GetCLKPCLKFreq+0x25c>)
34184810:	f8d3 0240 	ldr.w	r0, [r3, #576]	@ 0x240
34184814:	f410 2000 	ands.w	r0, r0, #524288	@ 0x80000
34184818:	f43f af21 	beq.w	3418465e <RCCEx_GetCLKPCLKFreq+0x3e>
  return ((READ_BIT(RCC->IC20CFGR, RCC_IC20CFGR_IC20INT) >> RCC_IC20CFGR_IC20INT_Pos) + 1UL);
3418481c:	f8d3 0110 	ldr.w	r0, [r3, #272]	@ 0x110
34184820:	f3c0 4007 	ubfx	r0, r0, #16, #8
34184824:	1c44      	adds	r4, r0, #1
  return (uint32_t)(READ_BIT(RCC->IC20CFGR, RCC_IC20CFGR_IC20SEL));
34184826:	f8d3 3110 	ldr.w	r3, [r3, #272]	@ 0x110
3418482a:	f003 5340 	and.w	r3, r3, #805306368	@ 0x30000000
          switch (LL_RCC_IC20_GetSource())
3418482e:	f1b3 5f00 	cmp.w	r3, #536870912	@ 0x20000000
34184832:	d01a      	beq.n	3418486a <RCCEx_GetCLKPCLKFreq+0x24a>
34184834:	d80a      	bhi.n	3418484c <RCCEx_GetCLKPCLKFreq+0x22c>
34184836:	b19b      	cbz	r3, 34184860 <RCCEx_GetCLKPCLKFreq+0x240>
34184838:	f1b3 5f80 	cmp.w	r3, #268435456	@ 0x10000000
3418483c:	d104      	bne.n	34184848 <RCCEx_GetCLKPCLKFreq+0x228>
              clkp_frequency = HAL_RCCEx_GetPLL2CLKFreq();
3418483e:	f7ff fde1 	bl	34184404 <HAL_RCCEx_GetPLL2CLKFreq>
              clkp_frequency = clkp_frequency / ic_divider;
34184842:	fbb0 f0f4 	udiv	r0, r0, r4
              break;
34184846:	e70a      	b.n	3418465e <RCCEx_GetCLKPCLKFreq+0x3e>
          switch (LL_RCC_IC20_GetSource())
34184848:	2000      	movs	r0, #0
3418484a:	e708      	b.n	3418465e <RCCEx_GetCLKPCLKFreq+0x3e>
3418484c:	f1b3 5f40 	cmp.w	r3, #805306368	@ 0x30000000
34184850:	d104      	bne.n	3418485c <RCCEx_GetCLKPCLKFreq+0x23c>
              clkp_frequency = HAL_RCCEx_GetPLL4CLKFreq();
34184852:	f7ff fe67 	bl	34184524 <HAL_RCCEx_GetPLL4CLKFreq>
              clkp_frequency = clkp_frequency / ic_divider;
34184856:	fbb0 f0f4 	udiv	r0, r0, r4
              break;
3418485a:	e700      	b.n	3418465e <RCCEx_GetCLKPCLKFreq+0x3e>
          switch (LL_RCC_IC20_GetSource())
3418485c:	2000      	movs	r0, #0
3418485e:	e6fe      	b.n	3418465e <RCCEx_GetCLKPCLKFreq+0x3e>
              clkp_frequency = HAL_RCCEx_GetPLL1CLKFreq();
34184860:	f7ff fd88 	bl	34184374 <HAL_RCCEx_GetPLL1CLKFreq>
              clkp_frequency = clkp_frequency / ic_divider;
34184864:	fbb0 f0f4 	udiv	r0, r0, r4
              break;
34184868:	e6f9      	b.n	3418465e <RCCEx_GetCLKPCLKFreq+0x3e>
              clkp_frequency = HAL_RCCEx_GetPLL3CLKFreq();
3418486a:	f7ff fe13 	bl	34184494 <HAL_RCCEx_GetPLL3CLKFreq>
              clkp_frequency = clkp_frequency / ic_divider;
3418486e:	fbb0 f0f4 	udiv	r0, r0, r4
              break;
34184872:	e6f4      	b.n	3418465e <RCCEx_GetCLKPCLKFreq+0x3e>
    switch (LL_RCC_GetCLKPClockSource(CLKPxSource))
34184874:	2000      	movs	r0, #0
34184876:	e6f2      	b.n	3418465e <RCCEx_GetCLKPCLKFreq+0x3e>
}
34184878:	4770      	bx	lr
3418487a:	bf00      	nop
3418487c:	56028000 	.word	0x56028000
34184880:	03d09000 	.word	0x03d09000
34184884:	003d0900 	.word	0x003d0900
34184888:	02dc6c00 	.word	0x02dc6c00

3418488c <RCCEx_GetADCCLKFreq>:
{
3418488c:	b510      	push	{r4, lr}
  return (uint32_t)(READ_BIT(RCC->CCIPR1, RCC_CCIPR1_ADC12SEL));
3418488e:	4b58      	ldr	r3, [pc, #352]	@ (341849f0 <RCCEx_GetADCCLKFreq+0x164>)
34184890:	f8d3 3144 	ldr.w	r3, [r3, #324]	@ 0x144
34184894:	f003 0370 	and.w	r3, r3, #112	@ 0x70
  switch (LL_RCC_GetADCClockSource(ADCxSource))
34184898:	2b40      	cmp	r3, #64	@ 0x40
3418489a:	f000 8097 	beq.w	341849cc <RCCEx_GetADCCLKFreq+0x140>
3418489e:	d82d      	bhi.n	341848fc <RCCEx_GetADCCLKFreq+0x70>
341848a0:	2b20      	cmp	r3, #32
341848a2:	d04b      	beq.n	3418493c <RCCEx_GetADCCLKFreq+0xb0>
341848a4:	d809      	bhi.n	341848ba <RCCEx_GetADCCLKFreq+0x2e>
341848a6:	2b00      	cmp	r3, #0
341848a8:	d03b      	beq.n	34184922 <RCCEx_GetADCCLKFreq+0x96>
341848aa:	2b10      	cmp	r3, #16
341848ac:	d103      	bne.n	341848b6 <RCCEx_GetADCCLKFreq+0x2a>
      adc_frequency = RCCEx_GetCLKPCLKFreq(LL_RCC_CLKP_CLKSOURCE);
341848ae:	2007      	movs	r0, #7
341848b0:	f7ff feb6 	bl	34184620 <RCCEx_GetCLKPCLKFreq>
      break;
341848b4:	e039      	b.n	3418492a <RCCEx_GetADCCLKFreq+0x9e>
  switch (LL_RCC_GetADCClockSource(ADCxSource))
341848b6:	2000      	movs	r0, #0
341848b8:	e037      	b.n	3418492a <RCCEx_GetADCCLKFreq+0x9e>
341848ba:	2b30      	cmp	r3, #48	@ 0x30
341848bc:	d11c      	bne.n	341848f8 <RCCEx_GetADCCLKFreq+0x6c>
  return ((READ_BIT(RCC->DIVENR, RCC_DIVENR_IC8EN) == RCC_DIVENR_IC8EN) ? 1UL : 0UL);
341848be:	4b4c      	ldr	r3, [pc, #304]	@ (341849f0 <RCCEx_GetADCCLKFreq+0x164>)
341848c0:	f8d3 0240 	ldr.w	r0, [r3, #576]	@ 0x240
341848c4:	f010 0080 	ands.w	r0, r0, #128	@ 0x80
341848c8:	d02f      	beq.n	3418492a <RCCEx_GetADCCLKFreq+0x9e>
  return ((READ_BIT(RCC->IC8CFGR, RCC_IC8CFGR_IC8INT) >> RCC_IC8CFGR_IC8INT_Pos) + 1UL);
341848ca:	f8d3 00e0 	ldr.w	r0, [r3, #224]	@ 0xe0
341848ce:	f3c0 4007 	ubfx	r0, r0, #16, #8
341848d2:	1c44      	adds	r4, r0, #1
  return (uint32_t)(READ_BIT(RCC->IC8CFGR, RCC_IC8CFGR_IC8SEL));
341848d4:	f8d3 30e0 	ldr.w	r3, [r3, #224]	@ 0xe0
341848d8:	f003 5340 	and.w	r3, r3, #805306368	@ 0x30000000
        switch (LL_RCC_IC8_GetSource())
341848dc:	f1b3 5f00 	cmp.w	r3, #536870912	@ 0x20000000
341848e0:	d06f      	beq.n	341849c2 <RCCEx_GetADCCLKFreq+0x136>
341848e2:	d85f      	bhi.n	341849a4 <RCCEx_GetADCCLKFreq+0x118>
341848e4:	2b00      	cmp	r3, #0
341848e6:	d067      	beq.n	341849b8 <RCCEx_GetADCCLKFreq+0x12c>
341848e8:	f1b3 5f80 	cmp.w	r3, #268435456	@ 0x10000000
341848ec:	d158      	bne.n	341849a0 <RCCEx_GetADCCLKFreq+0x114>
            adc_frequency = HAL_RCCEx_GetPLL2CLKFreq();
341848ee:	f7ff fd89 	bl	34184404 <HAL_RCCEx_GetPLL2CLKFreq>
            adc_frequency = adc_frequency / ic_divider;
341848f2:	fbb0 f0f4 	udiv	r0, r0, r4
            break;
341848f6:	e018      	b.n	3418492a <RCCEx_GetADCCLKFreq+0x9e>
  switch (LL_RCC_GetADCClockSource(ADCxSource))
341848f8:	2000      	movs	r0, #0
341848fa:	e016      	b.n	3418492a <RCCEx_GetADCCLKFreq+0x9e>
341848fc:	2b60      	cmp	r3, #96	@ 0x60
341848fe:	d074      	beq.n	341849ea <RCCEx_GetADCCLKFreq+0x15e>
34184900:	2b70      	cmp	r3, #112	@ 0x70
34184902:	d06a      	beq.n	341849da <RCCEx_GetADCCLKFreq+0x14e>
34184904:	2b50      	cmp	r3, #80	@ 0x50
34184906:	d10a      	bne.n	3418491e <RCCEx_GetADCCLKFreq+0x92>
  return ((READ_BIT(RCC->SR, RCC_SR_HSIRDY) != 0UL) ? 1UL : 0UL);
34184908:	4b39      	ldr	r3, [pc, #228]	@ (341849f0 <RCCEx_GetADCCLKFreq+0x164>)
3418490a:	6858      	ldr	r0, [r3, #4]
3418490c:	f010 0008 	ands.w	r0, r0, #8
34184910:	d00b      	beq.n	3418492a <RCCEx_GetADCCLKFreq+0x9e>
  return (READ_BIT(RCC->HSICFGR, RCC_HSICFGR_HSIDIV));
34184912:	6c9b      	ldr	r3, [r3, #72]	@ 0x48
        adc_frequency = HSI_VALUE >> (LL_RCC_HSI_GetDivider() >> RCC_HSICFGR_HSIDIV_Pos);
34184914:	f3c3 13c1 	ubfx	r3, r3, #7, #2
34184918:	4836      	ldr	r0, [pc, #216]	@ (341849f4 <RCCEx_GetADCCLKFreq+0x168>)
3418491a:	40d8      	lsrs	r0, r3
3418491c:	e005      	b.n	3418492a <RCCEx_GetADCCLKFreq+0x9e>
  switch (LL_RCC_GetADCClockSource(ADCxSource))
3418491e:	2000      	movs	r0, #0
34184920:	e003      	b.n	3418492a <RCCEx_GetADCCLKFreq+0x9e>
      adc_frequency = RCCEx_GetHCLKFreq(HAL_RCC_GetSysClockFreq());
34184922:	f7fd fe87 	bl	34182634 <HAL_RCC_GetSysClockFreq>
34184926:	f7fd fefd 	bl	34182724 <RCCEx_GetHCLKFreq>
  return (uint32_t)(READ_BIT(RCC->CCIPR1, RCC_CCIPR1_ADCPRE) >> RCC_CCIPR1_ADCPRE_Pos);
3418492a:	4b31      	ldr	r3, [pc, #196]	@ (341849f0 <RCCEx_GetADCCLKFreq+0x164>)
3418492c:	f8d3 3144 	ldr.w	r3, [r3, #324]	@ 0x144
34184930:	f3c3 2307 	ubfx	r3, r3, #8, #8
  return (adc_frequency / __HAL_RCC_GET_ADC_DIVIDER());
34184934:	3301      	adds	r3, #1
}
34184936:	fbb0 f0f3 	udiv	r0, r0, r3
3418493a:	bd10      	pop	{r4, pc}
  return ((READ_BIT(RCC->DIVENR, RCC_DIVENR_IC7EN) == RCC_DIVENR_IC7EN) ? 1UL : 0UL);
3418493c:	4b2c      	ldr	r3, [pc, #176]	@ (341849f0 <RCCEx_GetADCCLKFreq+0x164>)
3418493e:	f8d3 0240 	ldr.w	r0, [r3, #576]	@ 0x240
34184942:	f010 0040 	ands.w	r0, r0, #64	@ 0x40
34184946:	d0f0      	beq.n	3418492a <RCCEx_GetADCCLKFreq+0x9e>
  return ((READ_BIT(RCC->IC7CFGR, RCC_IC7CFGR_IC7INT) >> RCC_IC7CFGR_IC7INT_Pos) + 1UL);
34184948:	f8d3 00dc 	ldr.w	r0, [r3, #220]	@ 0xdc
3418494c:	f3c0 4007 	ubfx	r0, r0, #16, #8
34184950:	1c44      	adds	r4, r0, #1
  return (uint32_t)(READ_BIT(RCC->IC7CFGR, RCC_IC7CFGR_IC7SEL));
34184952:	f8d3 30dc 	ldr.w	r3, [r3, #220]	@ 0xdc
34184956:	f003 5340 	and.w	r3, r3, #805306368	@ 0x30000000
        switch (LL_RCC_IC7_GetSource())
3418495a:	f1b3 5f00 	cmp.w	r3, #536870912	@ 0x20000000
3418495e:	d01a      	beq.n	34184996 <RCCEx_GetADCCLKFreq+0x10a>
34184960:	d80a      	bhi.n	34184978 <RCCEx_GetADCCLKFreq+0xec>
34184962:	b19b      	cbz	r3, 3418498c <RCCEx_GetADCCLKFreq+0x100>
34184964:	f1b3 5f80 	cmp.w	r3, #268435456	@ 0x10000000
34184968:	d104      	bne.n	34184974 <RCCEx_GetADCCLKFreq+0xe8>
            adc_frequency = HAL_RCCEx_GetPLL2CLKFreq();
3418496a:	f7ff fd4b 	bl	34184404 <HAL_RCCEx_GetPLL2CLKFreq>
            adc_frequency = adc_frequency / ic_divider;
3418496e:	fbb0 f0f4 	udiv	r0, r0, r4
            break;
34184972:	e7da      	b.n	3418492a <RCCEx_GetADCCLKFreq+0x9e>
        switch (LL_RCC_IC7_GetSource())
34184974:	2000      	movs	r0, #0
34184976:	e7d8      	b.n	3418492a <RCCEx_GetADCCLKFreq+0x9e>
34184978:	f1b3 5f40 	cmp.w	r3, #805306368	@ 0x30000000
3418497c:	d104      	bne.n	34184988 <RCCEx_GetADCCLKFreq+0xfc>
            adc_frequency = HAL_RCCEx_GetPLL4CLKFreq();
3418497e:	f7ff fdd1 	bl	34184524 <HAL_RCCEx_GetPLL4CLKFreq>
            adc_frequency = adc_frequency / ic_divider;
34184982:	fbb0 f0f4 	udiv	r0, r0, r4
            break;
34184986:	e7d0      	b.n	3418492a <RCCEx_GetADCCLKFreq+0x9e>
        switch (LL_RCC_IC7_GetSource())
34184988:	2000      	movs	r0, #0
3418498a:	e7ce      	b.n	3418492a <RCCEx_GetADCCLKFreq+0x9e>
            adc_frequency = HAL_RCCEx_GetPLL1CLKFreq();
3418498c:	f7ff fcf2 	bl	34184374 <HAL_RCCEx_GetPLL1CLKFreq>
            adc_frequency = adc_frequency / ic_divider;
34184990:	fbb0 f0f4 	udiv	r0, r0, r4
            break;
34184994:	e7c9      	b.n	3418492a <RCCEx_GetADCCLKFreq+0x9e>
            adc_frequency = HAL_RCCEx_GetPLL3CLKFreq();
34184996:	f7ff fd7d 	bl	34184494 <HAL_RCCEx_GetPLL3CLKFreq>
            adc_frequency = adc_frequency / ic_divider;
3418499a:	fbb0 f0f4 	udiv	r0, r0, r4
            break;
3418499e:	e7c4      	b.n	3418492a <RCCEx_GetADCCLKFreq+0x9e>
        switch (LL_RCC_IC8_GetSource())
341849a0:	2000      	movs	r0, #0
341849a2:	e7c2      	b.n	3418492a <RCCEx_GetADCCLKFreq+0x9e>
341849a4:	f1b3 5f40 	cmp.w	r3, #805306368	@ 0x30000000
341849a8:	d104      	bne.n	341849b4 <RCCEx_GetADCCLKFreq+0x128>
            adc_frequency = HAL_RCCEx_GetPLL4CLKFreq();
341849aa:	f7ff fdbb 	bl	34184524 <HAL_RCCEx_GetPLL4CLKFreq>
            adc_frequency = adc_frequency / ic_divider;
341849ae:	fbb0 f0f4 	udiv	r0, r0, r4
            break;
341849b2:	e7ba      	b.n	3418492a <RCCEx_GetADCCLKFreq+0x9e>
        switch (LL_RCC_IC8_GetSource())
341849b4:	2000      	movs	r0, #0
341849b6:	e7b8      	b.n	3418492a <RCCEx_GetADCCLKFreq+0x9e>
            adc_frequency = HAL_RCCEx_GetPLL1CLKFreq();
341849b8:	f7ff fcdc 	bl	34184374 <HAL_RCCEx_GetPLL1CLKFreq>
            adc_frequency = adc_frequency / ic_divider;
341849bc:	fbb0 f0f4 	udiv	r0, r0, r4
            break;
341849c0:	e7b3      	b.n	3418492a <RCCEx_GetADCCLKFreq+0x9e>
            adc_frequency = HAL_RCCEx_GetPLL3CLKFreq();
341849c2:	f7ff fd67 	bl	34184494 <HAL_RCCEx_GetPLL3CLKFreq>
            adc_frequency = adc_frequency / ic_divider;
341849c6:	fbb0 f0f4 	udiv	r0, r0, r4
            break;
341849ca:	e7ae      	b.n	3418492a <RCCEx_GetADCCLKFreq+0x9e>
  return ((READ_BIT(RCC->SR, RCC_SR_MSIRDY) != 0UL) ? 1UL : 0UL);
341849cc:	4b08      	ldr	r3, [pc, #32]	@ (341849f0 <RCCEx_GetADCCLKFreq+0x164>)
341849ce:	6858      	ldr	r0, [r3, #4]
341849d0:	f010 0004 	ands.w	r0, r0, #4
341849d4:	d0a9      	beq.n	3418492a <RCCEx_GetADCCLKFreq+0x9e>
        adc_frequency = MSI_VALUE;
341849d6:	4808      	ldr	r0, [pc, #32]	@ (341849f8 <RCCEx_GetADCCLKFreq+0x16c>)
341849d8:	e7a7      	b.n	3418492a <RCCEx_GetADCCLKFreq+0x9e>
      adc_frequency = LL_RCC_CALC_TIMG_FREQ(HAL_RCC_GetSysClockFreq(), LL_RCC_GetTIMPrescaler());
341849da:	f7fd fe2b 	bl	34182634 <HAL_RCC_GetSysClockFreq>
  return (uint32_t)(READ_BIT(RCC->CFGR2, RCC_CFGR2_TIMPRE) >> RCC_CFGR2_TIMPRE_Pos);
341849de:	4b04      	ldr	r3, [pc, #16]	@ (341849f0 <RCCEx_GetADCCLKFreq+0x164>)
341849e0:	6a5b      	ldr	r3, [r3, #36]	@ 0x24
341849e2:	f3c3 6301 	ubfx	r3, r3, #24, #2
341849e6:	40d8      	lsrs	r0, r3
      break;
341849e8:	e79f      	b.n	3418492a <RCCEx_GetADCCLKFreq+0x9e>
      adc_frequency = EXTERNAL_CLOCK_VALUE;
341849ea:	4804      	ldr	r0, [pc, #16]	@ (341849fc <RCCEx_GetADCCLKFreq+0x170>)
341849ec:	e79d      	b.n	3418492a <RCCEx_GetADCCLKFreq+0x9e>
341849ee:	bf00      	nop
341849f0:	56028000 	.word	0x56028000
341849f4:	03d09000 	.word	0x03d09000
341849f8:	003d0900 	.word	0x003d0900
341849fc:	00bb8000 	.word	0x00bb8000

34184a00 <RCCEx_GetADFCLKFreq>:
{
34184a00:	b510      	push	{r4, lr}
  return (uint32_t)(READ_BIT(RCC->CCIPR1, RCC_CCIPR1_ADF1SEL));
34184a02:	4b4c      	ldr	r3, [pc, #304]	@ (34184b34 <RCCEx_GetADFCLKFreq+0x134>)
34184a04:	f8d3 3144 	ldr.w	r3, [r3, #324]	@ 0x144
34184a08:	f003 0307 	and.w	r3, r3, #7
  switch (LL_RCC_GetADFClockSource(ADFxSource))
34184a0c:	2b07      	cmp	r3, #7
34184a0e:	d805      	bhi.n	34184a1c <RCCEx_GetADFCLKFreq+0x1c>
34184a10:	e8df f003 	tbb	[pc, r3]
34184a14:	410f0b06 	.word	0x410f0b06
34184a18:	858d737e 	.word	0x858d737e
34184a1c:	2000      	movs	r0, #0
34184a1e:	e087      	b.n	34184b30 <RCCEx_GetADFCLKFreq+0x130>
      adf_frequency = RCCEx_GetHCLKFreq(HAL_RCC_GetSysClockFreq());
34184a20:	f7fd fe08 	bl	34182634 <HAL_RCC_GetSysClockFreq>
34184a24:	f7fd fe7e 	bl	34182724 <RCCEx_GetHCLKFreq>
      break;
34184a28:	e082      	b.n	34184b30 <RCCEx_GetADFCLKFreq+0x130>
      adf_frequency = RCCEx_GetCLKPCLKFreq(LL_RCC_CLKP_CLKSOURCE);
34184a2a:	2007      	movs	r0, #7
34184a2c:	f7ff fdf8 	bl	34184620 <RCCEx_GetCLKPCLKFreq>
      break;
34184a30:	e07e      	b.n	34184b30 <RCCEx_GetADFCLKFreq+0x130>
  return ((READ_BIT(RCC->DIVENR, RCC_DIVENR_IC7EN) == RCC_DIVENR_IC7EN) ? 1UL : 0UL);
34184a32:	4b40      	ldr	r3, [pc, #256]	@ (34184b34 <RCCEx_GetADFCLKFreq+0x134>)
34184a34:	f8d3 0240 	ldr.w	r0, [r3, #576]	@ 0x240
34184a38:	f010 0040 	ands.w	r0, r0, #64	@ 0x40
34184a3c:	d078      	beq.n	34184b30 <RCCEx_GetADFCLKFreq+0x130>
  return ((READ_BIT(RCC->IC7CFGR, RCC_IC7CFGR_IC7INT) >> RCC_IC7CFGR_IC7INT_Pos) + 1UL);
34184a3e:	f8d3 00dc 	ldr.w	r0, [r3, #220]	@ 0xdc
34184a42:	f3c0 4007 	ubfx	r0, r0, #16, #8
34184a46:	1c44      	adds	r4, r0, #1
  return (uint32_t)(READ_BIT(RCC->IC7CFGR, RCC_IC7CFGR_IC7SEL));
34184a48:	f8d3 30dc 	ldr.w	r3, [r3, #220]	@ 0xdc
34184a4c:	f003 5340 	and.w	r3, r3, #805306368	@ 0x30000000
        switch (LL_RCC_IC7_GetSource())
34184a50:	f1b3 5f00 	cmp.w	r3, #536870912	@ 0x20000000
34184a54:	d01a      	beq.n	34184a8c <RCCEx_GetADFCLKFreq+0x8c>
34184a56:	d80a      	bhi.n	34184a6e <RCCEx_GetADFCLKFreq+0x6e>
34184a58:	b19b      	cbz	r3, 34184a82 <RCCEx_GetADFCLKFreq+0x82>
34184a5a:	f1b3 5f80 	cmp.w	r3, #268435456	@ 0x10000000
34184a5e:	d104      	bne.n	34184a6a <RCCEx_GetADFCLKFreq+0x6a>
            adf_frequency = HAL_RCCEx_GetPLL2CLKFreq();
34184a60:	f7ff fcd0 	bl	34184404 <HAL_RCCEx_GetPLL2CLKFreq>
            adf_frequency = adf_frequency / ic_divider;
34184a64:	fbb0 f0f4 	udiv	r0, r0, r4
            break;
34184a68:	e062      	b.n	34184b30 <RCCEx_GetADFCLKFreq+0x130>
        switch (LL_RCC_IC7_GetSource())
34184a6a:	2000      	movs	r0, #0
34184a6c:	e060      	b.n	34184b30 <RCCEx_GetADFCLKFreq+0x130>
34184a6e:	f1b3 5f40 	cmp.w	r3, #805306368	@ 0x30000000
34184a72:	d104      	bne.n	34184a7e <RCCEx_GetADFCLKFreq+0x7e>
            adf_frequency = HAL_RCCEx_GetPLL4CLKFreq();
34184a74:	f7ff fd56 	bl	34184524 <HAL_RCCEx_GetPLL4CLKFreq>
            adf_frequency = adf_frequency / ic_divider;
34184a78:	fbb0 f0f4 	udiv	r0, r0, r4
            break;
34184a7c:	e058      	b.n	34184b30 <RCCEx_GetADFCLKFreq+0x130>
        switch (LL_RCC_IC7_GetSource())
34184a7e:	2000      	movs	r0, #0
34184a80:	e056      	b.n	34184b30 <RCCEx_GetADFCLKFreq+0x130>
            adf_frequency = HAL_RCCEx_GetPLL1CLKFreq();
34184a82:	f7ff fc77 	bl	34184374 <HAL_RCCEx_GetPLL1CLKFreq>
            adf_frequency = adf_frequency / ic_divider;
34184a86:	fbb0 f0f4 	udiv	r0, r0, r4
            break;
34184a8a:	e051      	b.n	34184b30 <RCCEx_GetADFCLKFreq+0x130>
            adf_frequency = HAL_RCCEx_GetPLL3CLKFreq();
34184a8c:	f7ff fd02 	bl	34184494 <HAL_RCCEx_GetPLL3CLKFreq>
            adf_frequency = adf_frequency / ic_divider;
34184a90:	fbb0 f0f4 	udiv	r0, r0, r4
            break;
34184a94:	e04c      	b.n	34184b30 <RCCEx_GetADFCLKFreq+0x130>
  return ((READ_BIT(RCC->DIVENR, RCC_DIVENR_IC8EN) == RCC_DIVENR_IC8EN) ? 1UL : 0UL);
34184a96:	4b27      	ldr	r3, [pc, #156]	@ (34184b34 <RCCEx_GetADFCLKFreq+0x134>)
34184a98:	f8d3 0240 	ldr.w	r0, [r3, #576]	@ 0x240
34184a9c:	f010 0080 	ands.w	r0, r0, #128	@ 0x80
34184aa0:	d046      	beq.n	34184b30 <RCCEx_GetADFCLKFreq+0x130>
  return ((READ_BIT(RCC->IC8CFGR, RCC_IC8CFGR_IC8INT) >> RCC_IC8CFGR_IC8INT_Pos) + 1UL);
34184aa2:	f8d3 00e0 	ldr.w	r0, [r3, #224]	@ 0xe0
34184aa6:	f3c0 4007 	ubfx	r0, r0, #16, #8
34184aaa:	1c44      	adds	r4, r0, #1
  return (uint32_t)(READ_BIT(RCC->IC8CFGR, RCC_IC8CFGR_IC8SEL));
34184aac:	f8d3 30e0 	ldr.w	r3, [r3, #224]	@ 0xe0
34184ab0:	f003 5340 	and.w	r3, r3, #805306368	@ 0x30000000
        switch (LL_RCC_IC8_GetSource())
34184ab4:	f1b3 5f00 	cmp.w	r3, #536870912	@ 0x20000000
34184ab8:	d01a      	beq.n	34184af0 <RCCEx_GetADFCLKFreq+0xf0>
34184aba:	d80a      	bhi.n	34184ad2 <RCCEx_GetADFCLKFreq+0xd2>
34184abc:	b19b      	cbz	r3, 34184ae6 <RCCEx_GetADFCLKFreq+0xe6>
34184abe:	f1b3 5f80 	cmp.w	r3, #268435456	@ 0x10000000
34184ac2:	d104      	bne.n	34184ace <RCCEx_GetADFCLKFreq+0xce>
            adf_frequency = HAL_RCCEx_GetPLL2CLKFreq();
34184ac4:	f7ff fc9e 	bl	34184404 <HAL_RCCEx_GetPLL2CLKFreq>
            adf_frequency = adf_frequency / ic_divider;
34184ac8:	fbb0 f0f4 	udiv	r0, r0, r4
            break;
34184acc:	e030      	b.n	34184b30 <RCCEx_GetADFCLKFreq+0x130>
        switch (LL_RCC_IC8_GetSource())
34184ace:	2000      	movs	r0, #0
34184ad0:	e02e      	b.n	34184b30 <RCCEx_GetADFCLKFreq+0x130>
34184ad2:	f1b3 5f40 	cmp.w	r3, #805306368	@ 0x30000000
34184ad6:	d104      	bne.n	34184ae2 <RCCEx_GetADFCLKFreq+0xe2>
            adf_frequency = HAL_RCCEx_GetPLL4CLKFreq();
34184ad8:	f7ff fd24 	bl	34184524 <HAL_RCCEx_GetPLL4CLKFreq>
            adf_frequency = adf_frequency / ic_divider;
34184adc:	fbb0 f0f4 	udiv	r0, r0, r4
            break;
34184ae0:	e026      	b.n	34184b30 <RCCEx_GetADFCLKFreq+0x130>
        switch (LL_RCC_IC8_GetSource())
34184ae2:	2000      	movs	r0, #0
34184ae4:	e024      	b.n	34184b30 <RCCEx_GetADFCLKFreq+0x130>
            adf_frequency = HAL_RCCEx_GetPLL1CLKFreq();
34184ae6:	f7ff fc45 	bl	34184374 <HAL_RCCEx_GetPLL1CLKFreq>
            adf_frequency = adf_frequency / ic_divider;
34184aea:	fbb0 f0f4 	udiv	r0, r0, r4
            break;
34184aee:	e01f      	b.n	34184b30 <RCCEx_GetADFCLKFreq+0x130>
            adf_frequency = HAL_RCCEx_GetPLL3CLKFreq();
34184af0:	f7ff fcd0 	bl	34184494 <HAL_RCCEx_GetPLL3CLKFreq>
            adf_frequency = adf_frequency / ic_divider;
34184af4:	fbb0 f0f4 	udiv	r0, r0, r4
            break;
34184af8:	e01a      	b.n	34184b30 <RCCEx_GetADFCLKFreq+0x130>
  return ((READ_BIT(RCC->SR, RCC_SR_HSIRDY) != 0UL) ? 1UL : 0UL);
34184afa:	4b0e      	ldr	r3, [pc, #56]	@ (34184b34 <RCCEx_GetADFCLKFreq+0x134>)
34184afc:	6858      	ldr	r0, [r3, #4]
34184afe:	f010 0008 	ands.w	r0, r0, #8
34184b02:	d015      	beq.n	34184b30 <RCCEx_GetADFCLKFreq+0x130>
  return (READ_BIT(RCC->HSICFGR, RCC_HSICFGR_HSIDIV));
34184b04:	6c9b      	ldr	r3, [r3, #72]	@ 0x48
        adf_frequency = HSI_VALUE >> (LL_RCC_HSI_GetDivider() >> RCC_HSICFGR_HSIDIV_Pos);
34184b06:	f3c3 13c1 	ubfx	r3, r3, #7, #2
34184b0a:	480b      	ldr	r0, [pc, #44]	@ (34184b38 <RCCEx_GetADFCLKFreq+0x138>)
34184b0c:	40d8      	lsrs	r0, r3
34184b0e:	e00f      	b.n	34184b30 <RCCEx_GetADFCLKFreq+0x130>
  return ((READ_BIT(RCC->SR, RCC_SR_MSIRDY) != 0UL) ? 1UL : 0UL);
34184b10:	4b08      	ldr	r3, [pc, #32]	@ (34184b34 <RCCEx_GetADFCLKFreq+0x134>)
34184b12:	6858      	ldr	r0, [r3, #4]
34184b14:	f010 0004 	ands.w	r0, r0, #4
34184b18:	d00a      	beq.n	34184b30 <RCCEx_GetADFCLKFreq+0x130>
        adf_frequency = MSI_VALUE;
34184b1a:	4808      	ldr	r0, [pc, #32]	@ (34184b3c <RCCEx_GetADFCLKFreq+0x13c>)
  return adf_frequency;
34184b1c:	e008      	b.n	34184b30 <RCCEx_GetADFCLKFreq+0x130>
      adf_frequency = LL_RCC_CALC_TIMG_FREQ(HAL_RCC_GetSysClockFreq(), LL_RCC_GetTIMPrescaler());
34184b1e:	f7fd fd89 	bl	34182634 <HAL_RCC_GetSysClockFreq>
  return (uint32_t)(READ_BIT(RCC->CFGR2, RCC_CFGR2_TIMPRE) >> RCC_CFGR2_TIMPRE_Pos);
34184b22:	4b04      	ldr	r3, [pc, #16]	@ (34184b34 <RCCEx_GetADFCLKFreq+0x134>)
34184b24:	6a5b      	ldr	r3, [r3, #36]	@ 0x24
34184b26:	f3c3 6301 	ubfx	r3, r3, #24, #2
34184b2a:	40d8      	lsrs	r0, r3
      break;
34184b2c:	e000      	b.n	34184b30 <RCCEx_GetADFCLKFreq+0x130>
      adf_frequency = EXTERNAL_CLOCK_VALUE;
34184b2e:	4804      	ldr	r0, [pc, #16]	@ (34184b40 <RCCEx_GetADFCLKFreq+0x140>)
}
34184b30:	bd10      	pop	{r4, pc}
34184b32:	bf00      	nop
34184b34:	56028000 	.word	0x56028000
34184b38:	03d09000 	.word	0x03d09000
34184b3c:	003d0900 	.word	0x003d0900
34184b40:	00bb8000 	.word	0x00bb8000

34184b44 <RCCEx_GetDCMIPPCLKFreq>:
{
34184b44:	b510      	push	{r4, lr}
  return (uint32_t)(READ_BIT(RCC->CCIPR1, RCC_CCIPR1_DCMIPPSEL));
34184b46:	4b2e      	ldr	r3, [pc, #184]	@ (34184c00 <RCCEx_GetDCMIPPCLKFreq+0xbc>)
34184b48:	f8d3 3144 	ldr.w	r3, [r3, #324]	@ 0x144
34184b4c:	f403 1340 	and.w	r3, r3, #3145728	@ 0x300000
  switch (LL_RCC_GetDCMIPPClockSource(DCMIPPxSource))
34184b50:	f5b3 1f00 	cmp.w	r3, #2097152	@ 0x200000
34184b54:	d021      	beq.n	34184b9a <RCCEx_GetDCMIPPCLKFreq+0x56>
34184b56:	d809      	bhi.n	34184b6c <RCCEx_GetDCMIPPCLKFreq+0x28>
34184b58:	b1c3      	cbz	r3, 34184b8c <RCCEx_GetDCMIPPCLKFreq+0x48>
34184b5a:	f5b3 1f80 	cmp.w	r3, #1048576	@ 0x100000
34184b5e:	d103      	bne.n	34184b68 <RCCEx_GetDCMIPPCLKFreq+0x24>
      dcmipp_frequency = RCCEx_GetCLKPCLKFreq(LL_RCC_CLKP_CLKSOURCE);
34184b60:	2007      	movs	r0, #7
34184b62:	f7ff fd5d 	bl	34184620 <RCCEx_GetCLKPCLKFreq>
      break;
34184b66:	e017      	b.n	34184b98 <RCCEx_GetDCMIPPCLKFreq+0x54>
  switch (LL_RCC_GetDCMIPPClockSource(DCMIPPxSource))
34184b68:	2000      	movs	r0, #0
34184b6a:	e015      	b.n	34184b98 <RCCEx_GetDCMIPPCLKFreq+0x54>
34184b6c:	f5b3 1f40 	cmp.w	r3, #3145728	@ 0x300000
34184b70:	d10a      	bne.n	34184b88 <RCCEx_GetDCMIPPCLKFreq+0x44>
  return ((READ_BIT(RCC->SR, RCC_SR_HSIRDY) != 0UL) ? 1UL : 0UL);
34184b72:	4b23      	ldr	r3, [pc, #140]	@ (34184c00 <RCCEx_GetDCMIPPCLKFreq+0xbc>)
34184b74:	6858      	ldr	r0, [r3, #4]
34184b76:	f010 0008 	ands.w	r0, r0, #8
34184b7a:	d00d      	beq.n	34184b98 <RCCEx_GetDCMIPPCLKFreq+0x54>
  return (READ_BIT(RCC->HSICFGR, RCC_HSICFGR_HSIDIV));
34184b7c:	6c9b      	ldr	r3, [r3, #72]	@ 0x48
        dcmipp_frequency = HSI_VALUE >> (LL_RCC_HSI_GetDivider() >> RCC_HSICFGR_HSIDIV_Pos);
34184b7e:	f3c3 13c1 	ubfx	r3, r3, #7, #2
34184b82:	4820      	ldr	r0, [pc, #128]	@ (34184c04 <RCCEx_GetDCMIPPCLKFreq+0xc0>)
34184b84:	40d8      	lsrs	r0, r3
  return dcmipp_frequency;
34184b86:	e007      	b.n	34184b98 <RCCEx_GetDCMIPPCLKFreq+0x54>
  switch (LL_RCC_GetDCMIPPClockSource(DCMIPPxSource))
34184b88:	2000      	movs	r0, #0
34184b8a:	e005      	b.n	34184b98 <RCCEx_GetDCMIPPCLKFreq+0x54>
      dcmipp_frequency = RCCEx_GetPCLK5Freq(RCCEx_GetHCLKFreq(HAL_RCC_GetSysClockFreq()));
34184b8c:	f7fd fd52 	bl	34182634 <HAL_RCC_GetSysClockFreq>
34184b90:	f7fd fdc8 	bl	34182724 <RCCEx_GetHCLKFreq>
34184b94:	f7fd fde6 	bl	34182764 <RCCEx_GetPCLK5Freq>
}
34184b98:	bd10      	pop	{r4, pc}
  return ((READ_BIT(RCC->DIVENR, RCC_DIVENR_IC17EN) == RCC_DIVENR_IC17EN) ? 1UL : 0UL);
34184b9a:	4b19      	ldr	r3, [pc, #100]	@ (34184c00 <RCCEx_GetDCMIPPCLKFreq+0xbc>)
34184b9c:	f8d3 0240 	ldr.w	r0, [r3, #576]	@ 0x240
34184ba0:	f410 3080 	ands.w	r0, r0, #65536	@ 0x10000
34184ba4:	d0f8      	beq.n	34184b98 <RCCEx_GetDCMIPPCLKFreq+0x54>
  return ((READ_BIT(RCC->IC17CFGR, RCC_IC17CFGR_IC17INT) >> RCC_IC17CFGR_IC17INT_Pos) + 1UL);
34184ba6:	f8d3 0104 	ldr.w	r0, [r3, #260]	@ 0x104
34184baa:	f3c0 4007 	ubfx	r0, r0, #16, #8
34184bae:	1c44      	adds	r4, r0, #1
  return (uint32_t)(READ_BIT(RCC->IC17CFGR, RCC_IC17CFGR_IC17SEL));
34184bb0:	f8d3 3104 	ldr.w	r3, [r3, #260]	@ 0x104
34184bb4:	f003 5340 	and.w	r3, r3, #805306368	@ 0x30000000
        switch (LL_RCC_IC17_GetSource())
34184bb8:	f1b3 5f00 	cmp.w	r3, #536870912	@ 0x20000000
34184bbc:	d01a      	beq.n	34184bf4 <RCCEx_GetDCMIPPCLKFreq+0xb0>
34184bbe:	d80a      	bhi.n	34184bd6 <RCCEx_GetDCMIPPCLKFreq+0x92>
34184bc0:	b19b      	cbz	r3, 34184bea <RCCEx_GetDCMIPPCLKFreq+0xa6>
34184bc2:	f1b3 5f80 	cmp.w	r3, #268435456	@ 0x10000000
34184bc6:	d104      	bne.n	34184bd2 <RCCEx_GetDCMIPPCLKFreq+0x8e>
            dcmipp_frequency = HAL_RCCEx_GetPLL2CLKFreq();
34184bc8:	f7ff fc1c 	bl	34184404 <HAL_RCCEx_GetPLL2CLKFreq>
            dcmipp_frequency = dcmipp_frequency / ic_divider;
34184bcc:	fbb0 f0f4 	udiv	r0, r0, r4
            break;
34184bd0:	e7e2      	b.n	34184b98 <RCCEx_GetDCMIPPCLKFreq+0x54>
        switch (LL_RCC_IC17_GetSource())
34184bd2:	2000      	movs	r0, #0
34184bd4:	e7e0      	b.n	34184b98 <RCCEx_GetDCMIPPCLKFreq+0x54>
34184bd6:	f1b3 5f40 	cmp.w	r3, #805306368	@ 0x30000000
34184bda:	d104      	bne.n	34184be6 <RCCEx_GetDCMIPPCLKFreq+0xa2>
            dcmipp_frequency = HAL_RCCEx_GetPLL4CLKFreq();
34184bdc:	f7ff fca2 	bl	34184524 <HAL_RCCEx_GetPLL4CLKFreq>
            dcmipp_frequency = dcmipp_frequency / ic_divider;
34184be0:	fbb0 f0f4 	udiv	r0, r0, r4
            break;
34184be4:	e7d8      	b.n	34184b98 <RCCEx_GetDCMIPPCLKFreq+0x54>
        switch (LL_RCC_IC17_GetSource())
34184be6:	2000      	movs	r0, #0
34184be8:	e7d6      	b.n	34184b98 <RCCEx_GetDCMIPPCLKFreq+0x54>
            dcmipp_frequency = HAL_RCCEx_GetPLL1CLKFreq();
34184bea:	f7ff fbc3 	bl	34184374 <HAL_RCCEx_GetPLL1CLKFreq>
            dcmipp_frequency = dcmipp_frequency / ic_divider;
34184bee:	fbb0 f0f4 	udiv	r0, r0, r4
            break;
34184bf2:	e7d1      	b.n	34184b98 <RCCEx_GetDCMIPPCLKFreq+0x54>
            dcmipp_frequency = HAL_RCCEx_GetPLL3CLKFreq();
34184bf4:	f7ff fc4e 	bl	34184494 <HAL_RCCEx_GetPLL3CLKFreq>
            dcmipp_frequency = dcmipp_frequency / ic_divider;
34184bf8:	fbb0 f0f4 	udiv	r0, r0, r4
            break;
34184bfc:	e7cc      	b.n	34184b98 <RCCEx_GetDCMIPPCLKFreq+0x54>
34184bfe:	bf00      	nop
34184c00:	56028000 	.word	0x56028000
34184c04:	03d09000 	.word	0x03d09000

34184c08 <RCCEx_GetETH1CLKFreq>:
{
34184c08:	b510      	push	{r4, lr}
  return (uint32_t)(READ_BIT(RCC->CCIPR2, RCC_CCIPR2_ETH1CLKSEL));
34184c0a:	4b2b      	ldr	r3, [pc, #172]	@ (34184cb8 <RCCEx_GetETH1CLKFreq+0xb0>)
34184c0c:	f8d3 3148 	ldr.w	r3, [r3, #328]	@ 0x148
34184c10:	f403 5340 	and.w	r3, r3, #12288	@ 0x3000
  switch (LL_RCC_GetETHClockSource(ETH1xSource))
34184c14:	f5b3 5f00 	cmp.w	r3, #8192	@ 0x2000
34184c18:	d01b      	beq.n	34184c52 <RCCEx_GetETH1CLKFreq+0x4a>
34184c1a:	d809      	bhi.n	34184c30 <RCCEx_GetETH1CLKFreq+0x28>
34184c1c:	b1a3      	cbz	r3, 34184c48 <RCCEx_GetETH1CLKFreq+0x40>
34184c1e:	f5b3 5f80 	cmp.w	r3, #4096	@ 0x1000
34184c22:	d103      	bne.n	34184c2c <RCCEx_GetETH1CLKFreq+0x24>
      eth1_frequency = RCCEx_GetCLKPCLKFreq(LL_RCC_CLKP_CLKSOURCE);
34184c24:	2007      	movs	r0, #7
34184c26:	f7ff fcfb 	bl	34184620 <RCCEx_GetCLKPCLKFreq>
      break;
34184c2a:	e011      	b.n	34184c50 <RCCEx_GetETH1CLKFreq+0x48>
  switch (LL_RCC_GetETHClockSource(ETH1xSource))
34184c2c:	2000      	movs	r0, #0
34184c2e:	e00f      	b.n	34184c50 <RCCEx_GetETH1CLKFreq+0x48>
34184c30:	f5b3 5f40 	cmp.w	r3, #12288	@ 0x3000
34184c34:	d106      	bne.n	34184c44 <RCCEx_GetETH1CLKFreq+0x3c>
  return ((READ_BIT(RCC->SR, RCC_SR_HSERDY) != 0UL) ? 1UL : 0UL);
34184c36:	4b20      	ldr	r3, [pc, #128]	@ (34184cb8 <RCCEx_GetETH1CLKFreq+0xb0>)
34184c38:	6858      	ldr	r0, [r3, #4]
34184c3a:	f010 0010 	ands.w	r0, r0, #16
34184c3e:	d007      	beq.n	34184c50 <RCCEx_GetETH1CLKFreq+0x48>
        eth1_frequency = HSE_VALUE;
34184c40:	481e      	ldr	r0, [pc, #120]	@ (34184cbc <RCCEx_GetETH1CLKFreq+0xb4>)
  return eth1_frequency;
34184c42:	e005      	b.n	34184c50 <RCCEx_GetETH1CLKFreq+0x48>
  switch (LL_RCC_GetETHClockSource(ETH1xSource))
34184c44:	2000      	movs	r0, #0
34184c46:	e003      	b.n	34184c50 <RCCEx_GetETH1CLKFreq+0x48>
      eth1_frequency = RCCEx_GetHCLKFreq(HAL_RCC_GetSysClockFreq());
34184c48:	f7fd fcf4 	bl	34182634 <HAL_RCC_GetSysClockFreq>
34184c4c:	f7fd fd6a 	bl	34182724 <RCCEx_GetHCLKFreq>
}
34184c50:	bd10      	pop	{r4, pc}
  return ((READ_BIT(RCC->DIVENR, RCC_DIVENR_IC12EN) == RCC_DIVENR_IC12EN) ? 1UL : 0UL);
34184c52:	4b19      	ldr	r3, [pc, #100]	@ (34184cb8 <RCCEx_GetETH1CLKFreq+0xb0>)
34184c54:	f8d3 0240 	ldr.w	r0, [r3, #576]	@ 0x240
34184c58:	f410 6000 	ands.w	r0, r0, #2048	@ 0x800
34184c5c:	d0f8      	beq.n	34184c50 <RCCEx_GetETH1CLKFreq+0x48>
  return ((READ_BIT(RCC->IC12CFGR, RCC_IC12CFGR_IC12INT) >> RCC_IC12CFGR_IC12INT_Pos) + 1UL);
34184c5e:	f8d3 00f0 	ldr.w	r0, [r3, #240]	@ 0xf0
34184c62:	f3c0 4007 	ubfx	r0, r0, #16, #8
34184c66:	1c44      	adds	r4, r0, #1
  return (uint32_t)(READ_BIT(RCC->IC12CFGR, RCC_IC12CFGR_IC12SEL));
34184c68:	f8d3 30f0 	ldr.w	r3, [r3, #240]	@ 0xf0
34184c6c:	f003 5340 	and.w	r3, r3, #805306368	@ 0x30000000
        switch (LL_RCC_IC12_GetSource())
34184c70:	f1b3 5f00 	cmp.w	r3, #536870912	@ 0x20000000
34184c74:	d01a      	beq.n	34184cac <RCCEx_GetETH1CLKFreq+0xa4>
34184c76:	d80a      	bhi.n	34184c8e <RCCEx_GetETH1CLKFreq+0x86>
34184c78:	b19b      	cbz	r3, 34184ca2 <RCCEx_GetETH1CLKFreq+0x9a>
34184c7a:	f1b3 5f80 	cmp.w	r3, #268435456	@ 0x10000000
34184c7e:	d104      	bne.n	34184c8a <RCCEx_GetETH1CLKFreq+0x82>
            eth1_frequency = HAL_RCCEx_GetPLL2CLKFreq();
34184c80:	f7ff fbc0 	bl	34184404 <HAL_RCCEx_GetPLL2CLKFreq>
            eth1_frequency = eth1_frequency / ic_divider;
34184c84:	fbb0 f0f4 	udiv	r0, r0, r4
            break;
34184c88:	e7e2      	b.n	34184c50 <RCCEx_GetETH1CLKFreq+0x48>
        switch (LL_RCC_IC12_GetSource())
34184c8a:	2000      	movs	r0, #0
34184c8c:	e7e0      	b.n	34184c50 <RCCEx_GetETH1CLKFreq+0x48>
34184c8e:	f1b3 5f40 	cmp.w	r3, #805306368	@ 0x30000000
34184c92:	d104      	bne.n	34184c9e <RCCEx_GetETH1CLKFreq+0x96>
            eth1_frequency = HAL_RCCEx_GetPLL4CLKFreq();
34184c94:	f7ff fc46 	bl	34184524 <HAL_RCCEx_GetPLL4CLKFreq>
            eth1_frequency = eth1_frequency / ic_divider;
34184c98:	fbb0 f0f4 	udiv	r0, r0, r4
            break;
34184c9c:	e7d8      	b.n	34184c50 <RCCEx_GetETH1CLKFreq+0x48>
        switch (LL_RCC_IC12_GetSource())
34184c9e:	2000      	movs	r0, #0
34184ca0:	e7d6      	b.n	34184c50 <RCCEx_GetETH1CLKFreq+0x48>
            eth1_frequency = HAL_RCCEx_GetPLL1CLKFreq();
34184ca2:	f7ff fb67 	bl	34184374 <HAL_RCCEx_GetPLL1CLKFreq>
            eth1_frequency = eth1_frequency / ic_divider;
34184ca6:	fbb0 f0f4 	udiv	r0, r0, r4
            break;
34184caa:	e7d1      	b.n	34184c50 <RCCEx_GetETH1CLKFreq+0x48>
            eth1_frequency = HAL_RCCEx_GetPLL3CLKFreq();
34184cac:	f7ff fbf2 	bl	34184494 <HAL_RCCEx_GetPLL3CLKFreq>
            eth1_frequency = eth1_frequency / ic_divider;
34184cb0:	fbb0 f0f4 	udiv	r0, r0, r4
            break;
34184cb4:	e7cc      	b.n	34184c50 <RCCEx_GetETH1CLKFreq+0x48>
34184cb6:	bf00      	nop
34184cb8:	56028000 	.word	0x56028000
34184cbc:	02dc6c00 	.word	0x02dc6c00

34184cc0 <RCCEx_GetETH1PTPCLKFreq>:
{
34184cc0:	b510      	push	{r4, lr}
  return (uint32_t)(READ_BIT(RCC->CCIPR2, RCC_CCIPR2_ETH1PTPSEL));
34184cc2:	4b2b      	ldr	r3, [pc, #172]	@ (34184d70 <RCCEx_GetETH1PTPCLKFreq+0xb0>)
34184cc4:	f8d3 3148 	ldr.w	r3, [r3, #328]	@ 0x148
34184cc8:	f003 0303 	and.w	r3, r3, #3
  switch (LL_RCC_GetETHPTPClockSource(ETH1PTPxSource))
34184ccc:	2b03      	cmp	r3, #3
34184cce:	d84d      	bhi.n	34184d6c <RCCEx_GetETH1PTPCLKFreq+0xac>
34184cd0:	e8df f003 	tbb	[pc, r3]
34184cd4:	45130f02 	.word	0x45130f02
      eth1ptp_frequency = RCCEx_GetHCLKFreq(HAL_RCC_GetSysClockFreq());
34184cd8:	f7fd fcac 	bl	34182634 <HAL_RCC_GetSysClockFreq>
34184cdc:	f7fd fd22 	bl	34182724 <RCCEx_GetHCLKFreq>
  return (READ_BIT(RCC->CCIPR2, RCC_CCIPR2_ETH1PTPDIV));
34184ce0:	4b23      	ldr	r3, [pc, #140]	@ (34184d70 <RCCEx_GetETH1PTPCLKFreq+0xb0>)
34184ce2:	f8d3 3148 	ldr.w	r3, [r3, #328]	@ 0x148
  return (eth1ptp_frequency / __HAL_RCC_GET_ETH1PTP_DIVIDER());
34184ce6:	f3c3 1303 	ubfx	r3, r3, #4, #4
34184cea:	3301      	adds	r3, #1
}
34184cec:	fbb0 f0f3 	udiv	r0, r0, r3
34184cf0:	bd10      	pop	{r4, pc}
      eth1ptp_frequency = RCCEx_GetCLKPCLKFreq(LL_RCC_CLKP_CLKSOURCE);
34184cf2:	2007      	movs	r0, #7
34184cf4:	f7ff fc94 	bl	34184620 <RCCEx_GetCLKPCLKFreq>
      break;
34184cf8:	e7f2      	b.n	34184ce0 <RCCEx_GetETH1PTPCLKFreq+0x20>
  return ((READ_BIT(RCC->DIVENR, RCC_DIVENR_IC13EN) == RCC_DIVENR_IC13EN) ? 1UL : 0UL);
34184cfa:	4b1d      	ldr	r3, [pc, #116]	@ (34184d70 <RCCEx_GetETH1PTPCLKFreq+0xb0>)
34184cfc:	f8d3 0240 	ldr.w	r0, [r3, #576]	@ 0x240
34184d00:	f410 5080 	ands.w	r0, r0, #4096	@ 0x1000
34184d04:	d0ec      	beq.n	34184ce0 <RCCEx_GetETH1PTPCLKFreq+0x20>
  return ((READ_BIT(RCC->IC13CFGR, RCC_IC13CFGR_IC13INT) >> RCC_IC13CFGR_IC13INT_Pos) + 1UL);
34184d06:	f8d3 00f4 	ldr.w	r0, [r3, #244]	@ 0xf4
34184d0a:	f3c0 4007 	ubfx	r0, r0, #16, #8
34184d0e:	1c44      	adds	r4, r0, #1
  return (uint32_t)(READ_BIT(RCC->IC13CFGR, RCC_IC13CFGR_IC13SEL));
34184d10:	f8d3 30f4 	ldr.w	r3, [r3, #244]	@ 0xf4
34184d14:	f003 5340 	and.w	r3, r3, #805306368	@ 0x30000000
        switch (LL_RCC_IC13_GetSource())
34184d18:	f1b3 5f00 	cmp.w	r3, #536870912	@ 0x20000000
34184d1c:	d01a      	beq.n	34184d54 <RCCEx_GetETH1PTPCLKFreq+0x94>
34184d1e:	d80a      	bhi.n	34184d36 <RCCEx_GetETH1PTPCLKFreq+0x76>
34184d20:	b19b      	cbz	r3, 34184d4a <RCCEx_GetETH1PTPCLKFreq+0x8a>
34184d22:	f1b3 5f80 	cmp.w	r3, #268435456	@ 0x10000000
34184d26:	d104      	bne.n	34184d32 <RCCEx_GetETH1PTPCLKFreq+0x72>
            eth1ptp_frequency = HAL_RCCEx_GetPLL2CLKFreq();
34184d28:	f7ff fb6c 	bl	34184404 <HAL_RCCEx_GetPLL2CLKFreq>
            eth1ptp_frequency = eth1ptp_frequency / ic_divider;
34184d2c:	fbb0 f0f4 	udiv	r0, r0, r4
            break;
34184d30:	e7d6      	b.n	34184ce0 <RCCEx_GetETH1PTPCLKFreq+0x20>
        switch (LL_RCC_IC13_GetSource())
34184d32:	2000      	movs	r0, #0
34184d34:	e7d4      	b.n	34184ce0 <RCCEx_GetETH1PTPCLKFreq+0x20>
34184d36:	f1b3 5f40 	cmp.w	r3, #805306368	@ 0x30000000
34184d3a:	d104      	bne.n	34184d46 <RCCEx_GetETH1PTPCLKFreq+0x86>
            eth1ptp_frequency = HAL_RCCEx_GetPLL4CLKFreq();
34184d3c:	f7ff fbf2 	bl	34184524 <HAL_RCCEx_GetPLL4CLKFreq>
            eth1ptp_frequency = eth1ptp_frequency / ic_divider;
34184d40:	fbb0 f0f4 	udiv	r0, r0, r4
            break;
34184d44:	e7cc      	b.n	34184ce0 <RCCEx_GetETH1PTPCLKFreq+0x20>
        switch (LL_RCC_IC13_GetSource())
34184d46:	2000      	movs	r0, #0
34184d48:	e7ca      	b.n	34184ce0 <RCCEx_GetETH1PTPCLKFreq+0x20>
            eth1ptp_frequency = HAL_RCCEx_GetPLL1CLKFreq();
34184d4a:	f7ff fb13 	bl	34184374 <HAL_RCCEx_GetPLL1CLKFreq>
            eth1ptp_frequency = eth1ptp_frequency / ic_divider;
34184d4e:	fbb0 f0f4 	udiv	r0, r0, r4
            break;
34184d52:	e7c5      	b.n	34184ce0 <RCCEx_GetETH1PTPCLKFreq+0x20>
            eth1ptp_frequency = HAL_RCCEx_GetPLL3CLKFreq();
34184d54:	f7ff fb9e 	bl	34184494 <HAL_RCCEx_GetPLL3CLKFreq>
            eth1ptp_frequency = eth1ptp_frequency / ic_divider;
34184d58:	fbb0 f0f4 	udiv	r0, r0, r4
            break;
34184d5c:	e7c0      	b.n	34184ce0 <RCCEx_GetETH1PTPCLKFreq+0x20>
  return ((READ_BIT(RCC->SR, RCC_SR_HSERDY) != 0UL) ? 1UL : 0UL);
34184d5e:	4b04      	ldr	r3, [pc, #16]	@ (34184d70 <RCCEx_GetETH1PTPCLKFreq+0xb0>)
34184d60:	6858      	ldr	r0, [r3, #4]
34184d62:	f010 0010 	ands.w	r0, r0, #16
34184d66:	d0bb      	beq.n	34184ce0 <RCCEx_GetETH1PTPCLKFreq+0x20>
        eth1ptp_frequency = HSE_VALUE;
34184d68:	4802      	ldr	r0, [pc, #8]	@ (34184d74 <RCCEx_GetETH1PTPCLKFreq+0xb4>)
34184d6a:	e7b9      	b.n	34184ce0 <RCCEx_GetETH1PTPCLKFreq+0x20>
  switch (LL_RCC_GetETHPTPClockSource(ETH1PTPxSource))
34184d6c:	2000      	movs	r0, #0
34184d6e:	e7b7      	b.n	34184ce0 <RCCEx_GetETH1PTPCLKFreq+0x20>
34184d70:	56028000 	.word	0x56028000
34184d74:	02dc6c00 	.word	0x02dc6c00

34184d78 <RCCEx_GetFDCANCLKFreq>:
{
34184d78:	b510      	push	{r4, lr}
  return (uint32_t)(READ_BIT(RCC->CCIPR3, RCC_CCIPR3_FDCANSEL));
34184d7a:	4b28      	ldr	r3, [pc, #160]	@ (34184e1c <RCCEx_GetFDCANCLKFreq+0xa4>)
34184d7c:	f8d3 314c 	ldr.w	r3, [r3, #332]	@ 0x14c
34184d80:	f003 0303 	and.w	r3, r3, #3
  switch (LL_RCC_GetFDCANClockSource(FDCANxSource))
34184d84:	2b03      	cmp	r3, #3
34184d86:	d847      	bhi.n	34184e18 <RCCEx_GetFDCANCLKFreq+0xa0>
34184d88:	e8df f003 	tbb	[pc, r3]
34184d8c:	3f0d0902 	.word	0x3f0d0902
      fdcan_frequency = RCCEx_GetPCLK1Freq(RCCEx_GetHCLKFreq(HAL_RCC_GetSysClockFreq()));
34184d90:	f7fd fc50 	bl	34182634 <HAL_RCC_GetSysClockFreq>
34184d94:	f7fd fcc6 	bl	34182724 <RCCEx_GetHCLKFreq>
34184d98:	f7fd fccc 	bl	34182734 <RCCEx_GetPCLK1Freq>
}
34184d9c:	bd10      	pop	{r4, pc}
      fdcan_frequency = RCCEx_GetCLKPCLKFreq(LL_RCC_CLKP_CLKSOURCE);
34184d9e:	2007      	movs	r0, #7
34184da0:	f7ff fc3e 	bl	34184620 <RCCEx_GetCLKPCLKFreq>
      break;
34184da4:	e7fa      	b.n	34184d9c <RCCEx_GetFDCANCLKFreq+0x24>
  return ((READ_BIT(RCC->DIVENR, RCC_DIVENR_IC19EN) == RCC_DIVENR_IC19EN) ? 1UL : 0UL);
34184da6:	4b1d      	ldr	r3, [pc, #116]	@ (34184e1c <RCCEx_GetFDCANCLKFreq+0xa4>)
34184da8:	f8d3 0240 	ldr.w	r0, [r3, #576]	@ 0x240
34184dac:	f410 2080 	ands.w	r0, r0, #262144	@ 0x40000
34184db0:	d0f4      	beq.n	34184d9c <RCCEx_GetFDCANCLKFreq+0x24>
  return ((READ_BIT(RCC->IC19CFGR, RCC_IC19CFGR_IC19INT) >> RCC_IC19CFGR_IC19INT_Pos) + 1UL);
34184db2:	f8d3 010c 	ldr.w	r0, [r3, #268]	@ 0x10c
34184db6:	f3c0 4007 	ubfx	r0, r0, #16, #8
34184dba:	1c44      	adds	r4, r0, #1
  return (uint32_t)(READ_BIT(RCC->IC19CFGR, RCC_IC19CFGR_IC19SEL));
34184dbc:	f8d3 310c 	ldr.w	r3, [r3, #268]	@ 0x10c
34184dc0:	f003 5340 	and.w	r3, r3, #805306368	@ 0x30000000
        switch (LL_RCC_IC19_GetSource())
34184dc4:	f1b3 5f00 	cmp.w	r3, #536870912	@ 0x20000000
34184dc8:	d01a      	beq.n	34184e00 <RCCEx_GetFDCANCLKFreq+0x88>
34184dca:	d80a      	bhi.n	34184de2 <RCCEx_GetFDCANCLKFreq+0x6a>
34184dcc:	b19b      	cbz	r3, 34184df6 <RCCEx_GetFDCANCLKFreq+0x7e>
34184dce:	f1b3 5f80 	cmp.w	r3, #268435456	@ 0x10000000
34184dd2:	d104      	bne.n	34184dde <RCCEx_GetFDCANCLKFreq+0x66>
            fdcan_frequency = HAL_RCCEx_GetPLL2CLKFreq();
34184dd4:	f7ff fb16 	bl	34184404 <HAL_RCCEx_GetPLL2CLKFreq>
            fdcan_frequency = fdcan_frequency / ic_divider;
34184dd8:	fbb0 f0f4 	udiv	r0, r0, r4
            break;
34184ddc:	e7de      	b.n	34184d9c <RCCEx_GetFDCANCLKFreq+0x24>
        switch (LL_RCC_IC19_GetSource())
34184dde:	2000      	movs	r0, #0
34184de0:	e7dc      	b.n	34184d9c <RCCEx_GetFDCANCLKFreq+0x24>
34184de2:	f1b3 5f40 	cmp.w	r3, #805306368	@ 0x30000000
34184de6:	d104      	bne.n	34184df2 <RCCEx_GetFDCANCLKFreq+0x7a>
            fdcan_frequency = HAL_RCCEx_GetPLL4CLKFreq();
34184de8:	f7ff fb9c 	bl	34184524 <HAL_RCCEx_GetPLL4CLKFreq>
            fdcan_frequency = fdcan_frequency / ic_divider;
34184dec:	fbb0 f0f4 	udiv	r0, r0, r4
            break;
34184df0:	e7d4      	b.n	34184d9c <RCCEx_GetFDCANCLKFreq+0x24>
        switch (LL_RCC_IC19_GetSource())
34184df2:	2000      	movs	r0, #0
34184df4:	e7d2      	b.n	34184d9c <RCCEx_GetFDCANCLKFreq+0x24>
            fdcan_frequency = HAL_RCCEx_GetPLL1CLKFreq();
34184df6:	f7ff fabd 	bl	34184374 <HAL_RCCEx_GetPLL1CLKFreq>
            fdcan_frequency = fdcan_frequency / ic_divider;
34184dfa:	fbb0 f0f4 	udiv	r0, r0, r4
            break;
34184dfe:	e7cd      	b.n	34184d9c <RCCEx_GetFDCANCLKFreq+0x24>
            fdcan_frequency = HAL_RCCEx_GetPLL3CLKFreq();
34184e00:	f7ff fb48 	bl	34184494 <HAL_RCCEx_GetPLL3CLKFreq>
            fdcan_frequency = fdcan_frequency / ic_divider;
34184e04:	fbb0 f0f4 	udiv	r0, r0, r4
            break;
34184e08:	e7c8      	b.n	34184d9c <RCCEx_GetFDCANCLKFreq+0x24>
  return ((READ_BIT(RCC->SR, RCC_SR_HSERDY) != 0UL) ? 1UL : 0UL);
34184e0a:	4b04      	ldr	r3, [pc, #16]	@ (34184e1c <RCCEx_GetFDCANCLKFreq+0xa4>)
34184e0c:	6858      	ldr	r0, [r3, #4]
34184e0e:	f010 0010 	ands.w	r0, r0, #16
34184e12:	d0c3      	beq.n	34184d9c <RCCEx_GetFDCANCLKFreq+0x24>
        fdcan_frequency = HSE_VALUE;
34184e14:	4802      	ldr	r0, [pc, #8]	@ (34184e20 <RCCEx_GetFDCANCLKFreq+0xa8>)
  return fdcan_frequency;
34184e16:	e7c1      	b.n	34184d9c <RCCEx_GetFDCANCLKFreq+0x24>
  switch (LL_RCC_GetFDCANClockSource(FDCANxSource))
34184e18:	2000      	movs	r0, #0
34184e1a:	e7bf      	b.n	34184d9c <RCCEx_GetFDCANCLKFreq+0x24>
34184e1c:	56028000 	.word	0x56028000
34184e20:	02dc6c00 	.word	0x02dc6c00

34184e24 <RCCEx_GetFMCCLKFreq>:
{
34184e24:	b510      	push	{r4, lr}
  return (uint32_t)(READ_BIT(RCC->CCIPR3, RCC_CCIPR3_FMCSEL));
34184e26:	4b3f      	ldr	r3, [pc, #252]	@ (34184f24 <RCCEx_GetFMCCLKFreq+0x100>)
34184e28:	f8d3 314c 	ldr.w	r3, [r3, #332]	@ 0x14c
34184e2c:	f003 0330 	and.w	r3, r3, #48	@ 0x30
  switch (LL_RCC_GetFMCClockSource(FMCxSource))
34184e30:	2b20      	cmp	r3, #32
34184e32:	d02f      	beq.n	34184e94 <RCCEx_GetFMCCLKFreq+0x70>
34184e34:	d808      	bhi.n	34184e48 <RCCEx_GetFMCCLKFreq+0x24>
34184e36:	b343      	cbz	r3, 34184e8a <RCCEx_GetFMCCLKFreq+0x66>
34184e38:	2b10      	cmp	r3, #16
34184e3a:	d103      	bne.n	34184e44 <RCCEx_GetFMCCLKFreq+0x20>
      fmc_frequency = RCCEx_GetCLKPCLKFreq(LL_RCC_CLKP_CLKSOURCE);
34184e3c:	2007      	movs	r0, #7
34184e3e:	f7ff fbef 	bl	34184620 <RCCEx_GetCLKPCLKFreq>
      break;
34184e42:	e026      	b.n	34184e92 <RCCEx_GetFMCCLKFreq+0x6e>
  switch (LL_RCC_GetFMCClockSource(FMCxSource))
34184e44:	2000      	movs	r0, #0
34184e46:	e024      	b.n	34184e92 <RCCEx_GetFMCCLKFreq+0x6e>
34184e48:	2b30      	cmp	r3, #48	@ 0x30
34184e4a:	d11c      	bne.n	34184e86 <RCCEx_GetFMCCLKFreq+0x62>
  return ((READ_BIT(RCC->DIVENR, RCC_DIVENR_IC4EN) == RCC_DIVENR_IC4EN) ? 1UL : 0UL);
34184e4c:	4b35      	ldr	r3, [pc, #212]	@ (34184f24 <RCCEx_GetFMCCLKFreq+0x100>)
34184e4e:	f8d3 0240 	ldr.w	r0, [r3, #576]	@ 0x240
34184e52:	f010 0008 	ands.w	r0, r0, #8
34184e56:	d01c      	beq.n	34184e92 <RCCEx_GetFMCCLKFreq+0x6e>
  return ((READ_BIT(RCC->IC4CFGR, RCC_IC4CFGR_IC4INT) >> RCC_IC4CFGR_IC4INT_Pos) + 1UL);
34184e58:	f8d3 00d0 	ldr.w	r0, [r3, #208]	@ 0xd0
34184e5c:	f3c0 4007 	ubfx	r0, r0, #16, #8
34184e60:	1c44      	adds	r4, r0, #1
  return (uint32_t)(READ_BIT(RCC->IC4CFGR, RCC_IC4CFGR_IC4SEL));
34184e62:	f8d3 30d0 	ldr.w	r3, [r3, #208]	@ 0xd0
34184e66:	f003 5340 	and.w	r3, r3, #805306368	@ 0x30000000
        switch (LL_RCC_IC4_GetSource())
34184e6a:	f1b3 5f00 	cmp.w	r3, #536870912	@ 0x20000000
34184e6e:	d054      	beq.n	34184f1a <RCCEx_GetFMCCLKFreq+0xf6>
34184e70:	d844      	bhi.n	34184efc <RCCEx_GetFMCCLKFreq+0xd8>
34184e72:	2b00      	cmp	r3, #0
34184e74:	d04c      	beq.n	34184f10 <RCCEx_GetFMCCLKFreq+0xec>
34184e76:	f1b3 5f80 	cmp.w	r3, #268435456	@ 0x10000000
34184e7a:	d13d      	bne.n	34184ef8 <RCCEx_GetFMCCLKFreq+0xd4>
            fmc_frequency = HAL_RCCEx_GetPLL2CLKFreq();
34184e7c:	f7ff fac2 	bl	34184404 <HAL_RCCEx_GetPLL2CLKFreq>
            fmc_frequency = fmc_frequency / ic_divider;
34184e80:	fbb0 f0f4 	udiv	r0, r0, r4
            break;
34184e84:	e005      	b.n	34184e92 <RCCEx_GetFMCCLKFreq+0x6e>
  switch (LL_RCC_GetFMCClockSource(FMCxSource))
34184e86:	2000      	movs	r0, #0
34184e88:	e003      	b.n	34184e92 <RCCEx_GetFMCCLKFreq+0x6e>
      fmc_frequency = RCCEx_GetHCLKFreq(HAL_RCC_GetSysClockFreq());
34184e8a:	f7fd fbd3 	bl	34182634 <HAL_RCC_GetSysClockFreq>
34184e8e:	f7fd fc49 	bl	34182724 <RCCEx_GetHCLKFreq>
}
34184e92:	bd10      	pop	{r4, pc}
  return ((READ_BIT(RCC->DIVENR, RCC_DIVENR_IC3EN) == RCC_DIVENR_IC3EN) ? 1UL : 0UL);
34184e94:	4b23      	ldr	r3, [pc, #140]	@ (34184f24 <RCCEx_GetFMCCLKFreq+0x100>)
34184e96:	f8d3 0240 	ldr.w	r0, [r3, #576]	@ 0x240
34184e9a:	f010 0004 	ands.w	r0, r0, #4
34184e9e:	d0f8      	beq.n	34184e92 <RCCEx_GetFMCCLKFreq+0x6e>
  return ((READ_BIT(RCC->IC3CFGR, RCC_IC3CFGR_IC3INT) >> RCC_IC3CFGR_IC3INT_Pos) + 1UL);
34184ea0:	f8d3 00cc 	ldr.w	r0, [r3, #204]	@ 0xcc
34184ea4:	f3c0 4007 	ubfx	r0, r0, #16, #8
34184ea8:	1c44      	adds	r4, r0, #1
  return (uint32_t)(READ_BIT(RCC->IC3CFGR, RCC_IC3CFGR_IC3SEL));
34184eaa:	f8d3 30cc 	ldr.w	r3, [r3, #204]	@ 0xcc
34184eae:	f003 5340 	and.w	r3, r3, #805306368	@ 0x30000000
        switch (LL_RCC_IC3_GetSource())
34184eb2:	f1b3 5f00 	cmp.w	r3, #536870912	@ 0x20000000
34184eb6:	d01a      	beq.n	34184eee <RCCEx_GetFMCCLKFreq+0xca>
34184eb8:	d80a      	bhi.n	34184ed0 <RCCEx_GetFMCCLKFreq+0xac>
34184eba:	b19b      	cbz	r3, 34184ee4 <RCCEx_GetFMCCLKFreq+0xc0>
34184ebc:	f1b3 5f80 	cmp.w	r3, #268435456	@ 0x10000000
34184ec0:	d104      	bne.n	34184ecc <RCCEx_GetFMCCLKFreq+0xa8>
            fmc_frequency = HAL_RCCEx_GetPLL2CLKFreq();
34184ec2:	f7ff fa9f 	bl	34184404 <HAL_RCCEx_GetPLL2CLKFreq>
            fmc_frequency = fmc_frequency / ic_divider;
34184ec6:	fbb0 f0f4 	udiv	r0, r0, r4
            break;
34184eca:	e7e2      	b.n	34184e92 <RCCEx_GetFMCCLKFreq+0x6e>
        switch (LL_RCC_IC3_GetSource())
34184ecc:	2000      	movs	r0, #0
34184ece:	e7e0      	b.n	34184e92 <RCCEx_GetFMCCLKFreq+0x6e>
34184ed0:	f1b3 5f40 	cmp.w	r3, #805306368	@ 0x30000000
34184ed4:	d104      	bne.n	34184ee0 <RCCEx_GetFMCCLKFreq+0xbc>
            fmc_frequency = HAL_RCCEx_GetPLL4CLKFreq();
34184ed6:	f7ff fb25 	bl	34184524 <HAL_RCCEx_GetPLL4CLKFreq>
            fmc_frequency = fmc_frequency / ic_divider;
34184eda:	fbb0 f0f4 	udiv	r0, r0, r4
            break;
34184ede:	e7d8      	b.n	34184e92 <RCCEx_GetFMCCLKFreq+0x6e>
        switch (LL_RCC_IC3_GetSource())
34184ee0:	2000      	movs	r0, #0
34184ee2:	e7d6      	b.n	34184e92 <RCCEx_GetFMCCLKFreq+0x6e>
            fmc_frequency = HAL_RCCEx_GetPLL1CLKFreq();
34184ee4:	f7ff fa46 	bl	34184374 <HAL_RCCEx_GetPLL1CLKFreq>
            fmc_frequency = fmc_frequency / ic_divider;
34184ee8:	fbb0 f0f4 	udiv	r0, r0, r4
            break;
34184eec:	e7d1      	b.n	34184e92 <RCCEx_GetFMCCLKFreq+0x6e>
            fmc_frequency = HAL_RCCEx_GetPLL3CLKFreq();
34184eee:	f7ff fad1 	bl	34184494 <HAL_RCCEx_GetPLL3CLKFreq>
            fmc_frequency = fmc_frequency / ic_divider;
34184ef2:	fbb0 f0f4 	udiv	r0, r0, r4
            break;
34184ef6:	e7cc      	b.n	34184e92 <RCCEx_GetFMCCLKFreq+0x6e>
        switch (LL_RCC_IC4_GetSource())
34184ef8:	2000      	movs	r0, #0
34184efa:	e7ca      	b.n	34184e92 <RCCEx_GetFMCCLKFreq+0x6e>
34184efc:	f1b3 5f40 	cmp.w	r3, #805306368	@ 0x30000000
34184f00:	d104      	bne.n	34184f0c <RCCEx_GetFMCCLKFreq+0xe8>
            fmc_frequency = HAL_RCCEx_GetPLL4CLKFreq();
34184f02:	f7ff fb0f 	bl	34184524 <HAL_RCCEx_GetPLL4CLKFreq>
            fmc_frequency = fmc_frequency / ic_divider;
34184f06:	fbb0 f0f4 	udiv	r0, r0, r4
  return fmc_frequency;
34184f0a:	e7c2      	b.n	34184e92 <RCCEx_GetFMCCLKFreq+0x6e>
        switch (LL_RCC_IC4_GetSource())
34184f0c:	2000      	movs	r0, #0
34184f0e:	e7c0      	b.n	34184e92 <RCCEx_GetFMCCLKFreq+0x6e>
            fmc_frequency = HAL_RCCEx_GetPLL1CLKFreq();
34184f10:	f7ff fa30 	bl	34184374 <HAL_RCCEx_GetPLL1CLKFreq>
            fmc_frequency = fmc_frequency / ic_divider;
34184f14:	fbb0 f0f4 	udiv	r0, r0, r4
            break;
34184f18:	e7bb      	b.n	34184e92 <RCCEx_GetFMCCLKFreq+0x6e>
            fmc_frequency = HAL_RCCEx_GetPLL3CLKFreq();
34184f1a:	f7ff fabb 	bl	34184494 <HAL_RCCEx_GetPLL3CLKFreq>
            fmc_frequency = fmc_frequency / ic_divider;
34184f1e:	fbb0 f0f4 	udiv	r0, r0, r4
            break;
34184f22:	e7b6      	b.n	34184e92 <RCCEx_GetFMCCLKFreq+0x6e>
34184f24:	56028000 	.word	0x56028000

34184f28 <RCCEx_GetI2CCLKFreq>:
{
34184f28:	b510      	push	{r4, lr}
  return LL_RCC_GetClockSource(Periph);
34184f2a:	f7fd fbed 	bl	34182708 <LL_RCC_GetClockSource>
  switch (LL_RCC_GetI2CClockSource(I2CxSource))
34184f2e:	4b7a      	ldr	r3, [pc, #488]	@ (34185118 <RCCEx_GetI2CCLKFreq+0x1f0>)
34184f30:	4298      	cmp	r0, r3
34184f32:	f000 8098 	beq.w	34185066 <RCCEx_GetI2CCLKFreq+0x13e>
34184f36:	d861      	bhi.n	34184ffc <RCCEx_GetI2CCLKFreq+0xd4>
34184f38:	f5a3 33fc 	sub.w	r3, r3, #129024	@ 0x1f800
34184f3c:	4298      	cmp	r0, r3
34184f3e:	d021      	beq.n	34184f84 <RCCEx_GetI2CCLKFreq+0x5c>
34184f40:	d826      	bhi.n	34184f90 <RCCEx_GetI2CCLKFreq+0x68>
34184f42:	f5a3 437c 	sub.w	r3, r3, #64512	@ 0xfc00
34184f46:	4298      	cmp	r0, r3
34184f48:	d00c      	beq.n	34184f64 <RCCEx_GetI2CCLKFreq+0x3c>
34184f4a:	d814      	bhi.n	34184f76 <RCCEx_GetI2CCLKFreq+0x4e>
34184f4c:	f5a3 6300 	sub.w	r3, r3, #2048	@ 0x800
34184f50:	4298      	cmp	r0, r3
34184f52:	d007      	beq.n	34184f64 <RCCEx_GetI2CCLKFreq+0x3c>
34184f54:	f503 6380 	add.w	r3, r3, #1024	@ 0x400
34184f58:	4298      	cmp	r0, r3
34184f5a:	d003      	beq.n	34184f64 <RCCEx_GetI2CCLKFreq+0x3c>
34184f5c:	f5a3 6300 	sub.w	r3, r3, #2048	@ 0x800
34184f60:	4298      	cmp	r0, r3
34184f62:	d106      	bne.n	34184f72 <RCCEx_GetI2CCLKFreq+0x4a>
      i2c_frequency = RCCEx_GetPCLK1Freq(RCCEx_GetHCLKFreq(HAL_RCC_GetSysClockFreq()));
34184f64:	f7fd fb66 	bl	34182634 <HAL_RCC_GetSysClockFreq>
34184f68:	f7fd fbdc 	bl	34182724 <RCCEx_GetHCLKFreq>
34184f6c:	f7fd fbe2 	bl	34182734 <RCCEx_GetPCLK1Freq>
}
34184f70:	bd10      	pop	{r4, pc}
  switch (LL_RCC_GetI2CClockSource(I2CxSource))
34184f72:	2000      	movs	r0, #0
34184f74:	e7fc      	b.n	34184f70 <RCCEx_GetI2CCLKFreq+0x48>
34184f76:	4b69      	ldr	r3, [pc, #420]	@ (3418511c <RCCEx_GetI2CCLKFreq+0x1f4>)
34184f78:	4298      	cmp	r0, r3
34184f7a:	d003      	beq.n	34184f84 <RCCEx_GetI2CCLKFreq+0x5c>
34184f7c:	f503 6380 	add.w	r3, r3, #1024	@ 0x400
34184f80:	4298      	cmp	r0, r3
34184f82:	d103      	bne.n	34184f8c <RCCEx_GetI2CCLKFreq+0x64>
      i2c_frequency = RCCEx_GetCLKPCLKFreq(LL_RCC_CLKP_CLKSOURCE);
34184f84:	2007      	movs	r0, #7
34184f86:	f7ff fb4b 	bl	34184620 <RCCEx_GetCLKPCLKFreq>
      break;
34184f8a:	e7f1      	b.n	34184f70 <RCCEx_GetI2CCLKFreq+0x48>
  switch (LL_RCC_GetI2CClockSource(I2CxSource))
34184f8c:	2000      	movs	r0, #0
34184f8e:	e7ef      	b.n	34184f70 <RCCEx_GetI2CCLKFreq+0x48>
34184f90:	4b63      	ldr	r3, [pc, #396]	@ (34185120 <RCCEx_GetI2CCLKFreq+0x1f8>)
34184f92:	4298      	cmp	r0, r3
34184f94:	d007      	beq.n	34184fa6 <RCCEx_GetI2CCLKFreq+0x7e>
34184f96:	d925      	bls.n	34184fe4 <RCCEx_GetI2CCLKFreq+0xbc>
34184f98:	4b62      	ldr	r3, [pc, #392]	@ (34185124 <RCCEx_GetI2CCLKFreq+0x1fc>)
34184f9a:	4298      	cmp	r0, r3
34184f9c:	d003      	beq.n	34184fa6 <RCCEx_GetI2CCLKFreq+0x7e>
34184f9e:	f503 6380 	add.w	r3, r3, #1024	@ 0x400
34184fa2:	4298      	cmp	r0, r3
34184fa4:	d128      	bne.n	34184ff8 <RCCEx_GetI2CCLKFreq+0xd0>
  return ((READ_BIT(RCC->DIVENR, RCC_DIVENR_IC10EN) == RCC_DIVENR_IC10EN) ? 1UL : 0UL);
34184fa6:	4b60      	ldr	r3, [pc, #384]	@ (34185128 <RCCEx_GetI2CCLKFreq+0x200>)
34184fa8:	f8d3 0240 	ldr.w	r0, [r3, #576]	@ 0x240
34184fac:	f410 7000 	ands.w	r0, r0, #512	@ 0x200
34184fb0:	d0de      	beq.n	34184f70 <RCCEx_GetI2CCLKFreq+0x48>
  return ((READ_BIT(RCC->IC10CFGR, RCC_IC10CFGR_IC10INT) >> RCC_IC10CFGR_IC10INT_Pos) + 1UL);
34184fb2:	f8d3 00e8 	ldr.w	r0, [r3, #232]	@ 0xe8
34184fb6:	f3c0 4007 	ubfx	r0, r0, #16, #8
34184fba:	1c44      	adds	r4, r0, #1
  return (uint32_t)(READ_BIT(RCC->IC10CFGR, RCC_IC10CFGR_IC10SEL));
34184fbc:	f8d3 30e8 	ldr.w	r3, [r3, #232]	@ 0xe8
34184fc0:	f003 5340 	and.w	r3, r3, #805306368	@ 0x30000000
        switch (LL_RCC_IC10_GetSource())
34184fc4:	f1b3 5f00 	cmp.w	r3, #536870912	@ 0x20000000
34184fc8:	f000 808b 	beq.w	341850e2 <RCCEx_GetI2CCLKFreq+0x1ba>
34184fcc:	d87a      	bhi.n	341850c4 <RCCEx_GetI2CCLKFreq+0x19c>
34184fce:	2b00      	cmp	r3, #0
34184fd0:	f000 8082 	beq.w	341850d8 <RCCEx_GetI2CCLKFreq+0x1b0>
34184fd4:	f1b3 5f80 	cmp.w	r3, #268435456	@ 0x10000000
34184fd8:	d172      	bne.n	341850c0 <RCCEx_GetI2CCLKFreq+0x198>
            i2c_frequency = HAL_RCCEx_GetPLL2CLKFreq();
34184fda:	f7ff fa13 	bl	34184404 <HAL_RCCEx_GetPLL2CLKFreq>
            i2c_frequency = i2c_frequency / ic_divider;
34184fde:	fbb0 f0f4 	udiv	r0, r0, r4
            break;
34184fe2:	e7c5      	b.n	34184f70 <RCCEx_GetI2CCLKFreq+0x48>
  switch (LL_RCC_GetI2CClockSource(I2CxSource))
34184fe4:	f5a3 4378 	sub.w	r3, r3, #63488	@ 0xf800
34184fe8:	4298      	cmp	r0, r3
34184fea:	d0cb      	beq.n	34184f84 <RCCEx_GetI2CCLKFreq+0x5c>
34184fec:	f503 4374 	add.w	r3, r3, #62464	@ 0xf400
34184ff0:	4298      	cmp	r0, r3
34184ff2:	d0d8      	beq.n	34184fa6 <RCCEx_GetI2CCLKFreq+0x7e>
34184ff4:	2000      	movs	r0, #0
34184ff6:	e7bb      	b.n	34184f70 <RCCEx_GetI2CCLKFreq+0x48>
34184ff8:	2000      	movs	r0, #0
34184ffa:	e7b9      	b.n	34184f70 <RCCEx_GetI2CCLKFreq+0x48>
34184ffc:	4b4b      	ldr	r3, [pc, #300]	@ (3418512c <RCCEx_GetI2CCLKFreq+0x204>)
34184ffe:	4298      	cmp	r0, r3
34185000:	d022      	beq.n	34185048 <RCCEx_GetI2CCLKFreq+0x120>
34185002:	d915      	bls.n	34185030 <RCCEx_GetI2CCLKFreq+0x108>
34185004:	4b4a      	ldr	r3, [pc, #296]	@ (34185130 <RCCEx_GetI2CCLKFreq+0x208>)
34185006:	4298      	cmp	r0, r3
34185008:	d007      	beq.n	3418501a <RCCEx_GetI2CCLKFreq+0xf2>
3418500a:	d94d      	bls.n	341850a8 <RCCEx_GetI2CCLKFreq+0x180>
3418500c:	4b49      	ldr	r3, [pc, #292]	@ (34185134 <RCCEx_GetI2CCLKFreq+0x20c>)
3418500e:	4298      	cmp	r0, r3
34185010:	d003      	beq.n	3418501a <RCCEx_GetI2CCLKFreq+0xf2>
34185012:	f503 6380 	add.w	r3, r3, #1024	@ 0x400
34185016:	4298      	cmp	r0, r3
34185018:	d150      	bne.n	341850bc <RCCEx_GetI2CCLKFreq+0x194>
  return ((READ_BIT(RCC->SR, RCC_SR_HSIRDY) != 0UL) ? 1UL : 0UL);
3418501a:	4b43      	ldr	r3, [pc, #268]	@ (34185128 <RCCEx_GetI2CCLKFreq+0x200>)
3418501c:	6858      	ldr	r0, [r3, #4]
3418501e:	f010 0008 	ands.w	r0, r0, #8
34185022:	d0a5      	beq.n	34184f70 <RCCEx_GetI2CCLKFreq+0x48>
  return (READ_BIT(RCC->HSICFGR, RCC_HSICFGR_HSIDIV));
34185024:	6c9b      	ldr	r3, [r3, #72]	@ 0x48
        i2c_frequency = HSI_VALUE >> (LL_RCC_HSI_GetDivider() >> RCC_HSICFGR_HSIDIV_Pos);
34185026:	f3c3 13c1 	ubfx	r3, r3, #7, #2
3418502a:	4843      	ldr	r0, [pc, #268]	@ (34185138 <RCCEx_GetI2CCLKFreq+0x210>)
3418502c:	40d8      	lsrs	r0, r3
3418502e:	e79f      	b.n	34184f70 <RCCEx_GetI2CCLKFreq+0x48>
  switch (LL_RCC_GetI2CClockSource(I2CxSource))
34185030:	f5a3 437c 	sub.w	r3, r3, #64512	@ 0xfc00
34185034:	4298      	cmp	r0, r3
34185036:	d016      	beq.n	34185066 <RCCEx_GetI2CCLKFreq+0x13e>
34185038:	d90d      	bls.n	34185056 <RCCEx_GetI2CCLKFreq+0x12e>
3418503a:	4b40      	ldr	r3, [pc, #256]	@ (3418513c <RCCEx_GetI2CCLKFreq+0x214>)
3418503c:	4298      	cmp	r0, r3
3418503e:	d003      	beq.n	34185048 <RCCEx_GetI2CCLKFreq+0x120>
34185040:	f503 6380 	add.w	r3, r3, #1024	@ 0x400
34185044:	4298      	cmp	r0, r3
34185046:	d12d      	bne.n	341850a4 <RCCEx_GetI2CCLKFreq+0x17c>
  return ((READ_BIT(RCC->SR, RCC_SR_MSIRDY) != 0UL) ? 1UL : 0UL);
34185048:	4b37      	ldr	r3, [pc, #220]	@ (34185128 <RCCEx_GetI2CCLKFreq+0x200>)
3418504a:	6858      	ldr	r0, [r3, #4]
3418504c:	f010 0004 	ands.w	r0, r0, #4
34185050:	d08e      	beq.n	34184f70 <RCCEx_GetI2CCLKFreq+0x48>
        i2c_frequency = MSI_VALUE;
34185052:	483b      	ldr	r0, [pc, #236]	@ (34185140 <RCCEx_GetI2CCLKFreq+0x218>)
  return i2c_frequency;
34185054:	e78c      	b.n	34184f70 <RCCEx_GetI2CCLKFreq+0x48>
  switch (LL_RCC_GetI2CClockSource(I2CxSource))
34185056:	f5a3 6300 	sub.w	r3, r3, #2048	@ 0x800
3418505a:	4298      	cmp	r0, r3
3418505c:	d003      	beq.n	34185066 <RCCEx_GetI2CCLKFreq+0x13e>
3418505e:	f503 6380 	add.w	r3, r3, #1024	@ 0x400
34185062:	4298      	cmp	r0, r3
34185064:	d11c      	bne.n	341850a0 <RCCEx_GetI2CCLKFreq+0x178>
  return ((READ_BIT(RCC->DIVENR, RCC_DIVENR_IC15EN) == RCC_DIVENR_IC15EN) ? 1UL : 0UL);
34185066:	4b30      	ldr	r3, [pc, #192]	@ (34185128 <RCCEx_GetI2CCLKFreq+0x200>)
34185068:	f8d3 0240 	ldr.w	r0, [r3, #576]	@ 0x240
3418506c:	f410 4080 	ands.w	r0, r0, #16384	@ 0x4000
34185070:	f43f af7e 	beq.w	34184f70 <RCCEx_GetI2CCLKFreq+0x48>
  return ((READ_BIT(RCC->IC15CFGR, RCC_IC15CFGR_IC15INT) >> RCC_IC15CFGR_IC15INT_Pos) + 1UL);
34185074:	f8d3 00fc 	ldr.w	r0, [r3, #252]	@ 0xfc
34185078:	f3c0 4007 	ubfx	r0, r0, #16, #8
3418507c:	1c44      	adds	r4, r0, #1
  return (uint32_t)(READ_BIT(RCC->IC15CFGR, RCC_IC15CFGR_IC15SEL));
3418507e:	f8d3 30fc 	ldr.w	r3, [r3, #252]	@ 0xfc
34185082:	f003 5340 	and.w	r3, r3, #805306368	@ 0x30000000
        switch (LL_RCC_IC15_GetSource())
34185086:	f1b3 5f00 	cmp.w	r3, #536870912	@ 0x20000000
3418508a:	d040      	beq.n	3418510e <RCCEx_GetI2CCLKFreq+0x1e6>
3418508c:	d830      	bhi.n	341850f0 <RCCEx_GetI2CCLKFreq+0x1c8>
3418508e:	b3cb      	cbz	r3, 34185104 <RCCEx_GetI2CCLKFreq+0x1dc>
34185090:	f1b3 5f80 	cmp.w	r3, #268435456	@ 0x10000000
34185094:	d12a      	bne.n	341850ec <RCCEx_GetI2CCLKFreq+0x1c4>
            i2c_frequency = HAL_RCCEx_GetPLL2CLKFreq();
34185096:	f7ff f9b5 	bl	34184404 <HAL_RCCEx_GetPLL2CLKFreq>
            i2c_frequency = i2c_frequency / ic_divider;
3418509a:	fbb0 f0f4 	udiv	r0, r0, r4
            break;
3418509e:	e767      	b.n	34184f70 <RCCEx_GetI2CCLKFreq+0x48>
  switch (LL_RCC_GetI2CClockSource(I2CxSource))
341850a0:	2000      	movs	r0, #0
341850a2:	e765      	b.n	34184f70 <RCCEx_GetI2CCLKFreq+0x48>
341850a4:	2000      	movs	r0, #0
341850a6:	e763      	b.n	34184f70 <RCCEx_GetI2CCLKFreq+0x48>
341850a8:	f5a3 4378 	sub.w	r3, r3, #63488	@ 0xf800
341850ac:	4298      	cmp	r0, r3
341850ae:	d0cb      	beq.n	34185048 <RCCEx_GetI2CCLKFreq+0x120>
341850b0:	f503 4374 	add.w	r3, r3, #62464	@ 0xf400
341850b4:	4298      	cmp	r0, r3
341850b6:	d0b0      	beq.n	3418501a <RCCEx_GetI2CCLKFreq+0xf2>
341850b8:	2000      	movs	r0, #0
341850ba:	e759      	b.n	34184f70 <RCCEx_GetI2CCLKFreq+0x48>
341850bc:	2000      	movs	r0, #0
341850be:	e757      	b.n	34184f70 <RCCEx_GetI2CCLKFreq+0x48>
        switch (LL_RCC_IC10_GetSource())
341850c0:	2000      	movs	r0, #0
341850c2:	e755      	b.n	34184f70 <RCCEx_GetI2CCLKFreq+0x48>
341850c4:	f1b3 5f40 	cmp.w	r3, #805306368	@ 0x30000000
341850c8:	d104      	bne.n	341850d4 <RCCEx_GetI2CCLKFreq+0x1ac>
            i2c_frequency = HAL_RCCEx_GetPLL4CLKFreq();
341850ca:	f7ff fa2b 	bl	34184524 <HAL_RCCEx_GetPLL4CLKFreq>
            i2c_frequency = i2c_frequency / ic_divider;
341850ce:	fbb0 f0f4 	udiv	r0, r0, r4
            break;
341850d2:	e74d      	b.n	34184f70 <RCCEx_GetI2CCLKFreq+0x48>
        switch (LL_RCC_IC10_GetSource())
341850d4:	2000      	movs	r0, #0
341850d6:	e74b      	b.n	34184f70 <RCCEx_GetI2CCLKFreq+0x48>
            i2c_frequency = HAL_RCCEx_GetPLL1CLKFreq();
341850d8:	f7ff f94c 	bl	34184374 <HAL_RCCEx_GetPLL1CLKFreq>
            i2c_frequency = i2c_frequency / ic_divider;
341850dc:	fbb0 f0f4 	udiv	r0, r0, r4
            break;
341850e0:	e746      	b.n	34184f70 <RCCEx_GetI2CCLKFreq+0x48>
            i2c_frequency = HAL_RCCEx_GetPLL3CLKFreq();
341850e2:	f7ff f9d7 	bl	34184494 <HAL_RCCEx_GetPLL3CLKFreq>
            i2c_frequency = i2c_frequency / ic_divider;
341850e6:	fbb0 f0f4 	udiv	r0, r0, r4
            break;
341850ea:	e741      	b.n	34184f70 <RCCEx_GetI2CCLKFreq+0x48>
        switch (LL_RCC_IC15_GetSource())
341850ec:	2000      	movs	r0, #0
341850ee:	e73f      	b.n	34184f70 <RCCEx_GetI2CCLKFreq+0x48>
341850f0:	f1b3 5f40 	cmp.w	r3, #805306368	@ 0x30000000
341850f4:	d104      	bne.n	34185100 <RCCEx_GetI2CCLKFreq+0x1d8>
            i2c_frequency = HAL_RCCEx_GetPLL4CLKFreq();
341850f6:	f7ff fa15 	bl	34184524 <HAL_RCCEx_GetPLL4CLKFreq>
            i2c_frequency = i2c_frequency / ic_divider;
341850fa:	fbb0 f0f4 	udiv	r0, r0, r4
            break;
341850fe:	e737      	b.n	34184f70 <RCCEx_GetI2CCLKFreq+0x48>
        switch (LL_RCC_IC15_GetSource())
34185100:	2000      	movs	r0, #0
34185102:	e735      	b.n	34184f70 <RCCEx_GetI2CCLKFreq+0x48>
            i2c_frequency = HAL_RCCEx_GetPLL1CLKFreq();
34185104:	f7ff f936 	bl	34184374 <HAL_RCCEx_GetPLL1CLKFreq>
            i2c_frequency = i2c_frequency / ic_divider;
34185108:	fbb0 f0f4 	udiv	r0, r0, r4
            break;
3418510c:	e730      	b.n	34184f70 <RCCEx_GetI2CCLKFreq+0x48>
            i2c_frequency = HAL_RCCEx_GetPLL3CLKFreq();
3418510e:	f7ff f9c1 	bl	34184494 <HAL_RCCEx_GetPLL3CLKFreq>
            i2c_frequency = i2c_frequency / ic_divider;
34185112:	fbb0 f0f4 	udiv	r0, r0, r4
            break;
34185116:	e72b      	b.n	34184f70 <RCCEx_GetI2CCLKFreq+0x48>
34185118:	0703000c 	.word	0x0703000c
3418511c:	0701000c 	.word	0x0701000c
34185120:	0702040c 	.word	0x0702040c
34185124:	0702080c 	.word	0x0702080c
34185128:	56028000 	.word	0x56028000
3418512c:	0704080c 	.word	0x0704080c
34185130:	0705040c 	.word	0x0705040c
34185134:	0705080c 	.word	0x0705080c
34185138:	03d09000 	.word	0x03d09000
3418513c:	0704000c 	.word	0x0704000c
34185140:	003d0900 	.word	0x003d0900

34185144 <RCCEx_GetI3CCLKFreq>:
{
34185144:	b510      	push	{r4, lr}
  return LL_RCC_GetClockSource(Periph);
34185146:	f7fd fadf 	bl	34182708 <LL_RCC_GetClockSource>
  switch (LL_RCC_GetI3CClockSource(I3CxSource))
3418514a:	4b5d      	ldr	r3, [pc, #372]	@ (341852c0 <RCCEx_GetI3CCLKFreq+0x17c>)
3418514c:	4298      	cmp	r0, r3
3418514e:	f000 8084 	beq.w	3418525a <RCCEx_GetI3CCLKFreq+0x116>
34185152:	d83f      	bhi.n	341851d4 <RCCEx_GetI3CCLKFreq+0x90>
34185154:	f5a3 33fe 	sub.w	r3, r3, #130048	@ 0x1fc00
34185158:	4298      	cmp	r0, r3
3418515a:	d064      	beq.n	34185226 <RCCEx_GetI3CCLKFreq+0xe2>
3418515c:	d814      	bhi.n	34185188 <RCCEx_GetI3CCLKFreq+0x44>
3418515e:	f5a3 3380 	sub.w	r3, r3, #65536	@ 0x10000
34185162:	4298      	cmp	r0, r3
34185164:	d007      	beq.n	34185176 <RCCEx_GetI3CCLKFreq+0x32>
34185166:	f503 437c 	add.w	r3, r3, #64512	@ 0xfc00
3418516a:	4298      	cmp	r0, r3
3418516c:	d05b      	beq.n	34185226 <RCCEx_GetI3CCLKFreq+0xe2>
3418516e:	f5a3 3380 	sub.w	r3, r3, #65536	@ 0x10000
34185172:	4298      	cmp	r0, r3
34185174:	d106      	bne.n	34185184 <RCCEx_GetI3CCLKFreq+0x40>
      i3c_frequency = RCCEx_GetPCLK1Freq(RCCEx_GetHCLKFreq(HAL_RCC_GetSysClockFreq()));
34185176:	f7fd fa5d 	bl	34182634 <HAL_RCC_GetSysClockFreq>
3418517a:	f7fd fad3 	bl	34182724 <RCCEx_GetHCLKFreq>
3418517e:	f7fd fad9 	bl	34182734 <RCCEx_GetPCLK1Freq>
}
34185182:	bd10      	pop	{r4, pc}
  switch (LL_RCC_GetI3CClockSource(I3CxSource))
34185184:	2000      	movs	r0, #0
34185186:	e7fc      	b.n	34185182 <RCCEx_GetI3CCLKFreq+0x3e>
34185188:	4b4e      	ldr	r3, [pc, #312]	@ (341852c4 <RCCEx_GetI3CCLKFreq+0x180>)
3418518a:	4298      	cmp	r0, r3
3418518c:	d003      	beq.n	34185196 <RCCEx_GetI3CCLKFreq+0x52>
3418518e:	f503 6380 	add.w	r3, r3, #1024	@ 0x400
34185192:	4298      	cmp	r0, r3
34185194:	d11c      	bne.n	341851d0 <RCCEx_GetI3CCLKFreq+0x8c>
  return ((READ_BIT(RCC->DIVENR, RCC_DIVENR_IC10EN) == RCC_DIVENR_IC10EN) ? 1UL : 0UL);
34185196:	4b4c      	ldr	r3, [pc, #304]	@ (341852c8 <RCCEx_GetI3CCLKFreq+0x184>)
34185198:	f8d3 0240 	ldr.w	r0, [r3, #576]	@ 0x240
3418519c:	f410 7000 	ands.w	r0, r0, #512	@ 0x200
341851a0:	d0ef      	beq.n	34185182 <RCCEx_GetI3CCLKFreq+0x3e>
  return ((READ_BIT(RCC->IC10CFGR, RCC_IC10CFGR_IC10INT) >> RCC_IC10CFGR_IC10INT_Pos) + 1UL);
341851a2:	f8d3 00e8 	ldr.w	r0, [r3, #232]	@ 0xe8
341851a6:	f3c0 4007 	ubfx	r0, r0, #16, #8
341851aa:	1c44      	adds	r4, r0, #1
  return (uint32_t)(READ_BIT(RCC->IC10CFGR, RCC_IC10CFGR_IC10SEL));
341851ac:	f8d3 30e8 	ldr.w	r3, [r3, #232]	@ 0xe8
341851b0:	f003 5340 	and.w	r3, r3, #805306368	@ 0x30000000
        switch (LL_RCC_IC10_GetSource())
341851b4:	f1b3 5f00 	cmp.w	r3, #536870912	@ 0x20000000
341851b8:	d04a      	beq.n	34185250 <RCCEx_GetI3CCLKFreq+0x10c>
341851ba:	d83a      	bhi.n	34185232 <RCCEx_GetI3CCLKFreq+0xee>
341851bc:	2b00      	cmp	r3, #0
341851be:	d042      	beq.n	34185246 <RCCEx_GetI3CCLKFreq+0x102>
341851c0:	f1b3 5f80 	cmp.w	r3, #268435456	@ 0x10000000
341851c4:	d133      	bne.n	3418522e <RCCEx_GetI3CCLKFreq+0xea>
            i3c_frequency = HAL_RCCEx_GetPLL2CLKFreq();
341851c6:	f7ff f91d 	bl	34184404 <HAL_RCCEx_GetPLL2CLKFreq>
            i3c_frequency = i3c_frequency / ic_divider;
341851ca:	fbb0 f0f4 	udiv	r0, r0, r4
            break;
341851ce:	e7d8      	b.n	34185182 <RCCEx_GetI3CCLKFreq+0x3e>
  switch (LL_RCC_GetI3CClockSource(I3CxSource))
341851d0:	2000      	movs	r0, #0
341851d2:	e7d6      	b.n	34185182 <RCCEx_GetI3CCLKFreq+0x3e>
341851d4:	4b3d      	ldr	r3, [pc, #244]	@ (341852cc <RCCEx_GetI3CCLKFreq+0x188>)
341851d6:	4298      	cmp	r0, r3
341851d8:	d01a      	beq.n	34185210 <RCCEx_GetI3CCLKFreq+0xcc>
341851da:	d911      	bls.n	34185200 <RCCEx_GetI3CCLKFreq+0xbc>
341851dc:	4b3c      	ldr	r3, [pc, #240]	@ (341852d0 <RCCEx_GetI3CCLKFreq+0x18c>)
341851de:	4298      	cmp	r0, r3
341851e0:	d003      	beq.n	341851ea <RCCEx_GetI3CCLKFreq+0xa6>
341851e2:	f503 6380 	add.w	r3, r3, #1024	@ 0x400
341851e6:	4298      	cmp	r0, r3
341851e8:	d11b      	bne.n	34185222 <RCCEx_GetI3CCLKFreq+0xde>
  return ((READ_BIT(RCC->SR, RCC_SR_HSIRDY) != 0UL) ? 1UL : 0UL);
341851ea:	4b37      	ldr	r3, [pc, #220]	@ (341852c8 <RCCEx_GetI3CCLKFreq+0x184>)
341851ec:	6858      	ldr	r0, [r3, #4]
341851ee:	f010 0008 	ands.w	r0, r0, #8
341851f2:	d0c6      	beq.n	34185182 <RCCEx_GetI3CCLKFreq+0x3e>
  return (READ_BIT(RCC->HSICFGR, RCC_HSICFGR_HSIDIV));
341851f4:	6c9b      	ldr	r3, [r3, #72]	@ 0x48
        i3c_frequency = HSI_VALUE >> (LL_RCC_HSI_GetDivider() >> RCC_HSICFGR_HSIDIV_Pos);
341851f6:	f3c3 13c1 	ubfx	r3, r3, #7, #2
341851fa:	4836      	ldr	r0, [pc, #216]	@ (341852d4 <RCCEx_GetI3CCLKFreq+0x190>)
341851fc:	40d8      	lsrs	r0, r3
341851fe:	e7c0      	b.n	34185182 <RCCEx_GetI3CCLKFreq+0x3e>
  switch (LL_RCC_GetI3CClockSource(I3CxSource))
34185200:	f5a3 3380 	sub.w	r3, r3, #65536	@ 0x10000
34185204:	4298      	cmp	r0, r3
34185206:	d028      	beq.n	3418525a <RCCEx_GetI3CCLKFreq+0x116>
34185208:	f503 437c 	add.w	r3, r3, #64512	@ 0xfc00
3418520c:	4298      	cmp	r0, r3
3418520e:	d106      	bne.n	3418521e <RCCEx_GetI3CCLKFreq+0xda>
  return ((READ_BIT(RCC->SR, RCC_SR_MSIRDY) != 0UL) ? 1UL : 0UL);
34185210:	4b2d      	ldr	r3, [pc, #180]	@ (341852c8 <RCCEx_GetI3CCLKFreq+0x184>)
34185212:	6858      	ldr	r0, [r3, #4]
34185214:	f010 0004 	ands.w	r0, r0, #4
34185218:	d0b3      	beq.n	34185182 <RCCEx_GetI3CCLKFreq+0x3e>
        i3c_frequency = MSI_VALUE;
3418521a:	482f      	ldr	r0, [pc, #188]	@ (341852d8 <RCCEx_GetI3CCLKFreq+0x194>)
  return i3c_frequency;
3418521c:	e7b1      	b.n	34185182 <RCCEx_GetI3CCLKFreq+0x3e>
  switch (LL_RCC_GetI3CClockSource(I3CxSource))
3418521e:	2000      	movs	r0, #0
34185220:	e7af      	b.n	34185182 <RCCEx_GetI3CCLKFreq+0x3e>
34185222:	2000      	movs	r0, #0
34185224:	e7ad      	b.n	34185182 <RCCEx_GetI3CCLKFreq+0x3e>
      i3c_frequency = RCCEx_GetCLKPCLKFreq(LL_RCC_CLKP_CLKSOURCE);
34185226:	2007      	movs	r0, #7
34185228:	f7ff f9fa 	bl	34184620 <RCCEx_GetCLKPCLKFreq>
      break;
3418522c:	e7a9      	b.n	34185182 <RCCEx_GetI3CCLKFreq+0x3e>
        switch (LL_RCC_IC10_GetSource())
3418522e:	2000      	movs	r0, #0
34185230:	e7a7      	b.n	34185182 <RCCEx_GetI3CCLKFreq+0x3e>
34185232:	f1b3 5f40 	cmp.w	r3, #805306368	@ 0x30000000
34185236:	d104      	bne.n	34185242 <RCCEx_GetI3CCLKFreq+0xfe>
            i3c_frequency = HAL_RCCEx_GetPLL4CLKFreq();
34185238:	f7ff f974 	bl	34184524 <HAL_RCCEx_GetPLL4CLKFreq>
            i3c_frequency = i3c_frequency / ic_divider;
3418523c:	fbb0 f0f4 	udiv	r0, r0, r4
            break;
34185240:	e79f      	b.n	34185182 <RCCEx_GetI3CCLKFreq+0x3e>
        switch (LL_RCC_IC10_GetSource())
34185242:	2000      	movs	r0, #0
34185244:	e79d      	b.n	34185182 <RCCEx_GetI3CCLKFreq+0x3e>
            i3c_frequency = HAL_RCCEx_GetPLL1CLKFreq();
34185246:	f7ff f895 	bl	34184374 <HAL_RCCEx_GetPLL1CLKFreq>
            i3c_frequency = i3c_frequency / ic_divider;
3418524a:	fbb0 f0f4 	udiv	r0, r0, r4
            break;
3418524e:	e798      	b.n	34185182 <RCCEx_GetI3CCLKFreq+0x3e>
            i3c_frequency = HAL_RCCEx_GetPLL3CLKFreq();
34185250:	f7ff f920 	bl	34184494 <HAL_RCCEx_GetPLL3CLKFreq>
            i3c_frequency = i3c_frequency / ic_divider;
34185254:	fbb0 f0f4 	udiv	r0, r0, r4
            break;
34185258:	e793      	b.n	34185182 <RCCEx_GetI3CCLKFreq+0x3e>
  return ((READ_BIT(RCC->DIVENR, RCC_DIVENR_IC15EN) == RCC_DIVENR_IC15EN) ? 1UL : 0UL);
3418525a:	4b1b      	ldr	r3, [pc, #108]	@ (341852c8 <RCCEx_GetI3CCLKFreq+0x184>)
3418525c:	f8d3 0240 	ldr.w	r0, [r3, #576]	@ 0x240
34185260:	f410 4080 	ands.w	r0, r0, #16384	@ 0x4000
34185264:	d08d      	beq.n	34185182 <RCCEx_GetI3CCLKFreq+0x3e>
  return ((READ_BIT(RCC->IC15CFGR, RCC_IC15CFGR_IC15INT) >> RCC_IC15CFGR_IC15INT_Pos) + 1UL);
34185266:	f8d3 00fc 	ldr.w	r0, [r3, #252]	@ 0xfc
3418526a:	f3c0 4007 	ubfx	r0, r0, #16, #8
3418526e:	1c44      	adds	r4, r0, #1
  return (uint32_t)(READ_BIT(RCC->IC15CFGR, RCC_IC15CFGR_IC15SEL));
34185270:	f8d3 30fc 	ldr.w	r3, [r3, #252]	@ 0xfc
34185274:	f003 5340 	and.w	r3, r3, #805306368	@ 0x30000000
        switch (LL_RCC_IC15_GetSource())
34185278:	f1b3 5f00 	cmp.w	r3, #536870912	@ 0x20000000
3418527c:	d01a      	beq.n	341852b4 <RCCEx_GetI3CCLKFreq+0x170>
3418527e:	d80a      	bhi.n	34185296 <RCCEx_GetI3CCLKFreq+0x152>
34185280:	b19b      	cbz	r3, 341852aa <RCCEx_GetI3CCLKFreq+0x166>
34185282:	f1b3 5f80 	cmp.w	r3, #268435456	@ 0x10000000
34185286:	d104      	bne.n	34185292 <RCCEx_GetI3CCLKFreq+0x14e>
            i3c_frequency = HAL_RCCEx_GetPLL2CLKFreq();
34185288:	f7ff f8bc 	bl	34184404 <HAL_RCCEx_GetPLL2CLKFreq>
            i3c_frequency = i3c_frequency / ic_divider;
3418528c:	fbb0 f0f4 	udiv	r0, r0, r4
            break;
34185290:	e777      	b.n	34185182 <RCCEx_GetI3CCLKFreq+0x3e>
        switch (LL_RCC_IC15_GetSource())
34185292:	2000      	movs	r0, #0
34185294:	e775      	b.n	34185182 <RCCEx_GetI3CCLKFreq+0x3e>
34185296:	f1b3 5f40 	cmp.w	r3, #805306368	@ 0x30000000
3418529a:	d104      	bne.n	341852a6 <RCCEx_GetI3CCLKFreq+0x162>
            i3c_frequency = HAL_RCCEx_GetPLL4CLKFreq();
3418529c:	f7ff f942 	bl	34184524 <HAL_RCCEx_GetPLL4CLKFreq>
            i3c_frequency = i3c_frequency / ic_divider;
341852a0:	fbb0 f0f4 	udiv	r0, r0, r4
            break;
341852a4:	e76d      	b.n	34185182 <RCCEx_GetI3CCLKFreq+0x3e>
        switch (LL_RCC_IC15_GetSource())
341852a6:	2000      	movs	r0, #0
341852a8:	e76b      	b.n	34185182 <RCCEx_GetI3CCLKFreq+0x3e>
            i3c_frequency = HAL_RCCEx_GetPLL1CLKFreq();
341852aa:	f7ff f863 	bl	34184374 <HAL_RCCEx_GetPLL1CLKFreq>
            i3c_frequency = i3c_frequency / ic_divider;
341852ae:	fbb0 f0f4 	udiv	r0, r0, r4
            break;
341852b2:	e766      	b.n	34185182 <RCCEx_GetI3CCLKFreq+0x3e>
            i3c_frequency = HAL_RCCEx_GetPLL3CLKFreq();
341852b4:	f7ff f8ee 	bl	34184494 <HAL_RCCEx_GetPLL3CLKFreq>
            i3c_frequency = i3c_frequency / ic_divider;
341852b8:	fbb0 f0f4 	udiv	r0, r0, r4
            break;
341852bc:	e761      	b.n	34185182 <RCCEx_GetI3CCLKFreq+0x3e>
341852be:	bf00      	nop
341852c0:	0703100c 	.word	0x0703100c
341852c4:	0702100c 	.word	0x0702100c
341852c8:	56028000 	.word	0x56028000
341852cc:	0704140c 	.word	0x0704140c
341852d0:	0705100c 	.word	0x0705100c
341852d4:	03d09000 	.word	0x03d09000
341852d8:	003d0900 	.word	0x003d0900

341852dc <RCCEx_GetLPTIMCLKFreq>:
{
341852dc:	b510      	push	{r4, lr}
  return LL_RCC_GetClockSource(Periph);
341852de:	f7fd fa13 	bl	34182708 <LL_RCC_GetClockSource>
  switch (LL_RCC_GetLPTIMClockSource(LPTIMxSource))
341852e2:	4b76      	ldr	r3, [pc, #472]	@ (341854bc <RCCEx_GetLPTIMCLKFreq+0x1e0>)
341852e4:	4298      	cmp	r0, r3
341852e6:	d062      	beq.n	341853ae <RCCEx_GetLPTIMCLKFreq+0xd2>
341852e8:	d84b      	bhi.n	34185382 <RCCEx_GetLPTIMCLKFreq+0xa6>
341852ea:	f5a3 33fe 	sub.w	r3, r3, #130048	@ 0x1fc00
341852ee:	4298      	cmp	r0, r3
341852f0:	d029      	beq.n	34185346 <RCCEx_GetLPTIMCLKFreq+0x6a>
341852f2:	d913      	bls.n	3418531c <RCCEx_GetLPTIMCLKFreq+0x40>
341852f4:	4b72      	ldr	r3, [pc, #456]	@ (341854c0 <RCCEx_GetLPTIMCLKFreq+0x1e4>)
341852f6:	4298      	cmp	r0, r3
341852f8:	d00c      	beq.n	34185314 <RCCEx_GetLPTIMCLKFreq+0x38>
341852fa:	d92d      	bls.n	34185358 <RCCEx_GetLPTIMCLKFreq+0x7c>
341852fc:	4b71      	ldr	r3, [pc, #452]	@ (341854c4 <RCCEx_GetLPTIMCLKFreq+0x1e8>)
341852fe:	4298      	cmp	r0, r3
34185300:	d055      	beq.n	341853ae <RCCEx_GetLPTIMCLKFreq+0xd2>
34185302:	d839      	bhi.n	34185378 <RCCEx_GetLPTIMCLKFreq+0x9c>
34185304:	f5a3 4374 	sub.w	r3, r3, #62464	@ 0xf400
34185308:	4298      	cmp	r0, r3
3418530a:	d003      	beq.n	34185314 <RCCEx_GetLPTIMCLKFreq+0x38>
3418530c:	f503 6380 	add.w	r3, r3, #1024	@ 0x400
34185310:	4298      	cmp	r0, r3
34185312:	d12f      	bne.n	34185374 <RCCEx_GetLPTIMCLKFreq+0x98>
      lptim_frequency = RCCEx_GetCLKPCLKFreq(LL_RCC_CLKP_CLKSOURCE);
34185314:	2007      	movs	r0, #7
34185316:	f7ff f983 	bl	34184620 <RCCEx_GetCLKPCLKFreq>
      break;
3418531a:	e009      	b.n	34185330 <RCCEx_GetLPTIMCLKFreq+0x54>
  switch (LL_RCC_GetLPTIMClockSource(LPTIMxSource))
3418531c:	f5a3 6340 	sub.w	r3, r3, #3072	@ 0xc00
34185320:	4298      	cmp	r0, r3
34185322:	d106      	bne.n	34185332 <RCCEx_GetLPTIMCLKFreq+0x56>
      lptim_frequency = RCCEx_GetPCLK1Freq(RCCEx_GetHCLKFreq(HAL_RCC_GetSysClockFreq()));
34185324:	f7fd f986 	bl	34182634 <HAL_RCC_GetSysClockFreq>
34185328:	f7fd f9fc 	bl	34182724 <RCCEx_GetHCLKFreq>
3418532c:	f7fd fa02 	bl	34182734 <RCCEx_GetPCLK1Freq>
}
34185330:	bd10      	pop	{r4, pc}
  switch (LL_RCC_GetLPTIMClockSource(LPTIMxSource))
34185332:	f0c0 80c1 	bcc.w	341854b8 <RCCEx_GetLPTIMCLKFreq+0x1dc>
34185336:	f503 6380 	add.w	r3, r3, #1024	@ 0x400
3418533a:	4298      	cmp	r0, r3
3418533c:	d003      	beq.n	34185346 <RCCEx_GetLPTIMCLKFreq+0x6a>
3418533e:	f503 6380 	add.w	r3, r3, #1024	@ 0x400
34185342:	4298      	cmp	r0, r3
34185344:	d106      	bne.n	34185354 <RCCEx_GetLPTIMCLKFreq+0x78>
      lptim_frequency = RCCEx_GetPCLK4Freq(RCCEx_GetHCLKFreq(HAL_RCC_GetSysClockFreq()));
34185346:	f7fd f975 	bl	34182634 <HAL_RCC_GetSysClockFreq>
3418534a:	f7fd f9eb 	bl	34182724 <RCCEx_GetHCLKFreq>
3418534e:	f7fd fa01 	bl	34182754 <RCCEx_GetPCLK4Freq>
      break;
34185352:	e7ed      	b.n	34185330 <RCCEx_GetLPTIMCLKFreq+0x54>
  switch (LL_RCC_GetLPTIMClockSource(LPTIMxSource))
34185354:	2000      	movs	r0, #0
34185356:	e7eb      	b.n	34185330 <RCCEx_GetLPTIMCLKFreq+0x54>
34185358:	f5a3 6300 	sub.w	r3, r3, #2048	@ 0x800
3418535c:	4298      	cmp	r0, r3
3418535e:	d0d9      	beq.n	34185314 <RCCEx_GetLPTIMCLKFreq+0x38>
34185360:	f503 6380 	add.w	r3, r3, #1024	@ 0x400
34185364:	4298      	cmp	r0, r3
34185366:	d0d5      	beq.n	34185314 <RCCEx_GetLPTIMCLKFreq+0x38>
34185368:	f5a3 4374 	sub.w	r3, r3, #62464	@ 0xf400
3418536c:	4298      	cmp	r0, r3
3418536e:	d0ea      	beq.n	34185346 <RCCEx_GetLPTIMCLKFreq+0x6a>
34185370:	2000      	movs	r0, #0
34185372:	e7dd      	b.n	34185330 <RCCEx_GetLPTIMCLKFreq+0x54>
34185374:	2000      	movs	r0, #0
34185376:	e7db      	b.n	34185330 <RCCEx_GetLPTIMCLKFreq+0x54>
34185378:	4b53      	ldr	r3, [pc, #332]	@ (341854c8 <RCCEx_GetLPTIMCLKFreq+0x1ec>)
3418537a:	4298      	cmp	r0, r3
3418537c:	d017      	beq.n	341853ae <RCCEx_GetLPTIMCLKFreq+0xd2>
3418537e:	2000      	movs	r0, #0
34185380:	e7d6      	b.n	34185330 <RCCEx_GetLPTIMCLKFreq+0x54>
34185382:	4b52      	ldr	r3, [pc, #328]	@ (341854cc <RCCEx_GetLPTIMCLKFreq+0x1f0>)
34185384:	4298      	cmp	r0, r3
34185386:	d05c      	beq.n	34185442 <RCCEx_GetLPTIMCLKFreq+0x166>
34185388:	d84a      	bhi.n	34185420 <RCCEx_GetLPTIMCLKFreq+0x144>
3418538a:	f5a3 437c 	sub.w	r3, r3, #64512	@ 0xfc00
3418538e:	4298      	cmp	r0, r3
34185390:	d02f      	beq.n	341853f2 <RCCEx_GetLPTIMCLKFreq+0x116>
34185392:	d838      	bhi.n	34185406 <RCCEx_GetLPTIMCLKFreq+0x12a>
34185394:	f5a3 6300 	sub.w	r3, r3, #2048	@ 0x800
34185398:	4298      	cmp	r0, r3
3418539a:	d02a      	beq.n	341853f2 <RCCEx_GetLPTIMCLKFreq+0x116>
3418539c:	d826      	bhi.n	341853ec <RCCEx_GetLPTIMCLKFreq+0x110>
3418539e:	f5a3 4374 	sub.w	r3, r3, #62464	@ 0xf400
341853a2:	4298      	cmp	r0, r3
341853a4:	d003      	beq.n	341853ae <RCCEx_GetLPTIMCLKFreq+0xd2>
341853a6:	f503 6380 	add.w	r3, r3, #1024	@ 0x400
341853aa:	4298      	cmp	r0, r3
341853ac:	d11c      	bne.n	341853e8 <RCCEx_GetLPTIMCLKFreq+0x10c>
  return ((READ_BIT(RCC->DIVENR, RCC_DIVENR_IC15EN) == RCC_DIVENR_IC15EN) ? 1UL : 0UL);
341853ae:	4b48      	ldr	r3, [pc, #288]	@ (341854d0 <RCCEx_GetLPTIMCLKFreq+0x1f4>)
341853b0:	f8d3 0240 	ldr.w	r0, [r3, #576]	@ 0x240
341853b4:	f410 4080 	ands.w	r0, r0, #16384	@ 0x4000
341853b8:	d0ba      	beq.n	34185330 <RCCEx_GetLPTIMCLKFreq+0x54>
  return ((READ_BIT(RCC->IC15CFGR, RCC_IC15CFGR_IC15INT) >> RCC_IC15CFGR_IC15INT_Pos) + 1UL);
341853ba:	f8d3 00fc 	ldr.w	r0, [r3, #252]	@ 0xfc
341853be:	f3c0 4007 	ubfx	r0, r0, #16, #8
341853c2:	1c44      	adds	r4, r0, #1
  return (uint32_t)(READ_BIT(RCC->IC15CFGR, RCC_IC15CFGR_IC15SEL));
341853c4:	f8d3 30fc 	ldr.w	r3, [r3, #252]	@ 0xfc
341853c8:	f003 5340 	and.w	r3, r3, #805306368	@ 0x30000000
        switch (LL_RCC_IC15_GetSource())
341853cc:	f1b3 5f00 	cmp.w	r3, #536870912	@ 0x20000000
341853d0:	d06d      	beq.n	341854ae <RCCEx_GetLPTIMCLKFreq+0x1d2>
341853d2:	d85d      	bhi.n	34185490 <RCCEx_GetLPTIMCLKFreq+0x1b4>
341853d4:	2b00      	cmp	r3, #0
341853d6:	d065      	beq.n	341854a4 <RCCEx_GetLPTIMCLKFreq+0x1c8>
341853d8:	f1b3 5f80 	cmp.w	r3, #268435456	@ 0x10000000
341853dc:	d156      	bne.n	3418548c <RCCEx_GetLPTIMCLKFreq+0x1b0>
            lptim_frequency = HAL_RCCEx_GetPLL2CLKFreq();
341853de:	f7ff f811 	bl	34184404 <HAL_RCCEx_GetPLL2CLKFreq>
            lptim_frequency = lptim_frequency / ic_divider;
341853e2:	fbb0 f0f4 	udiv	r0, r0, r4
            break;
341853e6:	e7a3      	b.n	34185330 <RCCEx_GetLPTIMCLKFreq+0x54>
  switch (LL_RCC_GetLPTIMClockSource(LPTIMxSource))
341853e8:	2000      	movs	r0, #0
341853ea:	e7a1      	b.n	34185330 <RCCEx_GetLPTIMCLKFreq+0x54>
341853ec:	4b39      	ldr	r3, [pc, #228]	@ (341854d4 <RCCEx_GetLPTIMCLKFreq+0x1f8>)
341853ee:	4298      	cmp	r0, r3
341853f0:	d107      	bne.n	34185402 <RCCEx_GetLPTIMCLKFreq+0x126>
  return ((READ_BIT(RCC->SR, RCC_SR_LSERDY) != 0UL) ? 1UL : 0UL);
341853f2:	4b37      	ldr	r3, [pc, #220]	@ (341854d0 <RCCEx_GetLPTIMCLKFreq+0x1f4>)
341853f4:	6858      	ldr	r0, [r3, #4]
341853f6:	f010 0002 	ands.w	r0, r0, #2
341853fa:	d099      	beq.n	34185330 <RCCEx_GetLPTIMCLKFreq+0x54>
        lptim_frequency = LSE_VALUE;
341853fc:	f44f 4000 	mov.w	r0, #32768	@ 0x8000
34185400:	e796      	b.n	34185330 <RCCEx_GetLPTIMCLKFreq+0x54>
  switch (LL_RCC_GetLPTIMClockSource(LPTIMxSource))
34185402:	2000      	movs	r0, #0
34185404:	e794      	b.n	34185330 <RCCEx_GetLPTIMCLKFreq+0x54>
34185406:	4b34      	ldr	r3, [pc, #208]	@ (341854d8 <RCCEx_GetLPTIMCLKFreq+0x1fc>)
34185408:	4298      	cmp	r0, r3
3418540a:	d0f2      	beq.n	341853f2 <RCCEx_GetLPTIMCLKFreq+0x116>
3418540c:	f503 4370 	add.w	r3, r3, #61440	@ 0xf000
34185410:	4298      	cmp	r0, r3
34185412:	d016      	beq.n	34185442 <RCCEx_GetLPTIMCLKFreq+0x166>
34185414:	f5a3 4374 	sub.w	r3, r3, #62464	@ 0xf400
34185418:	4298      	cmp	r0, r3
3418541a:	d0ea      	beq.n	341853f2 <RCCEx_GetLPTIMCLKFreq+0x116>
3418541c:	2000      	movs	r0, #0
3418541e:	e787      	b.n	34185330 <RCCEx_GetLPTIMCLKFreq+0x54>
34185420:	4b2e      	ldr	r3, [pc, #184]	@ (341854dc <RCCEx_GetLPTIMCLKFreq+0x200>)
34185422:	4298      	cmp	r0, r3
34185424:	d01b      	beq.n	3418545e <RCCEx_GetLPTIMCLKFreq+0x182>
34185426:	d824      	bhi.n	34185472 <RCCEx_GetLPTIMCLKFreq+0x196>
34185428:	f5a3 4374 	sub.w	r3, r3, #62464	@ 0xf400
3418542c:	4298      	cmp	r0, r3
3418542e:	d008      	beq.n	34185442 <RCCEx_GetLPTIMCLKFreq+0x166>
34185430:	d812      	bhi.n	34185458 <RCCEx_GetLPTIMCLKFreq+0x17c>
34185432:	f5a3 6300 	sub.w	r3, r3, #2048	@ 0x800
34185436:	4298      	cmp	r0, r3
34185438:	d003      	beq.n	34185442 <RCCEx_GetLPTIMCLKFreq+0x166>
3418543a:	f503 6380 	add.w	r3, r3, #1024	@ 0x400
3418543e:	4298      	cmp	r0, r3
34185440:	d108      	bne.n	34185454 <RCCEx_GetLPTIMCLKFreq+0x178>
  return ((READ_BIT(RCC->SR, RCC_SR_LSIRDY) != 0UL) ? 1UL : 0UL);
34185442:	4b23      	ldr	r3, [pc, #140]	@ (341854d0 <RCCEx_GetLPTIMCLKFreq+0x1f4>)
34185444:	6858      	ldr	r0, [r3, #4]
      if (LL_RCC_LSI_IsReady() != 0U)
34185446:	f010 0001 	ands.w	r0, r0, #1
3418544a:	f43f af71 	beq.w	34185330 <RCCEx_GetLPTIMCLKFreq+0x54>
        lptim_frequency = LSI_VALUE;
3418544e:	f44f 40fa 	mov.w	r0, #32000	@ 0x7d00
  return lptim_frequency;
34185452:	e76d      	b.n	34185330 <RCCEx_GetLPTIMCLKFreq+0x54>
  switch (LL_RCC_GetLPTIMClockSource(LPTIMxSource))
34185454:	2000      	movs	r0, #0
34185456:	e76b      	b.n	34185330 <RCCEx_GetLPTIMCLKFreq+0x54>
34185458:	4b21      	ldr	r3, [pc, #132]	@ (341854e0 <RCCEx_GetLPTIMCLKFreq+0x204>)
3418545a:	4298      	cmp	r0, r3
3418545c:	d107      	bne.n	3418546e <RCCEx_GetLPTIMCLKFreq+0x192>
      lptim_frequency = LL_RCC_CALC_TIMG_FREQ(HAL_RCC_GetSysClockFreq(), LL_RCC_GetTIMPrescaler());
3418545e:	f7fd f8e9 	bl	34182634 <HAL_RCC_GetSysClockFreq>
  return (uint32_t)(READ_BIT(RCC->CFGR2, RCC_CFGR2_TIMPRE) >> RCC_CFGR2_TIMPRE_Pos);
34185462:	4b1b      	ldr	r3, [pc, #108]	@ (341854d0 <RCCEx_GetLPTIMCLKFreq+0x1f4>)
34185464:	6a5b      	ldr	r3, [r3, #36]	@ 0x24
34185466:	f3c3 6301 	ubfx	r3, r3, #24, #2
3418546a:	40d8      	lsrs	r0, r3
      break;
3418546c:	e760      	b.n	34185330 <RCCEx_GetLPTIMCLKFreq+0x54>
  switch (LL_RCC_GetLPTIMClockSource(LPTIMxSource))
3418546e:	2000      	movs	r0, #0
34185470:	e75e      	b.n	34185330 <RCCEx_GetLPTIMCLKFreq+0x54>
34185472:	4b1c      	ldr	r3, [pc, #112]	@ (341854e4 <RCCEx_GetLPTIMCLKFreq+0x208>)
34185474:	4298      	cmp	r0, r3
34185476:	d0f2      	beq.n	3418545e <RCCEx_GetLPTIMCLKFreq+0x182>
34185478:	f503 6380 	add.w	r3, r3, #1024	@ 0x400
3418547c:	4298      	cmp	r0, r3
3418547e:	d0ee      	beq.n	3418545e <RCCEx_GetLPTIMCLKFreq+0x182>
34185480:	f5a3 6300 	sub.w	r3, r3, #2048	@ 0x800
34185484:	4298      	cmp	r0, r3
34185486:	d0ea      	beq.n	3418545e <RCCEx_GetLPTIMCLKFreq+0x182>
34185488:	2000      	movs	r0, #0
3418548a:	e751      	b.n	34185330 <RCCEx_GetLPTIMCLKFreq+0x54>
        switch (LL_RCC_IC15_GetSource())
3418548c:	2000      	movs	r0, #0
3418548e:	e74f      	b.n	34185330 <RCCEx_GetLPTIMCLKFreq+0x54>
34185490:	f1b3 5f40 	cmp.w	r3, #805306368	@ 0x30000000
34185494:	d104      	bne.n	341854a0 <RCCEx_GetLPTIMCLKFreq+0x1c4>
            lptim_frequency = HAL_RCCEx_GetPLL4CLKFreq();
34185496:	f7ff f845 	bl	34184524 <HAL_RCCEx_GetPLL4CLKFreq>
            lptim_frequency = lptim_frequency / ic_divider;
3418549a:	fbb0 f0f4 	udiv	r0, r0, r4
            break;
3418549e:	e747      	b.n	34185330 <RCCEx_GetLPTIMCLKFreq+0x54>
        switch (LL_RCC_IC15_GetSource())
341854a0:	2000      	movs	r0, #0
341854a2:	e745      	b.n	34185330 <RCCEx_GetLPTIMCLKFreq+0x54>
            lptim_frequency = HAL_RCCEx_GetPLL1CLKFreq();
341854a4:	f7fe ff66 	bl	34184374 <HAL_RCCEx_GetPLL1CLKFreq>
            lptim_frequency = lptim_frequency / ic_divider;
341854a8:	fbb0 f0f4 	udiv	r0, r0, r4
            break;
341854ac:	e740      	b.n	34185330 <RCCEx_GetLPTIMCLKFreq+0x54>
            lptim_frequency = HAL_RCCEx_GetPLL3CLKFreq();
341854ae:	f7fe fff1 	bl	34184494 <HAL_RCCEx_GetPLL3CLKFreq>
            lptim_frequency = lptim_frequency / ic_divider;
341854b2:	fbb0 f0f4 	udiv	r0, r0, r4
            break;
341854b6:	e73b      	b.n	34185330 <RCCEx_GetLPTIMCLKFreq+0x54>
  switch (LL_RCC_GetLPTIMClockSource(LPTIMxSource))
341854b8:	2000      	movs	r0, #0
341854ba:	e739      	b.n	34185330 <RCCEx_GetLPTIMCLKFreq+0x54>
341854bc:	0702102c 	.word	0x0702102c
341854c0:	0701102c 	.word	0x0701102c
341854c4:	0702082c 	.word	0x0702082c
341854c8:	07020c2c 	.word	0x07020c2c
341854cc:	07040c2c 	.word	0x07040c2c
341854d0:	56028000 	.word	0x56028000
341854d4:	07030c2c 	.word	0x07030c2c
341854d8:	0703182c 	.word	0x0703182c
341854dc:	07050c2c 	.word	0x07050c2c
341854e0:	0705082c 	.word	0x0705082c
341854e4:	0705142c 	.word	0x0705142c

341854e8 <RCCEx_GetLPUARTCLKFreq>:
{
341854e8:	b510      	push	{r4, lr}
  return (uint32_t)(READ_BIT(RCC->CCIPR14, RCC_CCIPR14_LPUART1SEL));
341854ea:	4b54      	ldr	r3, [pc, #336]	@ (3418563c <RCCEx_GetLPUARTCLKFreq+0x154>)
341854ec:	f8d3 3178 	ldr.w	r3, [r3, #376]	@ 0x178
341854f0:	f403 63e0 	and.w	r3, r3, #1792	@ 0x700
  switch (LL_RCC_GetLPUARTClockSource(LPUARTxSource))
341854f4:	f5b3 7f40 	cmp.w	r3, #768	@ 0x300
341854f8:	d05a      	beq.n	341855b0 <RCCEx_GetLPUARTCLKFreq+0xc8>
341854fa:	d80f      	bhi.n	3418551c <RCCEx_GetLPUARTCLKFreq+0x34>
341854fc:	f5b3 7f80 	cmp.w	r3, #256	@ 0x100
34185500:	d020      	beq.n	34185544 <RCCEx_GetLPUARTCLKFreq+0x5c>
34185502:	f5b3 7f00 	cmp.w	r3, #512	@ 0x200
34185506:	d021      	beq.n	3418554c <RCCEx_GetLPUARTCLKFreq+0x64>
34185508:	b933      	cbnz	r3, 34185518 <RCCEx_GetLPUARTCLKFreq+0x30>
      lpuart_frequency = RCCEx_GetPCLK4Freq(RCCEx_GetHCLKFreq(HAL_RCC_GetSysClockFreq()));
3418550a:	f7fd f893 	bl	34182634 <HAL_RCC_GetSysClockFreq>
3418550e:	f7fd f909 	bl	34182724 <RCCEx_GetHCLKFreq>
34185512:	f7fd f91f 	bl	34182754 <RCCEx_GetPCLK4Freq>
}
34185516:	bd10      	pop	{r4, pc}
  switch (LL_RCC_GetLPUARTClockSource(LPUARTxSource))
34185518:	2000      	movs	r0, #0
3418551a:	e7fc      	b.n	34185516 <RCCEx_GetLPUARTCLKFreq+0x2e>
3418551c:	f5b3 6fa0 	cmp.w	r3, #1280	@ 0x500
34185520:	f000 8084 	beq.w	3418562c <RCCEx_GetLPUARTCLKFreq+0x144>
34185524:	f5b3 6fc0 	cmp.w	r3, #1536	@ 0x600
34185528:	d074      	beq.n	34185614 <RCCEx_GetLPUARTCLKFreq+0x12c>
3418552a:	f5b3 6f80 	cmp.w	r3, #1024	@ 0x400
3418552e:	d107      	bne.n	34185540 <RCCEx_GetLPUARTCLKFreq+0x58>
  return ((READ_BIT(RCC->SR, RCC_SR_LSERDY) != 0UL) ? 1UL : 0UL);
34185530:	4b42      	ldr	r3, [pc, #264]	@ (3418563c <RCCEx_GetLPUARTCLKFreq+0x154>)
34185532:	6858      	ldr	r0, [r3, #4]
34185534:	f010 0002 	ands.w	r0, r0, #2
34185538:	d0ed      	beq.n	34185516 <RCCEx_GetLPUARTCLKFreq+0x2e>
        lpuart_frequency = LSE_VALUE;
3418553a:	f44f 4000 	mov.w	r0, #32768	@ 0x8000
  return lpuart_frequency;
3418553e:	e7ea      	b.n	34185516 <RCCEx_GetLPUARTCLKFreq+0x2e>
  switch (LL_RCC_GetLPUARTClockSource(LPUARTxSource))
34185540:	2000      	movs	r0, #0
34185542:	e7e8      	b.n	34185516 <RCCEx_GetLPUARTCLKFreq+0x2e>
      lpuart_frequency = RCCEx_GetCLKPCLKFreq(LL_RCC_CLKP_CLKSOURCE);
34185544:	2007      	movs	r0, #7
34185546:	f7ff f86b 	bl	34184620 <RCCEx_GetCLKPCLKFreq>
      break;
3418554a:	e7e4      	b.n	34185516 <RCCEx_GetLPUARTCLKFreq+0x2e>
  return ((READ_BIT(RCC->DIVENR, RCC_DIVENR_IC9EN) == RCC_DIVENR_IC9EN) ? 1UL : 0UL);
3418554c:	4b3b      	ldr	r3, [pc, #236]	@ (3418563c <RCCEx_GetLPUARTCLKFreq+0x154>)
3418554e:	f8d3 0240 	ldr.w	r0, [r3, #576]	@ 0x240
34185552:	f410 7080 	ands.w	r0, r0, #256	@ 0x100
34185556:	d0de      	beq.n	34185516 <RCCEx_GetLPUARTCLKFreq+0x2e>
  return ((READ_BIT(RCC->IC9CFGR, RCC_IC9CFGR_IC9INT) >> RCC_IC9CFGR_IC9INT_Pos) + 1UL);
34185558:	f8d3 00e4 	ldr.w	r0, [r3, #228]	@ 0xe4
3418555c:	f3c0 4007 	ubfx	r0, r0, #16, #8
34185560:	1c44      	adds	r4, r0, #1
  return (uint32_t)(READ_BIT(RCC->IC9CFGR, RCC_IC9CFGR_IC9SEL));
34185562:	f8d3 30e4 	ldr.w	r3, [r3, #228]	@ 0xe4
34185566:	f003 5340 	and.w	r3, r3, #805306368	@ 0x30000000
        switch (LL_RCC_IC9_GetSource())
3418556a:	f1b3 5f00 	cmp.w	r3, #536870912	@ 0x20000000
3418556e:	d01a      	beq.n	341855a6 <RCCEx_GetLPUARTCLKFreq+0xbe>
34185570:	d80a      	bhi.n	34185588 <RCCEx_GetLPUARTCLKFreq+0xa0>
34185572:	b19b      	cbz	r3, 3418559c <RCCEx_GetLPUARTCLKFreq+0xb4>
34185574:	f1b3 5f80 	cmp.w	r3, #268435456	@ 0x10000000
34185578:	d104      	bne.n	34185584 <RCCEx_GetLPUARTCLKFreq+0x9c>
            lpuart_frequency = HAL_RCCEx_GetPLL2CLKFreq();
3418557a:	f7fe ff43 	bl	34184404 <HAL_RCCEx_GetPLL2CLKFreq>
            lpuart_frequency = lpuart_frequency / ic_divider;
3418557e:	fbb0 f0f4 	udiv	r0, r0, r4
            break;
34185582:	e7c8      	b.n	34185516 <RCCEx_GetLPUARTCLKFreq+0x2e>
        switch (LL_RCC_IC9_GetSource())
34185584:	2000      	movs	r0, #0
34185586:	e7c6      	b.n	34185516 <RCCEx_GetLPUARTCLKFreq+0x2e>
34185588:	f1b3 5f40 	cmp.w	r3, #805306368	@ 0x30000000
3418558c:	d104      	bne.n	34185598 <RCCEx_GetLPUARTCLKFreq+0xb0>
            lpuart_frequency = HAL_RCCEx_GetPLL4CLKFreq();
3418558e:	f7fe ffc9 	bl	34184524 <HAL_RCCEx_GetPLL4CLKFreq>
            lpuart_frequency = lpuart_frequency / ic_divider;
34185592:	fbb0 f0f4 	udiv	r0, r0, r4
            break;
34185596:	e7be      	b.n	34185516 <RCCEx_GetLPUARTCLKFreq+0x2e>
        switch (LL_RCC_IC9_GetSource())
34185598:	2000      	movs	r0, #0
3418559a:	e7bc      	b.n	34185516 <RCCEx_GetLPUARTCLKFreq+0x2e>
            lpuart_frequency = HAL_RCCEx_GetPLL1CLKFreq();
3418559c:	f7fe feea 	bl	34184374 <HAL_RCCEx_GetPLL1CLKFreq>
            lpuart_frequency = lpuart_frequency / ic_divider;
341855a0:	fbb0 f0f4 	udiv	r0, r0, r4
            break;
341855a4:	e7b7      	b.n	34185516 <RCCEx_GetLPUARTCLKFreq+0x2e>
            lpuart_frequency = HAL_RCCEx_GetPLL3CLKFreq();
341855a6:	f7fe ff75 	bl	34184494 <HAL_RCCEx_GetPLL3CLKFreq>
            lpuart_frequency = lpuart_frequency / ic_divider;
341855aa:	fbb0 f0f4 	udiv	r0, r0, r4
            break;
341855ae:	e7b2      	b.n	34185516 <RCCEx_GetLPUARTCLKFreq+0x2e>
  return ((READ_BIT(RCC->DIVENR, RCC_DIVENR_IC14EN) == RCC_DIVENR_IC14EN) ? 1UL : 0UL);
341855b0:	4b22      	ldr	r3, [pc, #136]	@ (3418563c <RCCEx_GetLPUARTCLKFreq+0x154>)
341855b2:	f8d3 0240 	ldr.w	r0, [r3, #576]	@ 0x240
341855b6:	f410 5000 	ands.w	r0, r0, #8192	@ 0x2000
341855ba:	d0ac      	beq.n	34185516 <RCCEx_GetLPUARTCLKFreq+0x2e>
  return ((READ_BIT(RCC->IC14CFGR, RCC_IC14CFGR_IC14INT) >> RCC_IC14CFGR_IC14INT_Pos) + 1UL);
341855bc:	f8d3 00f8 	ldr.w	r0, [r3, #248]	@ 0xf8
341855c0:	f3c0 4007 	ubfx	r0, r0, #16, #8
341855c4:	1c44      	adds	r4, r0, #1
  return (uint32_t)(READ_BIT(RCC->IC14CFGR, RCC_IC14CFGR_IC14SEL));
341855c6:	f8d3 30f8 	ldr.w	r3, [r3, #248]	@ 0xf8
341855ca:	f003 5340 	and.w	r3, r3, #805306368	@ 0x30000000
        switch (LL_RCC_IC14_GetSource())
341855ce:	f1b3 5f00 	cmp.w	r3, #536870912	@ 0x20000000
341855d2:	d01a      	beq.n	3418560a <RCCEx_GetLPUARTCLKFreq+0x122>
341855d4:	d80a      	bhi.n	341855ec <RCCEx_GetLPUARTCLKFreq+0x104>
341855d6:	b19b      	cbz	r3, 34185600 <RCCEx_GetLPUARTCLKFreq+0x118>
341855d8:	f1b3 5f80 	cmp.w	r3, #268435456	@ 0x10000000
341855dc:	d104      	bne.n	341855e8 <RCCEx_GetLPUARTCLKFreq+0x100>
            lpuart_frequency = HAL_RCCEx_GetPLL2CLKFreq();
341855de:	f7fe ff11 	bl	34184404 <HAL_RCCEx_GetPLL2CLKFreq>
            lpuart_frequency = lpuart_frequency / ic_divider;
341855e2:	fbb0 f0f4 	udiv	r0, r0, r4
            break;
341855e6:	e796      	b.n	34185516 <RCCEx_GetLPUARTCLKFreq+0x2e>
        switch (LL_RCC_IC14_GetSource())
341855e8:	2000      	movs	r0, #0
341855ea:	e794      	b.n	34185516 <RCCEx_GetLPUARTCLKFreq+0x2e>
341855ec:	f1b3 5f40 	cmp.w	r3, #805306368	@ 0x30000000
341855f0:	d104      	bne.n	341855fc <RCCEx_GetLPUARTCLKFreq+0x114>
            lpuart_frequency = HAL_RCCEx_GetPLL4CLKFreq();
341855f2:	f7fe ff97 	bl	34184524 <HAL_RCCEx_GetPLL4CLKFreq>
            lpuart_frequency = lpuart_frequency / ic_divider;
341855f6:	fbb0 f0f4 	udiv	r0, r0, r4
            break;
341855fa:	e78c      	b.n	34185516 <RCCEx_GetLPUARTCLKFreq+0x2e>
        switch (LL_RCC_IC14_GetSource())
341855fc:	2000      	movs	r0, #0
341855fe:	e78a      	b.n	34185516 <RCCEx_GetLPUARTCLKFreq+0x2e>
            lpuart_frequency = HAL_RCCEx_GetPLL1CLKFreq();
34185600:	f7fe feb8 	bl	34184374 <HAL_RCCEx_GetPLL1CLKFreq>
            lpuart_frequency = lpuart_frequency / ic_divider;
34185604:	fbb0 f0f4 	udiv	r0, r0, r4
            break;
34185608:	e785      	b.n	34185516 <RCCEx_GetLPUARTCLKFreq+0x2e>
            lpuart_frequency = HAL_RCCEx_GetPLL3CLKFreq();
3418560a:	f7fe ff43 	bl	34184494 <HAL_RCCEx_GetPLL3CLKFreq>
            lpuart_frequency = lpuart_frequency / ic_divider;
3418560e:	fbb0 f0f4 	udiv	r0, r0, r4
            break;
34185612:	e780      	b.n	34185516 <RCCEx_GetLPUARTCLKFreq+0x2e>
  return ((READ_BIT(RCC->SR, RCC_SR_HSIRDY) != 0UL) ? 1UL : 0UL);
34185614:	4b09      	ldr	r3, [pc, #36]	@ (3418563c <RCCEx_GetLPUARTCLKFreq+0x154>)
34185616:	6858      	ldr	r0, [r3, #4]
34185618:	f010 0008 	ands.w	r0, r0, #8
3418561c:	f43f af7b 	beq.w	34185516 <RCCEx_GetLPUARTCLKFreq+0x2e>
  return (READ_BIT(RCC->HSICFGR, RCC_HSICFGR_HSIDIV));
34185620:	6c9b      	ldr	r3, [r3, #72]	@ 0x48
        lpuart_frequency = HSI_VALUE >> (LL_RCC_HSI_GetDivider() >> RCC_HSICFGR_HSIDIV_Pos);
34185622:	f3c3 13c1 	ubfx	r3, r3, #7, #2
34185626:	4806      	ldr	r0, [pc, #24]	@ (34185640 <RCCEx_GetLPUARTCLKFreq+0x158>)
34185628:	40d8      	lsrs	r0, r3
3418562a:	e774      	b.n	34185516 <RCCEx_GetLPUARTCLKFreq+0x2e>
  return ((READ_BIT(RCC->SR, RCC_SR_MSIRDY) != 0UL) ? 1UL : 0UL);
3418562c:	4b03      	ldr	r3, [pc, #12]	@ (3418563c <RCCEx_GetLPUARTCLKFreq+0x154>)
3418562e:	6858      	ldr	r0, [r3, #4]
34185630:	f010 0004 	ands.w	r0, r0, #4
34185634:	f43f af6f 	beq.w	34185516 <RCCEx_GetLPUARTCLKFreq+0x2e>
        lpuart_frequency = MSI_VALUE;
34185638:	4802      	ldr	r0, [pc, #8]	@ (34185644 <RCCEx_GetLPUARTCLKFreq+0x15c>)
3418563a:	e76c      	b.n	34185516 <RCCEx_GetLPUARTCLKFreq+0x2e>
3418563c:	56028000 	.word	0x56028000
34185640:	03d09000 	.word	0x03d09000
34185644:	003d0900 	.word	0x003d0900

34185648 <RCCEx_GetLTDCCLKFreq>:
{
34185648:	b510      	push	{r4, lr}
  return (uint32_t)(READ_BIT(RCC->CCIPR4, RCC_CCIPR4_LTDCSEL));
3418564a:	4b2e      	ldr	r3, [pc, #184]	@ (34185704 <RCCEx_GetLTDCCLKFreq+0xbc>)
3418564c:	f8d3 3150 	ldr.w	r3, [r3, #336]	@ 0x150
34185650:	f003 7340 	and.w	r3, r3, #50331648	@ 0x3000000
  switch (LL_RCC_GetLTDCClockSource(LTDCxSource))
34185654:	f1b3 7f00 	cmp.w	r3, #33554432	@ 0x2000000
34185658:	d021      	beq.n	3418569e <RCCEx_GetLTDCCLKFreq+0x56>
3418565a:	d809      	bhi.n	34185670 <RCCEx_GetLTDCCLKFreq+0x28>
3418565c:	b1c3      	cbz	r3, 34185690 <RCCEx_GetLTDCCLKFreq+0x48>
3418565e:	f1b3 7f80 	cmp.w	r3, #16777216	@ 0x1000000
34185662:	d103      	bne.n	3418566c <RCCEx_GetLTDCCLKFreq+0x24>
      ltdc_frequency = RCCEx_GetCLKPCLKFreq(LL_RCC_CLKP_CLKSOURCE);
34185664:	2007      	movs	r0, #7
34185666:	f7fe ffdb 	bl	34184620 <RCCEx_GetCLKPCLKFreq>
      break;
3418566a:	e017      	b.n	3418569c <RCCEx_GetLTDCCLKFreq+0x54>
  switch (LL_RCC_GetLTDCClockSource(LTDCxSource))
3418566c:	2000      	movs	r0, #0
3418566e:	e015      	b.n	3418569c <RCCEx_GetLTDCCLKFreq+0x54>
34185670:	f1b3 7f40 	cmp.w	r3, #50331648	@ 0x3000000
34185674:	d10a      	bne.n	3418568c <RCCEx_GetLTDCCLKFreq+0x44>
  return ((READ_BIT(RCC->SR, RCC_SR_HSIRDY) != 0UL) ? 1UL : 0UL);
34185676:	4b23      	ldr	r3, [pc, #140]	@ (34185704 <RCCEx_GetLTDCCLKFreq+0xbc>)
34185678:	6858      	ldr	r0, [r3, #4]
3418567a:	f010 0008 	ands.w	r0, r0, #8
3418567e:	d00d      	beq.n	3418569c <RCCEx_GetLTDCCLKFreq+0x54>
  return (READ_BIT(RCC->HSICFGR, RCC_HSICFGR_HSIDIV));
34185680:	6c9b      	ldr	r3, [r3, #72]	@ 0x48
        ltdc_frequency = HSI_VALUE >> (LL_RCC_HSI_GetDivider() >> RCC_HSICFGR_HSIDIV_Pos);
34185682:	f3c3 13c1 	ubfx	r3, r3, #7, #2
34185686:	4820      	ldr	r0, [pc, #128]	@ (34185708 <RCCEx_GetLTDCCLKFreq+0xc0>)
34185688:	40d8      	lsrs	r0, r3
  return ltdc_frequency;
3418568a:	e007      	b.n	3418569c <RCCEx_GetLTDCCLKFreq+0x54>
  switch (LL_RCC_GetLTDCClockSource(LTDCxSource))
3418568c:	2000      	movs	r0, #0
3418568e:	e005      	b.n	3418569c <RCCEx_GetLTDCCLKFreq+0x54>
      ltdc_frequency = RCCEx_GetPCLK5Freq(RCCEx_GetHCLKFreq(HAL_RCC_GetSysClockFreq()));
34185690:	f7fc ffd0 	bl	34182634 <HAL_RCC_GetSysClockFreq>
34185694:	f7fd f846 	bl	34182724 <RCCEx_GetHCLKFreq>
34185698:	f7fd f864 	bl	34182764 <RCCEx_GetPCLK5Freq>
}
3418569c:	bd10      	pop	{r4, pc}
  return ((READ_BIT(RCC->DIVENR, RCC_DIVENR_IC16EN) == RCC_DIVENR_IC16EN) ? 1UL : 0UL);
3418569e:	4b19      	ldr	r3, [pc, #100]	@ (34185704 <RCCEx_GetLTDCCLKFreq+0xbc>)
341856a0:	f8d3 0240 	ldr.w	r0, [r3, #576]	@ 0x240
341856a4:	f410 4000 	ands.w	r0, r0, #32768	@ 0x8000
341856a8:	d0f8      	beq.n	3418569c <RCCEx_GetLTDCCLKFreq+0x54>
  return ((READ_BIT(RCC->IC16CFGR, RCC_IC16CFGR_IC16INT) >> RCC_IC16CFGR_IC16INT_Pos) + 1UL);
341856aa:	f8d3 0100 	ldr.w	r0, [r3, #256]	@ 0x100
341856ae:	f3c0 4007 	ubfx	r0, r0, #16, #8
341856b2:	1c44      	adds	r4, r0, #1
  return (uint32_t)(READ_BIT(RCC->IC16CFGR, RCC_IC16CFGR_IC16SEL));
341856b4:	f8d3 3100 	ldr.w	r3, [r3, #256]	@ 0x100
341856b8:	f003 5340 	and.w	r3, r3, #805306368	@ 0x30000000
        switch (LL_RCC_IC16_GetSource())
341856bc:	f1b3 5f00 	cmp.w	r3, #536870912	@ 0x20000000
341856c0:	d01a      	beq.n	341856f8 <RCCEx_GetLTDCCLKFreq+0xb0>
341856c2:	d80a      	bhi.n	341856da <RCCEx_GetLTDCCLKFreq+0x92>
341856c4:	b19b      	cbz	r3, 341856ee <RCCEx_GetLTDCCLKFreq+0xa6>
341856c6:	f1b3 5f80 	cmp.w	r3, #268435456	@ 0x10000000
341856ca:	d104      	bne.n	341856d6 <RCCEx_GetLTDCCLKFreq+0x8e>
            ltdc_frequency = HAL_RCCEx_GetPLL2CLKFreq();
341856cc:	f7fe fe9a 	bl	34184404 <HAL_RCCEx_GetPLL2CLKFreq>
            ltdc_frequency = ltdc_frequency / ic_divider;
341856d0:	fbb0 f0f4 	udiv	r0, r0, r4
            break;
341856d4:	e7e2      	b.n	3418569c <RCCEx_GetLTDCCLKFreq+0x54>
        switch (LL_RCC_IC16_GetSource())
341856d6:	2000      	movs	r0, #0
341856d8:	e7e0      	b.n	3418569c <RCCEx_GetLTDCCLKFreq+0x54>
341856da:	f1b3 5f40 	cmp.w	r3, #805306368	@ 0x30000000
341856de:	d104      	bne.n	341856ea <RCCEx_GetLTDCCLKFreq+0xa2>
            ltdc_frequency = HAL_RCCEx_GetPLL4CLKFreq();
341856e0:	f7fe ff20 	bl	34184524 <HAL_RCCEx_GetPLL4CLKFreq>
            ltdc_frequency = ltdc_frequency / ic_divider;
341856e4:	fbb0 f0f4 	udiv	r0, r0, r4
            break;
341856e8:	e7d8      	b.n	3418569c <RCCEx_GetLTDCCLKFreq+0x54>
        switch (LL_RCC_IC16_GetSource())
341856ea:	2000      	movs	r0, #0
341856ec:	e7d6      	b.n	3418569c <RCCEx_GetLTDCCLKFreq+0x54>
            ltdc_frequency = HAL_RCCEx_GetPLL1CLKFreq();
341856ee:	f7fe fe41 	bl	34184374 <HAL_RCCEx_GetPLL1CLKFreq>
            ltdc_frequency = ltdc_frequency / ic_divider;
341856f2:	fbb0 f0f4 	udiv	r0, r0, r4
            break;
341856f6:	e7d1      	b.n	3418569c <RCCEx_GetLTDCCLKFreq+0x54>
            ltdc_frequency = HAL_RCCEx_GetPLL3CLKFreq();
341856f8:	f7fe fecc 	bl	34184494 <HAL_RCCEx_GetPLL3CLKFreq>
            ltdc_frequency = ltdc_frequency / ic_divider;
341856fc:	fbb0 f0f4 	udiv	r0, r0, r4
            break;
34185700:	e7cc      	b.n	3418569c <RCCEx_GetLTDCCLKFreq+0x54>
34185702:	bf00      	nop
34185704:	56028000 	.word	0x56028000
34185708:	03d09000 	.word	0x03d09000

3418570c <RCCEx_GetMDFCLKFreq>:
  return (uint32_t)(READ_BIT(RCC->CCIPR5, RCC_CCIPR5_MDF1SEL));
3418570c:	4b58      	ldr	r3, [pc, #352]	@ (34185870 <RCCEx_GetMDFCLKFreq+0x164>)
3418570e:	f8d3 3154 	ldr.w	r3, [r3, #340]	@ 0x154
34185712:	f403 23e0 	and.w	r3, r3, #458752	@ 0x70000
  switch (LL_RCC_GetMDFClockSource(MDFxSource))
34185716:	f5b3 2f80 	cmp.w	r3, #262144	@ 0x40000
3418571a:	f000 8096 	beq.w	3418584a <RCCEx_GetMDFCLKFreq+0x13e>
{
3418571e:	b510      	push	{r4, lr}
  switch (LL_RCC_GetMDFClockSource(MDFxSource))
34185720:	d830      	bhi.n	34185784 <RCCEx_GetMDFCLKFreq+0x78>
34185722:	f5b3 3f00 	cmp.w	r3, #131072	@ 0x20000
34185726:	d048      	beq.n	341857ba <RCCEx_GetMDFCLKFreq+0xae>
34185728:	d80a      	bhi.n	34185740 <RCCEx_GetMDFCLKFreq+0x34>
3418572a:	2b00      	cmp	r3, #0
3418572c:	d040      	beq.n	341857b0 <RCCEx_GetMDFCLKFreq+0xa4>
3418572e:	f5b3 3f80 	cmp.w	r3, #65536	@ 0x10000
34185732:	d103      	bne.n	3418573c <RCCEx_GetMDFCLKFreq+0x30>
      adf_frequency = RCCEx_GetCLKPCLKFreq(LL_RCC_CLKP_CLKSOURCE);
34185734:	2007      	movs	r0, #7
34185736:	f7fe ff73 	bl	34184620 <RCCEx_GetCLKPCLKFreq>
      break;
3418573a:	e03d      	b.n	341857b8 <RCCEx_GetMDFCLKFreq+0xac>
  switch (LL_RCC_GetMDFClockSource(MDFxSource))
3418573c:	2000      	movs	r0, #0
3418573e:	e03b      	b.n	341857b8 <RCCEx_GetMDFCLKFreq+0xac>
34185740:	f5b3 3f40 	cmp.w	r3, #196608	@ 0x30000
34185744:	d11c      	bne.n	34185780 <RCCEx_GetMDFCLKFreq+0x74>
  return ((READ_BIT(RCC->DIVENR, RCC_DIVENR_IC8EN) == RCC_DIVENR_IC8EN) ? 1UL : 0UL);
34185746:	4b4a      	ldr	r3, [pc, #296]	@ (34185870 <RCCEx_GetMDFCLKFreq+0x164>)
34185748:	f8d3 0240 	ldr.w	r0, [r3, #576]	@ 0x240
3418574c:	f010 0080 	ands.w	r0, r0, #128	@ 0x80
34185750:	d032      	beq.n	341857b8 <RCCEx_GetMDFCLKFreq+0xac>
  return ((READ_BIT(RCC->IC8CFGR, RCC_IC8CFGR_IC8INT) >> RCC_IC8CFGR_IC8INT_Pos) + 1UL);
34185752:	f8d3 00e0 	ldr.w	r0, [r3, #224]	@ 0xe0
34185756:	f3c0 4007 	ubfx	r0, r0, #16, #8
3418575a:	1c44      	adds	r4, r0, #1
  return (uint32_t)(READ_BIT(RCC->IC8CFGR, RCC_IC8CFGR_IC8SEL));
3418575c:	f8d3 30e0 	ldr.w	r3, [r3, #224]	@ 0xe0
34185760:	f003 5340 	and.w	r3, r3, #805306368	@ 0x30000000
        switch (LL_RCC_IC8_GetSource())
34185764:	f1b3 5f00 	cmp.w	r3, #536870912	@ 0x20000000
34185768:	d06a      	beq.n	34185840 <RCCEx_GetMDFCLKFreq+0x134>
3418576a:	d85a      	bhi.n	34185822 <RCCEx_GetMDFCLKFreq+0x116>
3418576c:	2b00      	cmp	r3, #0
3418576e:	d062      	beq.n	34185836 <RCCEx_GetMDFCLKFreq+0x12a>
34185770:	f1b3 5f80 	cmp.w	r3, #268435456	@ 0x10000000
34185774:	d153      	bne.n	3418581e <RCCEx_GetMDFCLKFreq+0x112>
            adf_frequency = HAL_RCCEx_GetPLL2CLKFreq();
34185776:	f7fe fe45 	bl	34184404 <HAL_RCCEx_GetPLL2CLKFreq>
            adf_frequency = adf_frequency / ic_divider;
3418577a:	fbb0 f0f4 	udiv	r0, r0, r4
            break;
3418577e:	e01b      	b.n	341857b8 <RCCEx_GetMDFCLKFreq+0xac>
  switch (LL_RCC_GetMDFClockSource(MDFxSource))
34185780:	2000      	movs	r0, #0
34185782:	e019      	b.n	341857b8 <RCCEx_GetMDFCLKFreq+0xac>
34185784:	f5b3 2fc0 	cmp.w	r3, #393216	@ 0x60000
34185788:	d06d      	beq.n	34185866 <RCCEx_GetMDFCLKFreq+0x15a>
3418578a:	f5b3 2fe0 	cmp.w	r3, #458752	@ 0x70000
3418578e:	d062      	beq.n	34185856 <RCCEx_GetMDFCLKFreq+0x14a>
34185790:	f5b3 2fa0 	cmp.w	r3, #327680	@ 0x50000
34185794:	d10a      	bne.n	341857ac <RCCEx_GetMDFCLKFreq+0xa0>
  return ((READ_BIT(RCC->SR, RCC_SR_HSIRDY) != 0UL) ? 1UL : 0UL);
34185796:	4b36      	ldr	r3, [pc, #216]	@ (34185870 <RCCEx_GetMDFCLKFreq+0x164>)
34185798:	6858      	ldr	r0, [r3, #4]
3418579a:	f010 0008 	ands.w	r0, r0, #8
3418579e:	d00b      	beq.n	341857b8 <RCCEx_GetMDFCLKFreq+0xac>
  return (READ_BIT(RCC->HSICFGR, RCC_HSICFGR_HSIDIV));
341857a0:	6c9b      	ldr	r3, [r3, #72]	@ 0x48
        adf_frequency = HSI_VALUE >> (LL_RCC_HSI_GetDivider() >> RCC_HSICFGR_HSIDIV_Pos);
341857a2:	f3c3 13c1 	ubfx	r3, r3, #7, #2
341857a6:	4833      	ldr	r0, [pc, #204]	@ (34185874 <RCCEx_GetMDFCLKFreq+0x168>)
341857a8:	40d8      	lsrs	r0, r3
341857aa:	e005      	b.n	341857b8 <RCCEx_GetMDFCLKFreq+0xac>
  switch (LL_RCC_GetMDFClockSource(MDFxSource))
341857ac:	2000      	movs	r0, #0
341857ae:	e003      	b.n	341857b8 <RCCEx_GetMDFCLKFreq+0xac>
      adf_frequency = RCCEx_GetHCLKFreq(HAL_RCC_GetSysClockFreq());
341857b0:	f7fc ff40 	bl	34182634 <HAL_RCC_GetSysClockFreq>
341857b4:	f7fc ffb6 	bl	34182724 <RCCEx_GetHCLKFreq>
}
341857b8:	bd10      	pop	{r4, pc}
  return ((READ_BIT(RCC->DIVENR, RCC_DIVENR_IC7EN) == RCC_DIVENR_IC7EN) ? 1UL : 0UL);
341857ba:	4b2d      	ldr	r3, [pc, #180]	@ (34185870 <RCCEx_GetMDFCLKFreq+0x164>)
341857bc:	f8d3 0240 	ldr.w	r0, [r3, #576]	@ 0x240
341857c0:	f010 0040 	ands.w	r0, r0, #64	@ 0x40
341857c4:	d0f8      	beq.n	341857b8 <RCCEx_GetMDFCLKFreq+0xac>
  return ((READ_BIT(RCC->IC7CFGR, RCC_IC7CFGR_IC7INT) >> RCC_IC7CFGR_IC7INT_Pos) + 1UL);
341857c6:	f8d3 00dc 	ldr.w	r0, [r3, #220]	@ 0xdc
341857ca:	f3c0 4007 	ubfx	r0, r0, #16, #8
341857ce:	1c44      	adds	r4, r0, #1
  return (uint32_t)(READ_BIT(RCC->IC7CFGR, RCC_IC7CFGR_IC7SEL));
341857d0:	f8d3 30dc 	ldr.w	r3, [r3, #220]	@ 0xdc
341857d4:	f003 5340 	and.w	r3, r3, #805306368	@ 0x30000000
        switch (LL_RCC_IC7_GetSource())
341857d8:	f1b3 5f00 	cmp.w	r3, #536870912	@ 0x20000000
341857dc:	d01a      	beq.n	34185814 <RCCEx_GetMDFCLKFreq+0x108>
341857de:	d80a      	bhi.n	341857f6 <RCCEx_GetMDFCLKFreq+0xea>
341857e0:	b19b      	cbz	r3, 3418580a <RCCEx_GetMDFCLKFreq+0xfe>
341857e2:	f1b3 5f80 	cmp.w	r3, #268435456	@ 0x10000000
341857e6:	d104      	bne.n	341857f2 <RCCEx_GetMDFCLKFreq+0xe6>
            adf_frequency = HAL_RCCEx_GetPLL2CLKFreq();
341857e8:	f7fe fe0c 	bl	34184404 <HAL_RCCEx_GetPLL2CLKFreq>
            adf_frequency = adf_frequency / ic_divider;
341857ec:	fbb0 f0f4 	udiv	r0, r0, r4
            break;
341857f0:	e7e2      	b.n	341857b8 <RCCEx_GetMDFCLKFreq+0xac>
        switch (LL_RCC_IC7_GetSource())
341857f2:	2000      	movs	r0, #0
341857f4:	e7e0      	b.n	341857b8 <RCCEx_GetMDFCLKFreq+0xac>
341857f6:	f1b3 5f40 	cmp.w	r3, #805306368	@ 0x30000000
341857fa:	d104      	bne.n	34185806 <RCCEx_GetMDFCLKFreq+0xfa>
            adf_frequency = HAL_RCCEx_GetPLL4CLKFreq();
341857fc:	f7fe fe92 	bl	34184524 <HAL_RCCEx_GetPLL4CLKFreq>
            adf_frequency = adf_frequency / ic_divider;
34185800:	fbb0 f0f4 	udiv	r0, r0, r4
            break;
34185804:	e7d8      	b.n	341857b8 <RCCEx_GetMDFCLKFreq+0xac>
        switch (LL_RCC_IC7_GetSource())
34185806:	2000      	movs	r0, #0
34185808:	e7d6      	b.n	341857b8 <RCCEx_GetMDFCLKFreq+0xac>
            adf_frequency = HAL_RCCEx_GetPLL1CLKFreq();
3418580a:	f7fe fdb3 	bl	34184374 <HAL_RCCEx_GetPLL1CLKFreq>
            adf_frequency = adf_frequency / ic_divider;
3418580e:	fbb0 f0f4 	udiv	r0, r0, r4
            break;
34185812:	e7d1      	b.n	341857b8 <RCCEx_GetMDFCLKFreq+0xac>
            adf_frequency = HAL_RCCEx_GetPLL3CLKFreq();
34185814:	f7fe fe3e 	bl	34184494 <HAL_RCCEx_GetPLL3CLKFreq>
            adf_frequency = adf_frequency / ic_divider;
34185818:	fbb0 f0f4 	udiv	r0, r0, r4
            break;
3418581c:	e7cc      	b.n	341857b8 <RCCEx_GetMDFCLKFreq+0xac>
        switch (LL_RCC_IC8_GetSource())
3418581e:	2000      	movs	r0, #0
34185820:	e7ca      	b.n	341857b8 <RCCEx_GetMDFCLKFreq+0xac>
34185822:	f1b3 5f40 	cmp.w	r3, #805306368	@ 0x30000000
34185826:	d104      	bne.n	34185832 <RCCEx_GetMDFCLKFreq+0x126>
            adf_frequency = HAL_RCCEx_GetPLL4CLKFreq();
34185828:	f7fe fe7c 	bl	34184524 <HAL_RCCEx_GetPLL4CLKFreq>
            adf_frequency = adf_frequency / ic_divider;
3418582c:	fbb0 f0f4 	udiv	r0, r0, r4
            break;
34185830:	e7c2      	b.n	341857b8 <RCCEx_GetMDFCLKFreq+0xac>
        switch (LL_RCC_IC8_GetSource())
34185832:	2000      	movs	r0, #0
34185834:	e7c0      	b.n	341857b8 <RCCEx_GetMDFCLKFreq+0xac>
            adf_frequency = HAL_RCCEx_GetPLL1CLKFreq();
34185836:	f7fe fd9d 	bl	34184374 <HAL_RCCEx_GetPLL1CLKFreq>
            adf_frequency = adf_frequency / ic_divider;
3418583a:	fbb0 f0f4 	udiv	r0, r0, r4
            break;
3418583e:	e7bb      	b.n	341857b8 <RCCEx_GetMDFCLKFreq+0xac>
            adf_frequency = HAL_RCCEx_GetPLL3CLKFreq();
34185840:	f7fe fe28 	bl	34184494 <HAL_RCCEx_GetPLL3CLKFreq>
            adf_frequency = adf_frequency / ic_divider;
34185844:	fbb0 f0f4 	udiv	r0, r0, r4
            break;
34185848:	e7b6      	b.n	341857b8 <RCCEx_GetMDFCLKFreq+0xac>
  return ((READ_BIT(RCC->SR, RCC_SR_MSIRDY) != 0UL) ? 1UL : 0UL);
3418584a:	4b09      	ldr	r3, [pc, #36]	@ (34185870 <RCCEx_GetMDFCLKFreq+0x164>)
3418584c:	6858      	ldr	r0, [r3, #4]
3418584e:	f010 0004 	ands.w	r0, r0, #4
34185852:	d10a      	bne.n	3418586a <RCCEx_GetMDFCLKFreq+0x15e>
34185854:	4770      	bx	lr
      adf_frequency = LL_RCC_CALC_TIMG_FREQ(HAL_RCC_GetSysClockFreq(), LL_RCC_GetTIMPrescaler());
34185856:	f7fc feed 	bl	34182634 <HAL_RCC_GetSysClockFreq>
  return (uint32_t)(READ_BIT(RCC->CFGR2, RCC_CFGR2_TIMPRE) >> RCC_CFGR2_TIMPRE_Pos);
3418585a:	4b05      	ldr	r3, [pc, #20]	@ (34185870 <RCCEx_GetMDFCLKFreq+0x164>)
3418585c:	6a5b      	ldr	r3, [r3, #36]	@ 0x24
3418585e:	f3c3 6301 	ubfx	r3, r3, #24, #2
34185862:	40d8      	lsrs	r0, r3
      break;
34185864:	e7a8      	b.n	341857b8 <RCCEx_GetMDFCLKFreq+0xac>
      adf_frequency = EXTERNAL_CLOCK_VALUE;
34185866:	4804      	ldr	r0, [pc, #16]	@ (34185878 <RCCEx_GetMDFCLKFreq+0x16c>)
34185868:	e7a6      	b.n	341857b8 <RCCEx_GetMDFCLKFreq+0xac>
        adf_frequency = MSI_VALUE;
3418586a:	4804      	ldr	r0, [pc, #16]	@ (3418587c <RCCEx_GetMDFCLKFreq+0x170>)
}
3418586c:	4770      	bx	lr
3418586e:	bf00      	nop
34185870:	56028000 	.word	0x56028000
34185874:	03d09000 	.word	0x03d09000
34185878:	00bb8000 	.word	0x00bb8000
3418587c:	003d0900 	.word	0x003d0900

34185880 <RCCEx_GetPSSICLKFreq>:
{
34185880:	b510      	push	{r4, lr}
  return (uint32_t)(READ_BIT(RCC->CCIPR7, RCC_CCIPR7_PSSISEL));
34185882:	4b2b      	ldr	r3, [pc, #172]	@ (34185930 <RCCEx_GetPSSICLKFreq+0xb0>)
34185884:	f8d3 315c 	ldr.w	r3, [r3, #348]	@ 0x15c
34185888:	f003 0330 	and.w	r3, r3, #48	@ 0x30
  switch (LL_RCC_GetPSSIClockSource(PSSIxSource))
3418588c:	2b20      	cmp	r3, #32
3418588e:	d01d      	beq.n	341858cc <RCCEx_GetPSSICLKFreq+0x4c>
34185890:	d808      	bhi.n	341858a4 <RCCEx_GetPSSICLKFreq+0x24>
34185892:	b1b3      	cbz	r3, 341858c2 <RCCEx_GetPSSICLKFreq+0x42>
34185894:	2b10      	cmp	r3, #16
34185896:	d103      	bne.n	341858a0 <RCCEx_GetPSSICLKFreq+0x20>
      pssi_frequency = RCCEx_GetCLKPCLKFreq(LL_RCC_CLKP_CLKSOURCE);
34185898:	2007      	movs	r0, #7
3418589a:	f7fe fec1 	bl	34184620 <RCCEx_GetCLKPCLKFreq>
      break;
3418589e:	e014      	b.n	341858ca <RCCEx_GetPSSICLKFreq+0x4a>
  switch (LL_RCC_GetPSSIClockSource(PSSIxSource))
341858a0:	2000      	movs	r0, #0
341858a2:	e012      	b.n	341858ca <RCCEx_GetPSSICLKFreq+0x4a>
341858a4:	2b30      	cmp	r3, #48	@ 0x30
341858a6:	d10a      	bne.n	341858be <RCCEx_GetPSSICLKFreq+0x3e>
  return ((READ_BIT(RCC->SR, RCC_SR_HSIRDY) != 0UL) ? 1UL : 0UL);
341858a8:	4b21      	ldr	r3, [pc, #132]	@ (34185930 <RCCEx_GetPSSICLKFreq+0xb0>)
341858aa:	6858      	ldr	r0, [r3, #4]
341858ac:	f010 0008 	ands.w	r0, r0, #8
341858b0:	d00b      	beq.n	341858ca <RCCEx_GetPSSICLKFreq+0x4a>
  return (READ_BIT(RCC->HSICFGR, RCC_HSICFGR_HSIDIV));
341858b2:	6c9b      	ldr	r3, [r3, #72]	@ 0x48
        pssi_frequency = HSI_VALUE >> (LL_RCC_HSI_GetDivider() >> RCC_HSICFGR_HSIDIV_Pos);
341858b4:	f3c3 13c1 	ubfx	r3, r3, #7, #2
341858b8:	481e      	ldr	r0, [pc, #120]	@ (34185934 <RCCEx_GetPSSICLKFreq+0xb4>)
341858ba:	40d8      	lsrs	r0, r3
  return pssi_frequency;
341858bc:	e005      	b.n	341858ca <RCCEx_GetPSSICLKFreq+0x4a>
  switch (LL_RCC_GetPSSIClockSource(PSSIxSource))
341858be:	2000      	movs	r0, #0
341858c0:	e003      	b.n	341858ca <RCCEx_GetPSSICLKFreq+0x4a>
      pssi_frequency = RCCEx_GetHCLKFreq(HAL_RCC_GetSysClockFreq());
341858c2:	f7fc feb7 	bl	34182634 <HAL_RCC_GetSysClockFreq>
341858c6:	f7fc ff2d 	bl	34182724 <RCCEx_GetHCLKFreq>
}
341858ca:	bd10      	pop	{r4, pc}
  return ((READ_BIT(RCC->DIVENR, RCC_DIVENR_IC20EN) == RCC_DIVENR_IC20EN) ? 1UL : 0UL);
341858cc:	4b18      	ldr	r3, [pc, #96]	@ (34185930 <RCCEx_GetPSSICLKFreq+0xb0>)
341858ce:	f8d3 0240 	ldr.w	r0, [r3, #576]	@ 0x240
341858d2:	f410 2000 	ands.w	r0, r0, #524288	@ 0x80000
341858d6:	d0f8      	beq.n	341858ca <RCCEx_GetPSSICLKFreq+0x4a>
  return ((READ_BIT(RCC->IC20CFGR, RCC_IC20CFGR_IC20INT) >> RCC_IC20CFGR_IC20INT_Pos) + 1UL);
341858d8:	f8d3 0110 	ldr.w	r0, [r3, #272]	@ 0x110
341858dc:	f3c0 4007 	ubfx	r0, r0, #16, #8
341858e0:	1c44      	adds	r4, r0, #1
  return (uint32_t)(READ_BIT(RCC->IC20CFGR, RCC_IC20CFGR_IC20SEL));
341858e2:	f8d3 3110 	ldr.w	r3, [r3, #272]	@ 0x110
341858e6:	f003 5340 	and.w	r3, r3, #805306368	@ 0x30000000
        switch (LL_RCC_IC20_GetSource())
341858ea:	f1b3 5f00 	cmp.w	r3, #536870912	@ 0x20000000
341858ee:	d01a      	beq.n	34185926 <RCCEx_GetPSSICLKFreq+0xa6>
341858f0:	d80a      	bhi.n	34185908 <RCCEx_GetPSSICLKFreq+0x88>
341858f2:	b19b      	cbz	r3, 3418591c <RCCEx_GetPSSICLKFreq+0x9c>
341858f4:	f1b3 5f80 	cmp.w	r3, #268435456	@ 0x10000000
341858f8:	d104      	bne.n	34185904 <RCCEx_GetPSSICLKFreq+0x84>
            pssi_frequency = HAL_RCCEx_GetPLL2CLKFreq();
341858fa:	f7fe fd83 	bl	34184404 <HAL_RCCEx_GetPLL2CLKFreq>
            pssi_frequency = pssi_frequency / ic_divider;
341858fe:	fbb0 f0f4 	udiv	r0, r0, r4
            break;
34185902:	e7e2      	b.n	341858ca <RCCEx_GetPSSICLKFreq+0x4a>
        switch (LL_RCC_IC20_GetSource())
34185904:	2000      	movs	r0, #0
34185906:	e7e0      	b.n	341858ca <RCCEx_GetPSSICLKFreq+0x4a>
34185908:	f1b3 5f40 	cmp.w	r3, #805306368	@ 0x30000000
3418590c:	d104      	bne.n	34185918 <RCCEx_GetPSSICLKFreq+0x98>
            pssi_frequency = HAL_RCCEx_GetPLL4CLKFreq();
3418590e:	f7fe fe09 	bl	34184524 <HAL_RCCEx_GetPLL4CLKFreq>
            pssi_frequency = pssi_frequency / ic_divider;
34185912:	fbb0 f0f4 	udiv	r0, r0, r4
            break;
34185916:	e7d8      	b.n	341858ca <RCCEx_GetPSSICLKFreq+0x4a>
        switch (LL_RCC_IC20_GetSource())
34185918:	2000      	movs	r0, #0
3418591a:	e7d6      	b.n	341858ca <RCCEx_GetPSSICLKFreq+0x4a>
            pssi_frequency = HAL_RCCEx_GetPLL1CLKFreq();
3418591c:	f7fe fd2a 	bl	34184374 <HAL_RCCEx_GetPLL1CLKFreq>
            pssi_frequency = pssi_frequency / ic_divider;
34185920:	fbb0 f0f4 	udiv	r0, r0, r4
            break;
34185924:	e7d1      	b.n	341858ca <RCCEx_GetPSSICLKFreq+0x4a>
            pssi_frequency = HAL_RCCEx_GetPLL3CLKFreq();
34185926:	f7fe fdb5 	bl	34184494 <HAL_RCCEx_GetPLL3CLKFreq>
            pssi_frequency = pssi_frequency / ic_divider;
3418592a:	fbb0 f0f4 	udiv	r0, r0, r4
            break;
3418592e:	e7cc      	b.n	341858ca <RCCEx_GetPSSICLKFreq+0x4a>
34185930:	56028000 	.word	0x56028000
34185934:	03d09000 	.word	0x03d09000

34185938 <RCCEx_GetSDMMCCLKFreq>:
  *         @arg @ref RCCEx_SDMMC2_Clock_Source
  * @retval SDMMC clock frequency (in Hz)
  *         - @ref  RCC_PERIPH_FREQUENCY_NO indicates that oscillator is not ready
  */
static uint32_t RCCEx_GetSDMMCCLKFreq(uint32_t SDMMCxSource)
{
34185938:	b510      	push	{r4, lr}
  return LL_RCC_GetClockSource(Periph);
3418593a:	f7fc fee5 	bl	34182708 <LL_RCC_GetClockSource>
  uint32_t sdmmc_frequency = RCC_PERIPH_FREQUENCY_NO;
  uint32_t ic_divider;

  switch (LL_RCC_GetSDMMCClockSource(SDMMCxSource))
3418593e:	4b49      	ldr	r3, [pc, #292]	@ (34185a64 <RCCEx_GetSDMMCCLKFreq+0x12c>)
34185940:	4298      	cmp	r0, r3
34185942:	d02a      	beq.n	3418599a <RCCEx_GetSDMMCCLKFreq+0x62>
34185944:	d81c      	bhi.n	34185980 <RCCEx_GetSDMMCCLKFreq+0x48>
34185946:	f5a3 3380 	sub.w	r3, r3, #65536	@ 0x10000
3418594a:	4298      	cmp	r0, r3
3418594c:	d012      	beq.n	34185974 <RCCEx_GetSDMMCCLKFreq+0x3c>
3418594e:	d80e      	bhi.n	3418596e <RCCEx_GetSDMMCCLKFreq+0x36>
34185950:	f5a3 3380 	sub.w	r3, r3, #65536	@ 0x10000
34185954:	4298      	cmp	r0, r3
34185956:	d003      	beq.n	34185960 <RCCEx_GetSDMMCCLKFreq+0x28>
34185958:	f503 6380 	add.w	r3, r3, #1024	@ 0x400
3418595c:	4298      	cmp	r0, r3
3418595e:	d104      	bne.n	3418596a <RCCEx_GetSDMMCCLKFreq+0x32>
  {
    case LL_RCC_SDMMC1_CLKSOURCE_HCLK:
    case LL_RCC_SDMMC2_CLKSOURCE_HCLK:
      sdmmc_frequency = RCCEx_GetHCLKFreq(HAL_RCC_GetSysClockFreq());
34185960:	f7fc fe68 	bl	34182634 <HAL_RCC_GetSysClockFreq>
34185964:	f7fc fede 	bl	34182724 <RCCEx_GetHCLKFreq>
      /* Unexpected case */
      break;
  }

  return sdmmc_frequency;
}
34185968:	bd10      	pop	{r4, pc}
  switch (LL_RCC_GetSDMMCClockSource(SDMMCxSource))
3418596a:	2000      	movs	r0, #0
3418596c:	e7fc      	b.n	34185968 <RCCEx_GetSDMMCCLKFreq+0x30>
3418596e:	4b3e      	ldr	r3, [pc, #248]	@ (34185a68 <RCCEx_GetSDMMCCLKFreq+0x130>)
34185970:	4298      	cmp	r0, r3
34185972:	d103      	bne.n	3418597c <RCCEx_GetSDMMCCLKFreq+0x44>
      sdmmc_frequency = RCCEx_GetCLKPCLKFreq(LL_RCC_CLKP_CLKSOURCE);
34185974:	2007      	movs	r0, #7
34185976:	f7fe fe53 	bl	34184620 <RCCEx_GetCLKPCLKFreq>
      break;
3418597a:	e7f5      	b.n	34185968 <RCCEx_GetSDMMCCLKFreq+0x30>
  switch (LL_RCC_GetSDMMCClockSource(SDMMCxSource))
3418597c:	2000      	movs	r0, #0
3418597e:	e7f3      	b.n	34185968 <RCCEx_GetSDMMCCLKFreq+0x30>
34185980:	4b3a      	ldr	r3, [pc, #232]	@ (34185a6c <RCCEx_GetSDMMCCLKFreq+0x134>)
34185982:	4298      	cmp	r0, r3
34185984:	d03b      	beq.n	341859fe <RCCEx_GetSDMMCCLKFreq+0xc6>
34185986:	f503 6380 	add.w	r3, r3, #1024	@ 0x400
3418598a:	4298      	cmp	r0, r3
3418598c:	d037      	beq.n	341859fe <RCCEx_GetSDMMCCLKFreq+0xc6>
3418598e:	f5a3 3380 	sub.w	r3, r3, #65536	@ 0x10000
34185992:	4298      	cmp	r0, r3
34185994:	d001      	beq.n	3418599a <RCCEx_GetSDMMCCLKFreq+0x62>
34185996:	2000      	movs	r0, #0
34185998:	e7e6      	b.n	34185968 <RCCEx_GetSDMMCCLKFreq+0x30>
  return ((READ_BIT(RCC->DIVENR, RCC_DIVENR_IC4EN) == RCC_DIVENR_IC4EN) ? 1UL : 0UL);
3418599a:	4b35      	ldr	r3, [pc, #212]	@ (34185a70 <RCCEx_GetSDMMCCLKFreq+0x138>)
3418599c:	f8d3 0240 	ldr.w	r0, [r3, #576]	@ 0x240
341859a0:	f010 0008 	ands.w	r0, r0, #8
341859a4:	d0e0      	beq.n	34185968 <RCCEx_GetSDMMCCLKFreq+0x30>
  return ((READ_BIT(RCC->IC4CFGR, RCC_IC4CFGR_IC4INT) >> RCC_IC4CFGR_IC4INT_Pos) + 1UL);
341859a6:	f8d3 00d0 	ldr.w	r0, [r3, #208]	@ 0xd0
341859aa:	f3c0 4007 	ubfx	r0, r0, #16, #8
341859ae:	1c44      	adds	r4, r0, #1
  return (uint32_t)(READ_BIT(RCC->IC4CFGR, RCC_IC4CFGR_IC4SEL));
341859b0:	f8d3 30d0 	ldr.w	r3, [r3, #208]	@ 0xd0
341859b4:	f003 5340 	and.w	r3, r3, #805306368	@ 0x30000000
        switch (LL_RCC_IC4_GetSource())
341859b8:	f1b3 5f00 	cmp.w	r3, #536870912	@ 0x20000000
341859bc:	d01a      	beq.n	341859f4 <RCCEx_GetSDMMCCLKFreq+0xbc>
341859be:	d80a      	bhi.n	341859d6 <RCCEx_GetSDMMCCLKFreq+0x9e>
341859c0:	b19b      	cbz	r3, 341859ea <RCCEx_GetSDMMCCLKFreq+0xb2>
341859c2:	f1b3 5f80 	cmp.w	r3, #268435456	@ 0x10000000
341859c6:	d104      	bne.n	341859d2 <RCCEx_GetSDMMCCLKFreq+0x9a>
            sdmmc_frequency = HAL_RCCEx_GetPLL2CLKFreq();
341859c8:	f7fe fd1c 	bl	34184404 <HAL_RCCEx_GetPLL2CLKFreq>
            sdmmc_frequency = sdmmc_frequency / ic_divider;
341859cc:	fbb0 f0f4 	udiv	r0, r0, r4
            break;
341859d0:	e7ca      	b.n	34185968 <RCCEx_GetSDMMCCLKFreq+0x30>
        switch (LL_RCC_IC4_GetSource())
341859d2:	2000      	movs	r0, #0
341859d4:	e7c8      	b.n	34185968 <RCCEx_GetSDMMCCLKFreq+0x30>
341859d6:	f1b3 5f40 	cmp.w	r3, #805306368	@ 0x30000000
341859da:	d104      	bne.n	341859e6 <RCCEx_GetSDMMCCLKFreq+0xae>
            sdmmc_frequency = HAL_RCCEx_GetPLL4CLKFreq();
341859dc:	f7fe fda2 	bl	34184524 <HAL_RCCEx_GetPLL4CLKFreq>
            sdmmc_frequency = sdmmc_frequency / ic_divider;
341859e0:	fbb0 f0f4 	udiv	r0, r0, r4
            break;
341859e4:	e7c0      	b.n	34185968 <RCCEx_GetSDMMCCLKFreq+0x30>
        switch (LL_RCC_IC4_GetSource())
341859e6:	2000      	movs	r0, #0
341859e8:	e7be      	b.n	34185968 <RCCEx_GetSDMMCCLKFreq+0x30>
            sdmmc_frequency = HAL_RCCEx_GetPLL1CLKFreq();
341859ea:	f7fe fcc3 	bl	34184374 <HAL_RCCEx_GetPLL1CLKFreq>
            sdmmc_frequency = sdmmc_frequency / ic_divider;
341859ee:	fbb0 f0f4 	udiv	r0, r0, r4
            break;
341859f2:	e7b9      	b.n	34185968 <RCCEx_GetSDMMCCLKFreq+0x30>
            sdmmc_frequency = HAL_RCCEx_GetPLL3CLKFreq();
341859f4:	f7fe fd4e 	bl	34184494 <HAL_RCCEx_GetPLL3CLKFreq>
            sdmmc_frequency = sdmmc_frequency / ic_divider;
341859f8:	fbb0 f0f4 	udiv	r0, r0, r4
            break;
341859fc:	e7b4      	b.n	34185968 <RCCEx_GetSDMMCCLKFreq+0x30>
  return ((READ_BIT(RCC->DIVENR, RCC_DIVENR_IC5EN) == RCC_DIVENR_IC5EN) ? 1UL : 0UL);
341859fe:	4b1c      	ldr	r3, [pc, #112]	@ (34185a70 <RCCEx_GetSDMMCCLKFreq+0x138>)
34185a00:	f8d3 0240 	ldr.w	r0, [r3, #576]	@ 0x240
34185a04:	f010 0010 	ands.w	r0, r0, #16
34185a08:	d0ae      	beq.n	34185968 <RCCEx_GetSDMMCCLKFreq+0x30>
  return ((READ_BIT(RCC->IC5CFGR, RCC_IC5CFGR_IC5INT) >> RCC_IC5CFGR_IC5INT_Pos) + 1UL);
34185a0a:	f8d3 00d4 	ldr.w	r0, [r3, #212]	@ 0xd4
34185a0e:	f3c0 4007 	ubfx	r0, r0, #16, #8
34185a12:	1c44      	adds	r4, r0, #1
  return (uint32_t)(READ_BIT(RCC->IC5CFGR, RCC_IC5CFGR_IC5SEL));
34185a14:	f8d3 30d4 	ldr.w	r3, [r3, #212]	@ 0xd4
34185a18:	f003 5340 	and.w	r3, r3, #805306368	@ 0x30000000
        switch (LL_RCC_IC5_GetSource())
34185a1c:	f1b3 5f00 	cmp.w	r3, #536870912	@ 0x20000000
34185a20:	d01a      	beq.n	34185a58 <RCCEx_GetSDMMCCLKFreq+0x120>
34185a22:	d80a      	bhi.n	34185a3a <RCCEx_GetSDMMCCLKFreq+0x102>
34185a24:	b19b      	cbz	r3, 34185a4e <RCCEx_GetSDMMCCLKFreq+0x116>
34185a26:	f1b3 5f80 	cmp.w	r3, #268435456	@ 0x10000000
34185a2a:	d104      	bne.n	34185a36 <RCCEx_GetSDMMCCLKFreq+0xfe>
            sdmmc_frequency = HAL_RCCEx_GetPLL2CLKFreq();
34185a2c:	f7fe fcea 	bl	34184404 <HAL_RCCEx_GetPLL2CLKFreq>
            sdmmc_frequency = sdmmc_frequency / ic_divider;
34185a30:	fbb0 f0f4 	udiv	r0, r0, r4
            break;
34185a34:	e798      	b.n	34185968 <RCCEx_GetSDMMCCLKFreq+0x30>
        switch (LL_RCC_IC5_GetSource())
34185a36:	2000      	movs	r0, #0
34185a38:	e796      	b.n	34185968 <RCCEx_GetSDMMCCLKFreq+0x30>
34185a3a:	f1b3 5f40 	cmp.w	r3, #805306368	@ 0x30000000
34185a3e:	d104      	bne.n	34185a4a <RCCEx_GetSDMMCCLKFreq+0x112>
            sdmmc_frequency = HAL_RCCEx_GetPLL4CLKFreq();
34185a40:	f7fe fd70 	bl	34184524 <HAL_RCCEx_GetPLL4CLKFreq>
            sdmmc_frequency = sdmmc_frequency / ic_divider;
34185a44:	fbb0 f0f4 	udiv	r0, r0, r4
  return sdmmc_frequency;
34185a48:	e78e      	b.n	34185968 <RCCEx_GetSDMMCCLKFreq+0x30>
        switch (LL_RCC_IC5_GetSource())
34185a4a:	2000      	movs	r0, #0
34185a4c:	e78c      	b.n	34185968 <RCCEx_GetSDMMCCLKFreq+0x30>
            sdmmc_frequency = HAL_RCCEx_GetPLL1CLKFreq();
34185a4e:	f7fe fc91 	bl	34184374 <HAL_RCCEx_GetPLL1CLKFreq>
            sdmmc_frequency = sdmmc_frequency / ic_divider;
34185a52:	fbb0 f0f4 	udiv	r0, r0, r4
            break;
34185a56:	e787      	b.n	34185968 <RCCEx_GetSDMMCCLKFreq+0x30>
            sdmmc_frequency = HAL_RCCEx_GetPLL3CLKFreq();
34185a58:	f7fe fd1c 	bl	34184494 <HAL_RCCEx_GetPLL3CLKFreq>
            sdmmc_frequency = sdmmc_frequency / ic_divider;
34185a5c:	fbb0 f0f4 	udiv	r0, r0, r4
            break;
34185a60:	e782      	b.n	34185968 <RCCEx_GetSDMMCCLKFreq+0x30>
34185a62:	bf00      	nop
34185a64:	0302001c 	.word	0x0302001c
34185a68:	0301041c 	.word	0x0301041c
34185a6c:	0303001c 	.word	0x0303001c
34185a70:	56028000 	.word	0x56028000

34185a74 <RCCEx_GetSPDIFRXCLKFreq>:
  *         @arg @ref RCCEx_SPDIFRX1_Clock_Source
  * @retval SPDIF clock frequency (in Hz)
  *         - @ref  RCC_PERIPH_FREQUENCY_NO indicates that oscillator is not ready
  */
static uint32_t RCCEx_GetSPDIFRXCLKFreq(uint32_t SPDIFRXxSource)
{
34185a74:	b510      	push	{r4, lr}
  return (uint32_t)(READ_BIT(RCC->CCIPR9, RCC_CCIPR9_SPDIFRX1SEL));
34185a76:	4b49      	ldr	r3, [pc, #292]	@ (34185b9c <RCCEx_GetSPDIFRXCLKFreq+0x128>)
34185a78:	f8d3 3164 	ldr.w	r3, [r3, #356]	@ 0x164
34185a7c:	f003 0307 	and.w	r3, r3, #7
  uint32_t spdifrx_frequency = RCC_PERIPH_FREQUENCY_NO;
  uint32_t ic_divider;

  switch (LL_RCC_GetSPDIFRXClockSource(SPDIFRXxSource))
34185a80:	2b06      	cmp	r3, #6
34185a82:	d805      	bhi.n	34185a90 <RCCEx_GetSPDIFRXCLKFreq+0x1c>
34185a84:	e8df f003 	tbb	[pc, r3]
34185a88:	43110d06 	.word	0x43110d06
34185a8c:	7580      	.short	0x7580
34185a8e:	87          	.byte	0x87
34185a8f:	00          	.byte	0x00
34185a90:	2000      	movs	r0, #0
34185a92:	e081      	b.n	34185b98 <RCCEx_GetSPDIFRXCLKFreq+0x124>
  {
    case LL_RCC_SPDIFRX1_CLKSOURCE_PCLK1:
      spdifrx_frequency = RCCEx_GetPCLK1Freq(RCCEx_GetHCLKFreq(HAL_RCC_GetSysClockFreq()));
34185a94:	f7fc fdce 	bl	34182634 <HAL_RCC_GetSysClockFreq>
34185a98:	f7fc fe44 	bl	34182724 <RCCEx_GetHCLKFreq>
34185a9c:	f7fc fe4a 	bl	34182734 <RCCEx_GetPCLK1Freq>
      break;
34185aa0:	e07a      	b.n	34185b98 <RCCEx_GetSPDIFRXCLKFreq+0x124>

    case LL_RCC_SPDIFRX1_CLKSOURCE_CLKP:
      spdifrx_frequency = RCCEx_GetCLKPCLKFreq(LL_RCC_CLKP_CLKSOURCE);
34185aa2:	2007      	movs	r0, #7
34185aa4:	f7fe fdbc 	bl	34184620 <RCCEx_GetCLKPCLKFreq>
      break;
34185aa8:	e076      	b.n	34185b98 <RCCEx_GetSPDIFRXCLKFreq+0x124>
  return ((READ_BIT(RCC->DIVENR, RCC_DIVENR_IC7EN) == RCC_DIVENR_IC7EN) ? 1UL : 0UL);
34185aaa:	4b3c      	ldr	r3, [pc, #240]	@ (34185b9c <RCCEx_GetSPDIFRXCLKFreq+0x128>)
34185aac:	f8d3 0240 	ldr.w	r0, [r3, #576]	@ 0x240
34185ab0:	f010 0040 	ands.w	r0, r0, #64	@ 0x40
34185ab4:	d070      	beq.n	34185b98 <RCCEx_GetSPDIFRXCLKFreq+0x124>
  return ((READ_BIT(RCC->IC7CFGR, RCC_IC7CFGR_IC7INT) >> RCC_IC7CFGR_IC7INT_Pos) + 1UL);
34185ab6:	f8d3 00dc 	ldr.w	r0, [r3, #220]	@ 0xdc
34185aba:	f3c0 4007 	ubfx	r0, r0, #16, #8
34185abe:	1c44      	adds	r4, r0, #1
  return (uint32_t)(READ_BIT(RCC->IC7CFGR, RCC_IC7CFGR_IC7SEL));
34185ac0:	f8d3 30dc 	ldr.w	r3, [r3, #220]	@ 0xdc
34185ac4:	f003 5340 	and.w	r3, r3, #805306368	@ 0x30000000

    case LL_RCC_SPDIFRX1_CLKSOURCE_IC7:
      if (LL_RCC_IC7_IsEnabled() != 0U)
      {
        ic_divider = LL_RCC_IC7_GetDivider();
        switch (LL_RCC_IC7_GetSource())
34185ac8:	f1b3 5f00 	cmp.w	r3, #536870912	@ 0x20000000
34185acc:	d01a      	beq.n	34185b04 <RCCEx_GetSPDIFRXCLKFreq+0x90>
34185ace:	d80a      	bhi.n	34185ae6 <RCCEx_GetSPDIFRXCLKFreq+0x72>
34185ad0:	b19b      	cbz	r3, 34185afa <RCCEx_GetSPDIFRXCLKFreq+0x86>
34185ad2:	f1b3 5f80 	cmp.w	r3, #268435456	@ 0x10000000
34185ad6:	d104      	bne.n	34185ae2 <RCCEx_GetSPDIFRXCLKFreq+0x6e>
          case LL_RCC_ICCLKSOURCE_PLL1:
            spdifrx_frequency = HAL_RCCEx_GetPLL1CLKFreq();
            spdifrx_frequency = spdifrx_frequency / ic_divider;
            break;
          case LL_RCC_ICCLKSOURCE_PLL2:
            spdifrx_frequency = HAL_RCCEx_GetPLL2CLKFreq();
34185ad8:	f7fe fc94 	bl	34184404 <HAL_RCCEx_GetPLL2CLKFreq>
            spdifrx_frequency = spdifrx_frequency / ic_divider;
34185adc:	fbb0 f0f4 	udiv	r0, r0, r4
            break;
34185ae0:	e05a      	b.n	34185b98 <RCCEx_GetSPDIFRXCLKFreq+0x124>
        switch (LL_RCC_IC7_GetSource())
34185ae2:	2000      	movs	r0, #0
34185ae4:	e058      	b.n	34185b98 <RCCEx_GetSPDIFRXCLKFreq+0x124>
34185ae6:	f1b3 5f40 	cmp.w	r3, #805306368	@ 0x30000000
34185aea:	d104      	bne.n	34185af6 <RCCEx_GetSPDIFRXCLKFreq+0x82>
          case LL_RCC_ICCLKSOURCE_PLL3:
            spdifrx_frequency = HAL_RCCEx_GetPLL3CLKFreq();
            spdifrx_frequency = spdifrx_frequency / ic_divider;
            break;
          case LL_RCC_ICCLKSOURCE_PLL4:
            spdifrx_frequency = HAL_RCCEx_GetPLL4CLKFreq();
34185aec:	f7fe fd1a 	bl	34184524 <HAL_RCCEx_GetPLL4CLKFreq>
            spdifrx_frequency = spdifrx_frequency / ic_divider;
34185af0:	fbb0 f0f4 	udiv	r0, r0, r4
            break;
34185af4:	e050      	b.n	34185b98 <RCCEx_GetSPDIFRXCLKFreq+0x124>
        switch (LL_RCC_IC7_GetSource())
34185af6:	2000      	movs	r0, #0
34185af8:	e04e      	b.n	34185b98 <RCCEx_GetSPDIFRXCLKFreq+0x124>
            spdifrx_frequency = HAL_RCCEx_GetPLL1CLKFreq();
34185afa:	f7fe fc3b 	bl	34184374 <HAL_RCCEx_GetPLL1CLKFreq>
            spdifrx_frequency = spdifrx_frequency / ic_divider;
34185afe:	fbb0 f0f4 	udiv	r0, r0, r4
            break;
34185b02:	e049      	b.n	34185b98 <RCCEx_GetSPDIFRXCLKFreq+0x124>
            spdifrx_frequency = HAL_RCCEx_GetPLL3CLKFreq();
34185b04:	f7fe fcc6 	bl	34184494 <HAL_RCCEx_GetPLL3CLKFreq>
            spdifrx_frequency = spdifrx_frequency / ic_divider;
34185b08:	fbb0 f0f4 	udiv	r0, r0, r4
            break;
34185b0c:	e044      	b.n	34185b98 <RCCEx_GetSPDIFRXCLKFreq+0x124>
  return ((READ_BIT(RCC->DIVENR, RCC_DIVENR_IC8EN) == RCC_DIVENR_IC8EN) ? 1UL : 0UL);
34185b0e:	4b23      	ldr	r3, [pc, #140]	@ (34185b9c <RCCEx_GetSPDIFRXCLKFreq+0x128>)
34185b10:	f8d3 0240 	ldr.w	r0, [r3, #576]	@ 0x240
34185b14:	f010 0080 	ands.w	r0, r0, #128	@ 0x80
34185b18:	d03e      	beq.n	34185b98 <RCCEx_GetSPDIFRXCLKFreq+0x124>
  return ((READ_BIT(RCC->IC8CFGR, RCC_IC8CFGR_IC8INT) >> RCC_IC8CFGR_IC8INT_Pos) + 1UL);
34185b1a:	f8d3 00e0 	ldr.w	r0, [r3, #224]	@ 0xe0
34185b1e:	f3c0 4007 	ubfx	r0, r0, #16, #8
34185b22:	1c44      	adds	r4, r0, #1
  return (uint32_t)(READ_BIT(RCC->IC8CFGR, RCC_IC8CFGR_IC8SEL));
34185b24:	f8d3 30e0 	ldr.w	r3, [r3, #224]	@ 0xe0
34185b28:	f003 5340 	and.w	r3, r3, #805306368	@ 0x30000000

    case LL_RCC_SPDIFRX1_CLKSOURCE_IC8:
      if (LL_RCC_IC8_IsEnabled() != 0U)
      {
        ic_divider = LL_RCC_IC8_GetDivider();
        switch (LL_RCC_IC8_GetSource())
34185b2c:	f1b3 5f00 	cmp.w	r3, #536870912	@ 0x20000000
34185b30:	d01a      	beq.n	34185b68 <RCCEx_GetSPDIFRXCLKFreq+0xf4>
34185b32:	d80a      	bhi.n	34185b4a <RCCEx_GetSPDIFRXCLKFreq+0xd6>
34185b34:	b19b      	cbz	r3, 34185b5e <RCCEx_GetSPDIFRXCLKFreq+0xea>
34185b36:	f1b3 5f80 	cmp.w	r3, #268435456	@ 0x10000000
34185b3a:	d104      	bne.n	34185b46 <RCCEx_GetSPDIFRXCLKFreq+0xd2>
          case LL_RCC_ICCLKSOURCE_PLL1:
            spdifrx_frequency = HAL_RCCEx_GetPLL1CLKFreq();
            spdifrx_frequency = spdifrx_frequency / ic_divider;
            break;
          case LL_RCC_ICCLKSOURCE_PLL2:
            spdifrx_frequency = HAL_RCCEx_GetPLL2CLKFreq();
34185b3c:	f7fe fc62 	bl	34184404 <HAL_RCCEx_GetPLL2CLKFreq>
            spdifrx_frequency = spdifrx_frequency / ic_divider;
34185b40:	fbb0 f0f4 	udiv	r0, r0, r4
            break;
34185b44:	e028      	b.n	34185b98 <RCCEx_GetSPDIFRXCLKFreq+0x124>
        switch (LL_RCC_IC8_GetSource())
34185b46:	2000      	movs	r0, #0
34185b48:	e026      	b.n	34185b98 <RCCEx_GetSPDIFRXCLKFreq+0x124>
34185b4a:	f1b3 5f40 	cmp.w	r3, #805306368	@ 0x30000000
34185b4e:	d104      	bne.n	34185b5a <RCCEx_GetSPDIFRXCLKFreq+0xe6>
          case LL_RCC_ICCLKSOURCE_PLL3:
            spdifrx_frequency = HAL_RCCEx_GetPLL3CLKFreq();
            spdifrx_frequency = spdifrx_frequency / ic_divider;
            break;
          case LL_RCC_ICCLKSOURCE_PLL4:
            spdifrx_frequency = HAL_RCCEx_GetPLL4CLKFreq();
34185b50:	f7fe fce8 	bl	34184524 <HAL_RCCEx_GetPLL4CLKFreq>
            spdifrx_frequency = spdifrx_frequency / ic_divider;
34185b54:	fbb0 f0f4 	udiv	r0, r0, r4
            break;
34185b58:	e01e      	b.n	34185b98 <RCCEx_GetSPDIFRXCLKFreq+0x124>
        switch (LL_RCC_IC8_GetSource())
34185b5a:	2000      	movs	r0, #0
34185b5c:	e01c      	b.n	34185b98 <RCCEx_GetSPDIFRXCLKFreq+0x124>
            spdifrx_frequency = HAL_RCCEx_GetPLL1CLKFreq();
34185b5e:	f7fe fc09 	bl	34184374 <HAL_RCCEx_GetPLL1CLKFreq>
            spdifrx_frequency = spdifrx_frequency / ic_divider;
34185b62:	fbb0 f0f4 	udiv	r0, r0, r4
            break;
34185b66:	e017      	b.n	34185b98 <RCCEx_GetSPDIFRXCLKFreq+0x124>
            spdifrx_frequency = HAL_RCCEx_GetPLL3CLKFreq();
34185b68:	f7fe fc94 	bl	34184494 <HAL_RCCEx_GetPLL3CLKFreq>
            spdifrx_frequency = spdifrx_frequency / ic_divider;
34185b6c:	fbb0 f0f4 	udiv	r0, r0, r4
            break;
34185b70:	e012      	b.n	34185b98 <RCCEx_GetSPDIFRXCLKFreq+0x124>
  return ((READ_BIT(RCC->SR, RCC_SR_HSIRDY) != 0UL) ? 1UL : 0UL);
34185b72:	4b0a      	ldr	r3, [pc, #40]	@ (34185b9c <RCCEx_GetSPDIFRXCLKFreq+0x128>)
34185b74:	6858      	ldr	r0, [r3, #4]
34185b76:	f010 0008 	ands.w	r0, r0, #8
34185b7a:	d00d      	beq.n	34185b98 <RCCEx_GetSPDIFRXCLKFreq+0x124>
  return (READ_BIT(RCC->HSICFGR, RCC_HSICFGR_HSIDIV));
34185b7c:	6c9b      	ldr	r3, [r3, #72]	@ 0x48
      break;

    case LL_RCC_SPDIFRX1_CLKSOURCE_HSI:
      if (LL_RCC_HSI_IsReady() != 0U)
      {
        spdifrx_frequency = HSI_VALUE >> (LL_RCC_HSI_GetDivider() >> RCC_HSICFGR_HSIDIV_Pos);
34185b7e:	f3c3 13c1 	ubfx	r3, r3, #7, #2
34185b82:	4807      	ldr	r0, [pc, #28]	@ (34185ba0 <RCCEx_GetSPDIFRXCLKFreq+0x12c>)
34185b84:	40d8      	lsrs	r0, r3
34185b86:	e007      	b.n	34185b98 <RCCEx_GetSPDIFRXCLKFreq+0x124>
  return ((READ_BIT(RCC->SR, RCC_SR_MSIRDY) != 0UL) ? 1UL : 0UL);
34185b88:	4b04      	ldr	r3, [pc, #16]	@ (34185b9c <RCCEx_GetSPDIFRXCLKFreq+0x128>)
34185b8a:	6858      	ldr	r0, [r3, #4]
34185b8c:	f010 0004 	ands.w	r0, r0, #4
34185b90:	d002      	beq.n	34185b98 <RCCEx_GetSPDIFRXCLKFreq+0x124>
      break;

    case LL_RCC_SPDIFRX1_CLKSOURCE_MSI:
      if (LL_RCC_MSI_IsReady() != 0U)
      {
        spdifrx_frequency = MSI_VALUE;
34185b92:	4804      	ldr	r0, [pc, #16]	@ (34185ba4 <RCCEx_GetSPDIFRXCLKFreq+0x130>)
    default:
      /* Unexpected case */
      break;
  }

  return spdifrx_frequency;
34185b94:	e000      	b.n	34185b98 <RCCEx_GetSPDIFRXCLKFreq+0x124>
      spdifrx_frequency = EXTERNAL_CLOCK_VALUE;
34185b96:	4804      	ldr	r0, [pc, #16]	@ (34185ba8 <RCCEx_GetSPDIFRXCLKFreq+0x134>)
}
34185b98:	bd10      	pop	{r4, pc}
34185b9a:	bf00      	nop
34185b9c:	56028000 	.word	0x56028000
34185ba0:	03d09000 	.word	0x03d09000
34185ba4:	003d0900 	.word	0x003d0900
34185ba8:	00bb8000 	.word	0x00bb8000

34185bac <RCCEx_GetSAICLKFreq>:
{
34185bac:	b510      	push	{r4, lr}
  return LL_RCC_GetClockSource(Periph);
34185bae:	f7fc fdab 	bl	34182708 <LL_RCC_GetClockSource>
  switch (LL_RCC_GetSAIClockSource(SAIxSource))
34185bb2:	4b6a      	ldr	r3, [pc, #424]	@ (34185d5c <RCCEx_GetSAICLKFreq+0x1b0>)
34185bb4:	4298      	cmp	r0, r3
34185bb6:	d06b      	beq.n	34185c90 <RCCEx_GetSAICLKFreq+0xe4>
34185bb8:	d84d      	bhi.n	34185c56 <RCCEx_GetSAICLKFreq+0xaa>
34185bba:	f5a3 3300 	sub.w	r3, r3, #131072	@ 0x20000
34185bbe:	4298      	cmp	r0, r3
34185bc0:	d02a      	beq.n	34185c18 <RCCEx_GetSAICLKFreq+0x6c>
34185bc2:	d81e      	bhi.n	34185c02 <RCCEx_GetSAICLKFreq+0x56>
34185bc4:	f5a3 3380 	sub.w	r3, r3, #65536	@ 0x10000
34185bc8:	4298      	cmp	r0, r3
34185bca:	d014      	beq.n	34185bf6 <RCCEx_GetSAICLKFreq+0x4a>
34185bcc:	d810      	bhi.n	34185bf0 <RCCEx_GetSAICLKFreq+0x44>
34185bce:	f5a3 3380 	sub.w	r3, r3, #65536	@ 0x10000
34185bd2:	4298      	cmp	r0, r3
34185bd4:	d003      	beq.n	34185bde <RCCEx_GetSAICLKFreq+0x32>
34185bd6:	f503 6380 	add.w	r3, r3, #1024	@ 0x400
34185bda:	4298      	cmp	r0, r3
34185bdc:	d106      	bne.n	34185bec <RCCEx_GetSAICLKFreq+0x40>
      sai_frequency = RCCEx_GetPCLK2Freq(RCCEx_GetHCLKFreq(HAL_RCC_GetSysClockFreq()));
34185bde:	f7fc fd29 	bl	34182634 <HAL_RCC_GetSysClockFreq>
34185be2:	f7fc fd9f 	bl	34182724 <RCCEx_GetHCLKFreq>
34185be6:	f7fc fdad 	bl	34182744 <RCCEx_GetPCLK2Freq>
}
34185bea:	bd10      	pop	{r4, pc}
  switch (LL_RCC_GetSAIClockSource(SAIxSource))
34185bec:	2000      	movs	r0, #0
34185bee:	e7fc      	b.n	34185bea <RCCEx_GetSAICLKFreq+0x3e>
34185bf0:	4b5b      	ldr	r3, [pc, #364]	@ (34185d60 <RCCEx_GetSAICLKFreq+0x1b4>)
34185bf2:	4298      	cmp	r0, r3
34185bf4:	d103      	bne.n	34185bfe <RCCEx_GetSAICLKFreq+0x52>
      sai_frequency = RCCEx_GetCLKPCLKFreq(LL_RCC_CLKP_CLKSOURCE);
34185bf6:	2007      	movs	r0, #7
34185bf8:	f7fe fd12 	bl	34184620 <RCCEx_GetCLKPCLKFreq>
      break;
34185bfc:	e7f5      	b.n	34185bea <RCCEx_GetSAICLKFreq+0x3e>
  switch (LL_RCC_GetSAIClockSource(SAIxSource))
34185bfe:	2000      	movs	r0, #0
34185c00:	e7f3      	b.n	34185bea <RCCEx_GetSAICLKFreq+0x3e>
34185c02:	4b58      	ldr	r3, [pc, #352]	@ (34185d64 <RCCEx_GetSAICLKFreq+0x1b8>)
34185c04:	4298      	cmp	r0, r3
34185c06:	d062      	beq.n	34185cce <RCCEx_GetSAICLKFreq+0x122>
34185c08:	f503 6380 	add.w	r3, r3, #1024	@ 0x400
34185c0c:	4298      	cmp	r0, r3
34185c0e:	d05e      	beq.n	34185cce <RCCEx_GetSAICLKFreq+0x122>
34185c10:	f5a3 3380 	sub.w	r3, r3, #65536	@ 0x10000
34185c14:	4298      	cmp	r0, r3
34185c16:	d11c      	bne.n	34185c52 <RCCEx_GetSAICLKFreq+0xa6>
  return ((READ_BIT(RCC->DIVENR, RCC_DIVENR_IC7EN) == RCC_DIVENR_IC7EN) ? 1UL : 0UL);
34185c18:	4b53      	ldr	r3, [pc, #332]	@ (34185d68 <RCCEx_GetSAICLKFreq+0x1bc>)
34185c1a:	f8d3 0240 	ldr.w	r0, [r3, #576]	@ 0x240
34185c1e:	f010 0040 	ands.w	r0, r0, #64	@ 0x40
34185c22:	d0e2      	beq.n	34185bea <RCCEx_GetSAICLKFreq+0x3e>
  return ((READ_BIT(RCC->IC7CFGR, RCC_IC7CFGR_IC7INT) >> RCC_IC7CFGR_IC7INT_Pos) + 1UL);
34185c24:	f8d3 00dc 	ldr.w	r0, [r3, #220]	@ 0xdc
34185c28:	f3c0 4007 	ubfx	r0, r0, #16, #8
34185c2c:	1c44      	adds	r4, r0, #1
  return (uint32_t)(READ_BIT(RCC->IC7CFGR, RCC_IC7CFGR_IC7SEL));
34185c2e:	f8d3 30dc 	ldr.w	r3, [r3, #220]	@ 0xdc
34185c32:	f003 5340 	and.w	r3, r3, #805306368	@ 0x30000000
        switch (LL_RCC_IC7_GetSource())
34185c36:	f1b3 5f00 	cmp.w	r3, #536870912	@ 0x20000000
34185c3a:	d043      	beq.n	34185cc4 <RCCEx_GetSAICLKFreq+0x118>
34185c3c:	d833      	bhi.n	34185ca6 <RCCEx_GetSAICLKFreq+0xfa>
34185c3e:	2b00      	cmp	r3, #0
34185c40:	d03b      	beq.n	34185cba <RCCEx_GetSAICLKFreq+0x10e>
34185c42:	f1b3 5f80 	cmp.w	r3, #268435456	@ 0x10000000
34185c46:	d12c      	bne.n	34185ca2 <RCCEx_GetSAICLKFreq+0xf6>
            sai_frequency = HAL_RCCEx_GetPLL2CLKFreq();
34185c48:	f7fe fbdc 	bl	34184404 <HAL_RCCEx_GetPLL2CLKFreq>
            sai_frequency = sai_frequency / ic_divider;
34185c4c:	fbb0 f0f4 	udiv	r0, r0, r4
            break;
34185c50:	e7cb      	b.n	34185bea <RCCEx_GetSAICLKFreq+0x3e>
  switch (LL_RCC_GetSAIClockSource(SAIxSource))
34185c52:	2000      	movs	r0, #0
34185c54:	e7c9      	b.n	34185bea <RCCEx_GetSAICLKFreq+0x3e>
34185c56:	4b45      	ldr	r3, [pc, #276]	@ (34185d6c <RCCEx_GetSAICLKFreq+0x1c0>)
34185c58:	4298      	cmp	r0, r3
34185c5a:	d07a      	beq.n	34185d52 <RCCEx_GetSAICLKFreq+0x1a6>
34185c5c:	d90c      	bls.n	34185c78 <RCCEx_GetSAICLKFreq+0xcc>
34185c5e:	4b44      	ldr	r3, [pc, #272]	@ (34185d70 <RCCEx_GetSAICLKFreq+0x1c4>)
34185c60:	4298      	cmp	r0, r3
34185c62:	d072      	beq.n	34185d4a <RCCEx_GetSAICLKFreq+0x19e>
34185c64:	f503 6380 	add.w	r3, r3, #1024	@ 0x400
34185c68:	4298      	cmp	r0, r3
34185c6a:	d06e      	beq.n	34185d4a <RCCEx_GetSAICLKFreq+0x19e>
34185c6c:	f5a3 3380 	sub.w	r3, r3, #65536	@ 0x10000
34185c70:	4298      	cmp	r0, r3
34185c72:	d170      	bne.n	34185d56 <RCCEx_GetSAICLKFreq+0x1aa>
      sai_frequency = EXTERNAL_CLOCK_VALUE;
34185c74:	483f      	ldr	r0, [pc, #252]	@ (34185d74 <RCCEx_GetSAICLKFreq+0x1c8>)
34185c76:	e7b8      	b.n	34185bea <RCCEx_GetSAICLKFreq+0x3e>
  switch (LL_RCC_GetSAIClockSource(SAIxSource))
34185c78:	f5a3 3380 	sub.w	r3, r3, #65536	@ 0x10000
34185c7c:	4298      	cmp	r0, r3
34185c7e:	d058      	beq.n	34185d32 <RCCEx_GetSAICLKFreq+0x186>
34185c80:	f503 6380 	add.w	r3, r3, #1024	@ 0x400
34185c84:	4298      	cmp	r0, r3
34185c86:	d054      	beq.n	34185d32 <RCCEx_GetSAICLKFreq+0x186>
34185c88:	f5a3 3380 	sub.w	r3, r3, #65536	@ 0x10000
34185c8c:	4298      	cmp	r0, r3
34185c8e:	d106      	bne.n	34185c9e <RCCEx_GetSAICLKFreq+0xf2>
  return ((READ_BIT(RCC->SR, RCC_SR_MSIRDY) != 0UL) ? 1UL : 0UL);
34185c90:	4b35      	ldr	r3, [pc, #212]	@ (34185d68 <RCCEx_GetSAICLKFreq+0x1bc>)
34185c92:	6858      	ldr	r0, [r3, #4]
34185c94:	f010 0004 	ands.w	r0, r0, #4
34185c98:	d0a7      	beq.n	34185bea <RCCEx_GetSAICLKFreq+0x3e>
        sai_frequency = MSI_VALUE;
34185c9a:	4837      	ldr	r0, [pc, #220]	@ (34185d78 <RCCEx_GetSAICLKFreq+0x1cc>)
  return sai_frequency;
34185c9c:	e7a5      	b.n	34185bea <RCCEx_GetSAICLKFreq+0x3e>
  switch (LL_RCC_GetSAIClockSource(SAIxSource))
34185c9e:	2000      	movs	r0, #0
34185ca0:	e7a3      	b.n	34185bea <RCCEx_GetSAICLKFreq+0x3e>
        switch (LL_RCC_IC7_GetSource())
34185ca2:	2000      	movs	r0, #0
34185ca4:	e7a1      	b.n	34185bea <RCCEx_GetSAICLKFreq+0x3e>
34185ca6:	f1b3 5f40 	cmp.w	r3, #805306368	@ 0x30000000
34185caa:	d104      	bne.n	34185cb6 <RCCEx_GetSAICLKFreq+0x10a>
            sai_frequency = HAL_RCCEx_GetPLL4CLKFreq();
34185cac:	f7fe fc3a 	bl	34184524 <HAL_RCCEx_GetPLL4CLKFreq>
            sai_frequency = sai_frequency / ic_divider;
34185cb0:	fbb0 f0f4 	udiv	r0, r0, r4
            break;
34185cb4:	e799      	b.n	34185bea <RCCEx_GetSAICLKFreq+0x3e>
        switch (LL_RCC_IC7_GetSource())
34185cb6:	2000      	movs	r0, #0
34185cb8:	e797      	b.n	34185bea <RCCEx_GetSAICLKFreq+0x3e>
            sai_frequency = HAL_RCCEx_GetPLL1CLKFreq();
34185cba:	f7fe fb5b 	bl	34184374 <HAL_RCCEx_GetPLL1CLKFreq>
            sai_frequency = sai_frequency / ic_divider;
34185cbe:	fbb0 f0f4 	udiv	r0, r0, r4
            break;
34185cc2:	e792      	b.n	34185bea <RCCEx_GetSAICLKFreq+0x3e>
            sai_frequency = HAL_RCCEx_GetPLL3CLKFreq();
34185cc4:	f7fe fbe6 	bl	34184494 <HAL_RCCEx_GetPLL3CLKFreq>
            sai_frequency = sai_frequency / ic_divider;
34185cc8:	fbb0 f0f4 	udiv	r0, r0, r4
            break;
34185ccc:	e78d      	b.n	34185bea <RCCEx_GetSAICLKFreq+0x3e>
  return ((READ_BIT(RCC->DIVENR, RCC_DIVENR_IC8EN) == RCC_DIVENR_IC8EN) ? 1UL : 0UL);
34185cce:	4b26      	ldr	r3, [pc, #152]	@ (34185d68 <RCCEx_GetSAICLKFreq+0x1bc>)
34185cd0:	f8d3 0240 	ldr.w	r0, [r3, #576]	@ 0x240
34185cd4:	f010 0080 	ands.w	r0, r0, #128	@ 0x80
34185cd8:	d087      	beq.n	34185bea <RCCEx_GetSAICLKFreq+0x3e>
  return ((READ_BIT(RCC->IC8CFGR, RCC_IC8CFGR_IC8INT) >> RCC_IC8CFGR_IC8INT_Pos) + 1UL);
34185cda:	f8d3 00e0 	ldr.w	r0, [r3, #224]	@ 0xe0
34185cde:	f3c0 4007 	ubfx	r0, r0, #16, #8
34185ce2:	1c44      	adds	r4, r0, #1
  return (uint32_t)(READ_BIT(RCC->IC8CFGR, RCC_IC8CFGR_IC8SEL));
34185ce4:	f8d3 30e0 	ldr.w	r3, [r3, #224]	@ 0xe0
34185ce8:	f003 5340 	and.w	r3, r3, #805306368	@ 0x30000000
        switch (LL_RCC_IC8_GetSource())
34185cec:	f1b3 5f00 	cmp.w	r3, #536870912	@ 0x20000000
34185cf0:	d01a      	beq.n	34185d28 <RCCEx_GetSAICLKFreq+0x17c>
34185cf2:	d80a      	bhi.n	34185d0a <RCCEx_GetSAICLKFreq+0x15e>
34185cf4:	b19b      	cbz	r3, 34185d1e <RCCEx_GetSAICLKFreq+0x172>
34185cf6:	f1b3 5f80 	cmp.w	r3, #268435456	@ 0x10000000
34185cfa:	d104      	bne.n	34185d06 <RCCEx_GetSAICLKFreq+0x15a>
            sai_frequency = HAL_RCCEx_GetPLL2CLKFreq();
34185cfc:	f7fe fb82 	bl	34184404 <HAL_RCCEx_GetPLL2CLKFreq>
            sai_frequency = sai_frequency / ic_divider;
34185d00:	fbb0 f0f4 	udiv	r0, r0, r4
            break;
34185d04:	e771      	b.n	34185bea <RCCEx_GetSAICLKFreq+0x3e>
        switch (LL_RCC_IC8_GetSource())
34185d06:	2000      	movs	r0, #0
34185d08:	e76f      	b.n	34185bea <RCCEx_GetSAICLKFreq+0x3e>
34185d0a:	f1b3 5f40 	cmp.w	r3, #805306368	@ 0x30000000
34185d0e:	d104      	bne.n	34185d1a <RCCEx_GetSAICLKFreq+0x16e>
            sai_frequency = HAL_RCCEx_GetPLL4CLKFreq();
34185d10:	f7fe fc08 	bl	34184524 <HAL_RCCEx_GetPLL4CLKFreq>
            sai_frequency = sai_frequency / ic_divider;
34185d14:	fbb0 f0f4 	udiv	r0, r0, r4
            break;
34185d18:	e767      	b.n	34185bea <RCCEx_GetSAICLKFreq+0x3e>
        switch (LL_RCC_IC8_GetSource())
34185d1a:	2000      	movs	r0, #0
34185d1c:	e765      	b.n	34185bea <RCCEx_GetSAICLKFreq+0x3e>
            sai_frequency = HAL_RCCEx_GetPLL1CLKFreq();
34185d1e:	f7fe fb29 	bl	34184374 <HAL_RCCEx_GetPLL1CLKFreq>
            sai_frequency = sai_frequency / ic_divider;
34185d22:	fbb0 f0f4 	udiv	r0, r0, r4
            break;
34185d26:	e760      	b.n	34185bea <RCCEx_GetSAICLKFreq+0x3e>
            sai_frequency = HAL_RCCEx_GetPLL3CLKFreq();
34185d28:	f7fe fbb4 	bl	34184494 <HAL_RCCEx_GetPLL3CLKFreq>
            sai_frequency = sai_frequency / ic_divider;
34185d2c:	fbb0 f0f4 	udiv	r0, r0, r4
            break;
34185d30:	e75b      	b.n	34185bea <RCCEx_GetSAICLKFreq+0x3e>
  return ((READ_BIT(RCC->SR, RCC_SR_HSIRDY) != 0UL) ? 1UL : 0UL);
34185d32:	4b0d      	ldr	r3, [pc, #52]	@ (34185d68 <RCCEx_GetSAICLKFreq+0x1bc>)
34185d34:	6858      	ldr	r0, [r3, #4]
34185d36:	f010 0008 	ands.w	r0, r0, #8
34185d3a:	f43f af56 	beq.w	34185bea <RCCEx_GetSAICLKFreq+0x3e>
  return (READ_BIT(RCC->HSICFGR, RCC_HSICFGR_HSIDIV));
34185d3e:	6c9b      	ldr	r3, [r3, #72]	@ 0x48
        sai_frequency = HSI_VALUE >> (LL_RCC_HSI_GetDivider() >> RCC_HSICFGR_HSIDIV_Pos);
34185d40:	f3c3 13c1 	ubfx	r3, r3, #7, #2
34185d44:	480d      	ldr	r0, [pc, #52]	@ (34185d7c <RCCEx_GetSAICLKFreq+0x1d0>)
34185d46:	40d8      	lsrs	r0, r3
34185d48:	e74f      	b.n	34185bea <RCCEx_GetSAICLKFreq+0x3e>
      sai_frequency = RCCEx_GetSPDIFRXCLKFreq(LL_RCC_SPDIFRX1_CLKSOURCE);
34185d4a:	2007      	movs	r0, #7
34185d4c:	f7ff fe92 	bl	34185a74 <RCCEx_GetSPDIFRXCLKFreq>
      break;
34185d50:	e74b      	b.n	34185bea <RCCEx_GetSAICLKFreq+0x3e>
      sai_frequency = EXTERNAL_CLOCK_VALUE;
34185d52:	4808      	ldr	r0, [pc, #32]	@ (34185d74 <RCCEx_GetSAICLKFreq+0x1c8>)
34185d54:	e749      	b.n	34185bea <RCCEx_GetSAICLKFreq+0x3e>
  switch (LL_RCC_GetSAIClockSource(SAIxSource))
34185d56:	2000      	movs	r0, #0
34185d58:	e747      	b.n	34185bea <RCCEx_GetSAICLKFreq+0x3e>
34185d5a:	bf00      	nop
34185d5c:	07041418 	.word	0x07041418
34185d60:	07011818 	.word	0x07011818
34185d64:	07031418 	.word	0x07031418
34185d68:	56028000 	.word	0x56028000
34185d6c:	07061418 	.word	0x07061418
34185d70:	07071418 	.word	0x07071418
34185d74:	00bb8000 	.word	0x00bb8000
34185d78:	003d0900 	.word	0x003d0900
34185d7c:	03d09000 	.word	0x03d09000

34185d80 <RCCEx_GetSPICLKFreq>:
  *         @arg @ref RCCEx_SPI6_Clock_Source
  * @retval SPI clock frequency (in Hz)
  *         - @ref  RCC_PERIPH_FREQUENCY_NO indicates that oscillator is not ready
  */
static uint32_t RCCEx_GetSPICLKFreq(uint32_t SPIxSource)
{
34185d80:	b510      	push	{r4, lr}
  return LL_RCC_GetClockSource(Periph);
34185d82:	f7fc fcc1 	bl	34182708 <LL_RCC_GetClockSource>
  uint32_t spi_frequency = RCC_PERIPH_FREQUENCY_NO;
  uint32_t ic_divider;

  switch (LL_RCC_GetSPIClockSource(SPIxSource))
34185d86:	4baa      	ldr	r3, [pc, #680]	@ (34186030 <RCCEx_GetSPICLKFreq+0x2b0>)
34185d88:	4298      	cmp	r0, r3
34185d8a:	f000 8083 	beq.w	34185e94 <RCCEx_GetSPICLKFreq+0x114>
34185d8e:	f200 80ad 	bhi.w	34185eec <RCCEx_GetSPICLKFreq+0x16c>
34185d92:	f5a3 333c 	sub.w	r3, r3, #192512	@ 0x2f000
34185d96:	4298      	cmp	r0, r3
34185d98:	f000 8174 	beq.w	34186084 <RCCEx_GetSPICLKFreq+0x304>
34185d9c:	d917      	bls.n	34185dce <RCCEx_GetSPICLKFreq+0x4e>
34185d9e:	4ba5      	ldr	r3, [pc, #660]	@ (34186034 <RCCEx_GetSPICLKFreq+0x2b4>)
34185da0:	4298      	cmp	r0, r3
34185da2:	d052      	beq.n	34185e4a <RCCEx_GetSPICLKFreq+0xca>
34185da4:	d849      	bhi.n	34185e3a <RCCEx_GetSPICLKFreq+0xba>
34185da6:	f5a3 4378 	sub.w	r3, r3, #63488	@ 0xf800
34185daa:	4298      	cmp	r0, r3
34185dac:	d00b      	beq.n	34185dc6 <RCCEx_GetSPICLKFreq+0x46>
34185dae:	d934      	bls.n	34185e1a <RCCEx_GetSPICLKFreq+0x9a>
34185db0:	4ba1      	ldr	r3, [pc, #644]	@ (34186038 <RCCEx_GetSPICLKFreq+0x2b8>)
34185db2:	4298      	cmp	r0, r3
34185db4:	d007      	beq.n	34185dc6 <RCCEx_GetSPICLKFreq+0x46>
34185db6:	f503 436c 	add.w	r3, r3, #60416	@ 0xec00
34185dba:	4298      	cmp	r0, r3
34185dbc:	d045      	beq.n	34185e4a <RCCEx_GetSPICLKFreq+0xca>
34185dbe:	f5a3 4370 	sub.w	r3, r3, #61440	@ 0xf000
34185dc2:	4298      	cmp	r0, r3
34185dc4:	d137      	bne.n	34185e36 <RCCEx_GetSPICLKFreq+0xb6>
    case LL_RCC_SPI2_CLKSOURCE_CLKP:
    case LL_RCC_SPI3_CLKSOURCE_CLKP:
    case LL_RCC_SPI4_CLKSOURCE_CLKP:
    case LL_RCC_SPI5_CLKSOURCE_CLKP:
    case LL_RCC_SPI6_CLKSOURCE_CLKP:
      spi_frequency = RCCEx_GetCLKPCLKFreq(LL_RCC_CLKP_CLKSOURCE);
34185dc6:	2007      	movs	r0, #7
34185dc8:	f7fe fc2a 	bl	34184620 <RCCEx_GetCLKPCLKFreq>
      break;
34185dcc:	e012      	b.n	34185df4 <RCCEx_GetSPICLKFreq+0x74>
  switch (LL_RCC_GetSPIClockSource(SPIxSource))
34185dce:	f5a3 6340 	sub.w	r3, r3, #3072	@ 0xc00
34185dd2:	4298      	cmp	r0, r3
34185dd4:	d008      	beq.n	34185de8 <RCCEx_GetSPICLKFreq+0x68>
34185dd6:	d810      	bhi.n	34185dfa <RCCEx_GetSPICLKFreq+0x7a>
34185dd8:	f5a3 6300 	sub.w	r3, r3, #2048	@ 0x800
34185ddc:	4298      	cmp	r0, r3
34185dde:	d013      	beq.n	34185e08 <RCCEx_GetSPICLKFreq+0x88>
34185de0:	f503 6380 	add.w	r3, r3, #1024	@ 0x400
34185de4:	4298      	cmp	r0, r3
34185de6:	d106      	bne.n	34185df6 <RCCEx_GetSPICLKFreq+0x76>
      spi_frequency = RCCEx_GetPCLK1Freq(RCCEx_GetHCLKFreq(HAL_RCC_GetSysClockFreq()));
34185de8:	f7fc fc24 	bl	34182634 <HAL_RCC_GetSysClockFreq>
34185dec:	f7fc fc9a 	bl	34182724 <RCCEx_GetHCLKFreq>
34185df0:	f7fc fca0 	bl	34182734 <RCCEx_GetPCLK1Freq>
      /* Unexpected case */
      break;
  }

  return spi_frequency;
}
34185df4:	bd10      	pop	{r4, pc}
  switch (LL_RCC_GetSPIClockSource(SPIxSource))
34185df6:	2000      	movs	r0, #0
34185df8:	e7fc      	b.n	34185df4 <RCCEx_GetSPICLKFreq+0x74>
34185dfa:	4b90      	ldr	r3, [pc, #576]	@ (3418603c <RCCEx_GetSPICLKFreq+0x2bc>)
34185dfc:	4298      	cmp	r0, r3
34185dfe:	d003      	beq.n	34185e08 <RCCEx_GetSPICLKFreq+0x88>
34185e00:	f503 6380 	add.w	r3, r3, #1024	@ 0x400
34185e04:	4298      	cmp	r0, r3
34185e06:	d106      	bne.n	34185e16 <RCCEx_GetSPICLKFreq+0x96>
      spi_frequency = RCCEx_GetPCLK2Freq(RCCEx_GetHCLKFreq(HAL_RCC_GetSysClockFreq()));
34185e08:	f7fc fc14 	bl	34182634 <HAL_RCC_GetSysClockFreq>
34185e0c:	f7fc fc8a 	bl	34182724 <RCCEx_GetHCLKFreq>
34185e10:	f7fc fc98 	bl	34182744 <RCCEx_GetPCLK2Freq>
      break;
34185e14:	e7ee      	b.n	34185df4 <RCCEx_GetSPICLKFreq+0x74>
  switch (LL_RCC_GetSPIClockSource(SPIxSource))
34185e16:	2000      	movs	r0, #0
34185e18:	e7ec      	b.n	34185df4 <RCCEx_GetSPICLKFreq+0x74>
34185e1a:	f5a3 6300 	sub.w	r3, r3, #2048	@ 0x800
34185e1e:	4298      	cmp	r0, r3
34185e20:	d0d1      	beq.n	34185dc6 <RCCEx_GetSPICLKFreq+0x46>
34185e22:	f503 6380 	add.w	r3, r3, #1024	@ 0x400
34185e26:	4298      	cmp	r0, r3
34185e28:	d0cd      	beq.n	34185dc6 <RCCEx_GetSPICLKFreq+0x46>
34185e2a:	f5a3 6300 	sub.w	r3, r3, #2048	@ 0x800
34185e2e:	4298      	cmp	r0, r3
34185e30:	d0c9      	beq.n	34185dc6 <RCCEx_GetSPICLKFreq+0x46>
34185e32:	2000      	movs	r0, #0
34185e34:	e7de      	b.n	34185df4 <RCCEx_GetSPICLKFreq+0x74>
34185e36:	2000      	movs	r0, #0
34185e38:	e7dc      	b.n	34185df4 <RCCEx_GetSPICLKFreq+0x74>
34185e3a:	4b81      	ldr	r3, [pc, #516]	@ (34186040 <RCCEx_GetSPICLKFreq+0x2c0>)
34185e3c:	4298      	cmp	r0, r3
34185e3e:	d029      	beq.n	34185e94 <RCCEx_GetSPICLKFreq+0x114>
34185e40:	d84b      	bhi.n	34185eda <RCCEx_GetSPICLKFreq+0x15a>
34185e42:	f5a3 6300 	sub.w	r3, r3, #2048	@ 0x800
34185e46:	4298      	cmp	r0, r3
34185e48:	d120      	bne.n	34185e8c <RCCEx_GetSPICLKFreq+0x10c>
  return ((READ_BIT(RCC->DIVENR, RCC_DIVENR_IC8EN) == RCC_DIVENR_IC8EN) ? 1UL : 0UL);
34185e4a:	4b7e      	ldr	r3, [pc, #504]	@ (34186044 <RCCEx_GetSPICLKFreq+0x2c4>)
34185e4c:	f8d3 0240 	ldr.w	r0, [r3, #576]	@ 0x240
34185e50:	f010 0080 	ands.w	r0, r0, #128	@ 0x80
34185e54:	d0ce      	beq.n	34185df4 <RCCEx_GetSPICLKFreq+0x74>
  return ((READ_BIT(RCC->IC8CFGR, RCC_IC8CFGR_IC8INT) >> RCC_IC8CFGR_IC8INT_Pos) + 1UL);
34185e56:	f8d3 00e0 	ldr.w	r0, [r3, #224]	@ 0xe0
34185e5a:	f3c0 4007 	ubfx	r0, r0, #16, #8
34185e5e:	1c44      	adds	r4, r0, #1
  return (uint32_t)(READ_BIT(RCC->IC8CFGR, RCC_IC8CFGR_IC8SEL));
34185e60:	f8d3 30e0 	ldr.w	r3, [r3, #224]	@ 0xe0
34185e64:	f003 5340 	and.w	r3, r3, #805306368	@ 0x30000000
        switch (LL_RCC_IC8_GetSource())
34185e68:	f1b3 5f00 	cmp.w	r3, #536870912	@ 0x20000000
34185e6c:	f000 8122 	beq.w	341860b4 <RCCEx_GetSPICLKFreq+0x334>
34185e70:	f200 8111 	bhi.w	34186096 <RCCEx_GetSPICLKFreq+0x316>
34185e74:	2b00      	cmp	r3, #0
34185e76:	f000 8118 	beq.w	341860aa <RCCEx_GetSPICLKFreq+0x32a>
34185e7a:	f1b3 5f80 	cmp.w	r3, #268435456	@ 0x10000000
34185e7e:	f040 8108 	bne.w	34186092 <RCCEx_GetSPICLKFreq+0x312>
            spi_frequency = HAL_RCCEx_GetPLL2CLKFreq();
34185e82:	f7fe fabf 	bl	34184404 <HAL_RCCEx_GetPLL2CLKFreq>
            spi_frequency = spi_frequency / ic_divider;
34185e86:	fbb0 f0f4 	udiv	r0, r0, r4
            break;
34185e8a:	e7b3      	b.n	34185df4 <RCCEx_GetSPICLKFreq+0x74>
  switch (LL_RCC_GetSPIClockSource(SPIxSource))
34185e8c:	f503 6380 	add.w	r3, r3, #1024	@ 0x400
34185e90:	4298      	cmp	r0, r3
34185e92:	d120      	bne.n	34185ed6 <RCCEx_GetSPICLKFreq+0x156>
  return ((READ_BIT(RCC->DIVENR, RCC_DIVENR_IC9EN) == RCC_DIVENR_IC9EN) ? 1UL : 0UL);
34185e94:	4b6b      	ldr	r3, [pc, #428]	@ (34186044 <RCCEx_GetSPICLKFreq+0x2c4>)
34185e96:	f8d3 0240 	ldr.w	r0, [r3, #576]	@ 0x240
34185e9a:	f410 7080 	ands.w	r0, r0, #256	@ 0x100
34185e9e:	d0a9      	beq.n	34185df4 <RCCEx_GetSPICLKFreq+0x74>
  return ((READ_BIT(RCC->IC9CFGR, RCC_IC9CFGR_IC9INT) >> RCC_IC9CFGR_IC9INT_Pos) + 1UL);
34185ea0:	f8d3 00e4 	ldr.w	r0, [r3, #228]	@ 0xe4
34185ea4:	f3c0 4007 	ubfx	r0, r0, #16, #8
34185ea8:	1c44      	adds	r4, r0, #1
  return (uint32_t)(READ_BIT(RCC->IC9CFGR, RCC_IC9CFGR_IC9SEL));
34185eaa:	f8d3 30e4 	ldr.w	r3, [r3, #228]	@ 0xe4
34185eae:	f003 5340 	and.w	r3, r3, #805306368	@ 0x30000000
        switch (LL_RCC_IC9_GetSource())
34185eb2:	f1b3 5f00 	cmp.w	r3, #536870912	@ 0x20000000
34185eb6:	f000 8113 	beq.w	341860e0 <RCCEx_GetSPICLKFreq+0x360>
34185eba:	f200 8102 	bhi.w	341860c2 <RCCEx_GetSPICLKFreq+0x342>
34185ebe:	2b00      	cmp	r3, #0
34185ec0:	f000 8109 	beq.w	341860d6 <RCCEx_GetSPICLKFreq+0x356>
34185ec4:	f1b3 5f80 	cmp.w	r3, #268435456	@ 0x10000000
34185ec8:	f040 80f9 	bne.w	341860be <RCCEx_GetSPICLKFreq+0x33e>
            spi_frequency = HAL_RCCEx_GetPLL2CLKFreq();
34185ecc:	f7fe fa9a 	bl	34184404 <HAL_RCCEx_GetPLL2CLKFreq>
            spi_frequency = spi_frequency / ic_divider;
34185ed0:	fbb0 f0f4 	udiv	r0, r0, r4
            break;
34185ed4:	e78e      	b.n	34185df4 <RCCEx_GetSPICLKFreq+0x74>
  switch (LL_RCC_GetSPIClockSource(SPIxSource))
34185ed6:	2000      	movs	r0, #0
34185ed8:	e78c      	b.n	34185df4 <RCCEx_GetSPICLKFreq+0x74>
34185eda:	4b5b      	ldr	r3, [pc, #364]	@ (34186048 <RCCEx_GetSPICLKFreq+0x2c8>)
34185edc:	4298      	cmp	r0, r3
34185ede:	d0b4      	beq.n	34185e4a <RCCEx_GetSPICLKFreq+0xca>
34185ee0:	f503 436c 	add.w	r3, r3, #60416	@ 0xec00
34185ee4:	4298      	cmp	r0, r3
34185ee6:	d0d5      	beq.n	34185e94 <RCCEx_GetSPICLKFreq+0x114>
34185ee8:	2000      	movs	r0, #0
34185eea:	e783      	b.n	34185df4 <RCCEx_GetSPICLKFreq+0x74>
34185eec:	4b57      	ldr	r3, [pc, #348]	@ (3418604c <RCCEx_GetSPICLKFreq+0x2cc>)
34185eee:	4298      	cmp	r0, r3
34185ef0:	f000 8084 	beq.w	34185ffc <RCCEx_GetSPICLKFreq+0x27c>
34185ef4:	d861      	bhi.n	34185fba <RCCEx_GetSPICLKFreq+0x23a>
34185ef6:	f5a3 33fa 	sub.w	r3, r3, #128000	@ 0x1f400
34185efa:	4298      	cmp	r0, r3
34185efc:	d0ca      	beq.n	34185e94 <RCCEx_GetSPICLKFreq+0x114>
34185efe:	d912      	bls.n	34185f26 <RCCEx_GetSPICLKFreq+0x1a6>
34185f00:	4b53      	ldr	r3, [pc, #332]	@ (34186050 <RCCEx_GetSPICLKFreq+0x2d0>)
34185f02:	4298      	cmp	r0, r3
34185f04:	d042      	beq.n	34185f8c <RCCEx_GetSPICLKFreq+0x20c>
34185f06:	d84b      	bhi.n	34185fa0 <RCCEx_GetSPICLKFreq+0x220>
34185f08:	f5a3 6300 	sub.w	r3, r3, #2048	@ 0x800
34185f0c:	4298      	cmp	r0, r3
34185f0e:	d03d      	beq.n	34185f8c <RCCEx_GetSPICLKFreq+0x20c>
34185f10:	d839      	bhi.n	34185f86 <RCCEx_GetSPICLKFreq+0x206>
34185f12:	f5a3 6300 	sub.w	r3, r3, #2048	@ 0x800
34185f16:	4298      	cmp	r0, r3
34185f18:	d038      	beq.n	34185f8c <RCCEx_GetSPICLKFreq+0x20c>
34185f1a:	f503 6380 	add.w	r3, r3, #1024	@ 0x400
34185f1e:	4298      	cmp	r0, r3
34185f20:	d034      	beq.n	34185f8c <RCCEx_GetSPICLKFreq+0x20c>
34185f22:	2000      	movs	r0, #0
34185f24:	e766      	b.n	34185df4 <RCCEx_GetSPICLKFreq+0x74>
34185f26:	f5a3 6300 	sub.w	r3, r3, #2048	@ 0x800
34185f2a:	4298      	cmp	r0, r3
34185f2c:	d003      	beq.n	34185f36 <RCCEx_GetSPICLKFreq+0x1b6>
34185f2e:	f503 6380 	add.w	r3, r3, #1024	@ 0x400
34185f32:	4298      	cmp	r0, r3
34185f34:	d121      	bne.n	34185f7a <RCCEx_GetSPICLKFreq+0x1fa>
  return ((READ_BIT(RCC->DIVENR, RCC_DIVENR_IC14EN) == RCC_DIVENR_IC14EN) ? 1UL : 0UL);
34185f36:	4b43      	ldr	r3, [pc, #268]	@ (34186044 <RCCEx_GetSPICLKFreq+0x2c4>)
34185f38:	f8d3 0240 	ldr.w	r0, [r3, #576]	@ 0x240
34185f3c:	f410 5000 	ands.w	r0, r0, #8192	@ 0x2000
34185f40:	f43f af58 	beq.w	34185df4 <RCCEx_GetSPICLKFreq+0x74>
  return ((READ_BIT(RCC->IC14CFGR, RCC_IC14CFGR_IC14INT) >> RCC_IC14CFGR_IC14INT_Pos) + 1UL);
34185f44:	f8d3 00f8 	ldr.w	r0, [r3, #248]	@ 0xf8
34185f48:	f3c0 4007 	ubfx	r0, r0, #16, #8
34185f4c:	1c44      	adds	r4, r0, #1
  return (uint32_t)(READ_BIT(RCC->IC14CFGR, RCC_IC14CFGR_IC14SEL));
34185f4e:	f8d3 30f8 	ldr.w	r3, [r3, #248]	@ 0xf8
34185f52:	f003 5340 	and.w	r3, r3, #805306368	@ 0x30000000
        switch (LL_RCC_IC14_GetSource())
34185f56:	f1b3 5f00 	cmp.w	r3, #536870912	@ 0x20000000
34185f5a:	f000 80d7 	beq.w	3418610c <RCCEx_GetSPICLKFreq+0x38c>
34185f5e:	f200 80c6 	bhi.w	341860ee <RCCEx_GetSPICLKFreq+0x36e>
34185f62:	2b00      	cmp	r3, #0
34185f64:	f000 80cd 	beq.w	34186102 <RCCEx_GetSPICLKFreq+0x382>
34185f68:	f1b3 5f80 	cmp.w	r3, #268435456	@ 0x10000000
34185f6c:	f040 80bd 	bne.w	341860ea <RCCEx_GetSPICLKFreq+0x36a>
            spi_frequency = HAL_RCCEx_GetPLL2CLKFreq();
34185f70:	f7fe fa48 	bl	34184404 <HAL_RCCEx_GetPLL2CLKFreq>
            spi_frequency = spi_frequency / ic_divider;
34185f74:	fbb0 f0f4 	udiv	r0, r0, r4
            break;
34185f78:	e73c      	b.n	34185df4 <RCCEx_GetSPICLKFreq+0x74>
  switch (LL_RCC_GetSPIClockSource(SPIxSource))
34185f7a:	f5a3 6300 	sub.w	r3, r3, #2048	@ 0x800
34185f7e:	4298      	cmp	r0, r3
34185f80:	d088      	beq.n	34185e94 <RCCEx_GetSPICLKFreq+0x114>
34185f82:	2000      	movs	r0, #0
34185f84:	e736      	b.n	34185df4 <RCCEx_GetSPICLKFreq+0x74>
34185f86:	4b33      	ldr	r3, [pc, #204]	@ (34186054 <RCCEx_GetSPICLKFreq+0x2d4>)
34185f88:	4298      	cmp	r0, r3
34185f8a:	d107      	bne.n	34185f9c <RCCEx_GetSPICLKFreq+0x21c>
  return ((READ_BIT(RCC->SR, RCC_SR_MSIRDY) != 0UL) ? 1UL : 0UL);
34185f8c:	4b2d      	ldr	r3, [pc, #180]	@ (34186044 <RCCEx_GetSPICLKFreq+0x2c4>)
34185f8e:	6858      	ldr	r0, [r3, #4]
34185f90:	f010 0004 	ands.w	r0, r0, #4
34185f94:	f43f af2e 	beq.w	34185df4 <RCCEx_GetSPICLKFreq+0x74>
        spi_frequency = MSI_VALUE;
34185f98:	482f      	ldr	r0, [pc, #188]	@ (34186058 <RCCEx_GetSPICLKFreq+0x2d8>)
34185f9a:	e72b      	b.n	34185df4 <RCCEx_GetSPICLKFreq+0x74>
  switch (LL_RCC_GetSPIClockSource(SPIxSource))
34185f9c:	2000      	movs	r0, #0
34185f9e:	e729      	b.n	34185df4 <RCCEx_GetSPICLKFreq+0x74>
34185fa0:	4b2e      	ldr	r3, [pc, #184]	@ (3418605c <RCCEx_GetSPICLKFreq+0x2dc>)
34185fa2:	4298      	cmp	r0, r3
34185fa4:	d02a      	beq.n	34185ffc <RCCEx_GetSPICLKFreq+0x27c>
34185fa6:	f503 6380 	add.w	r3, r3, #1024	@ 0x400
34185faa:	4298      	cmp	r0, r3
34185fac:	d026      	beq.n	34185ffc <RCCEx_GetSPICLKFreq+0x27c>
34185fae:	f5a3 4370 	sub.w	r3, r3, #61440	@ 0xf000
34185fb2:	4298      	cmp	r0, r3
34185fb4:	d0ea      	beq.n	34185f8c <RCCEx_GetSPICLKFreq+0x20c>
34185fb6:	2000      	movs	r0, #0
34185fb8:	e71c      	b.n	34185df4 <RCCEx_GetSPICLKFreq+0x74>
34185fba:	4b29      	ldr	r3, [pc, #164]	@ (34186060 <RCCEx_GetSPICLKFreq+0x2e0>)
34185fbc:	4298      	cmp	r0, r3
34185fbe:	d02e      	beq.n	3418601e <RCCEx_GetSPICLKFreq+0x29e>
34185fc0:	d82a      	bhi.n	34186018 <RCCEx_GetSPICLKFreq+0x298>
34185fc2:	f5a3 6340 	sub.w	r3, r3, #3072	@ 0xc00
34185fc6:	4298      	cmp	r0, r3
34185fc8:	f000 80a5 	beq.w	34186116 <RCCEx_GetSPICLKFreq+0x396>
34185fcc:	d90a      	bls.n	34185fe4 <RCCEx_GetSPICLKFreq+0x264>
34185fce:	4b25      	ldr	r3, [pc, #148]	@ (34186064 <RCCEx_GetSPICLKFreq+0x2e4>)
34185fd0:	4298      	cmp	r0, r3
34185fd2:	f000 80a2 	beq.w	3418611a <RCCEx_GetSPICLKFreq+0x39a>
34185fd6:	f503 6380 	add.w	r3, r3, #1024	@ 0x400
34185fda:	4298      	cmp	r0, r3
34185fdc:	f040 809f 	bne.w	3418611e <RCCEx_GetSPICLKFreq+0x39e>
      spi_frequency = EXTERNAL_CLOCK_VALUE;
34185fe0:	4821      	ldr	r0, [pc, #132]	@ (34186068 <RCCEx_GetSPICLKFreq+0x2e8>)
34185fe2:	e707      	b.n	34185df4 <RCCEx_GetSPICLKFreq+0x74>
  switch (LL_RCC_GetSPIClockSource(SPIxSource))
34185fe4:	f5a3 4370 	sub.w	r3, r3, #61440	@ 0xf000
34185fe8:	4298      	cmp	r0, r3
34185fea:	d007      	beq.n	34185ffc <RCCEx_GetSPICLKFreq+0x27c>
34185fec:	f503 6380 	add.w	r3, r3, #1024	@ 0x400
34185ff0:	4298      	cmp	r0, r3
34185ff2:	d003      	beq.n	34185ffc <RCCEx_GetSPICLKFreq+0x27c>
34185ff4:	f5a3 6300 	sub.w	r3, r3, #2048	@ 0x800
34185ff8:	4298      	cmp	r0, r3
34185ffa:	d10b      	bne.n	34186014 <RCCEx_GetSPICLKFreq+0x294>
  return ((READ_BIT(RCC->SR, RCC_SR_HSIRDY) != 0UL) ? 1UL : 0UL);
34185ffc:	4b11      	ldr	r3, [pc, #68]	@ (34186044 <RCCEx_GetSPICLKFreq+0x2c4>)
34185ffe:	6858      	ldr	r0, [r3, #4]
34186000:	f010 0008 	ands.w	r0, r0, #8
34186004:	f43f aef6 	beq.w	34185df4 <RCCEx_GetSPICLKFreq+0x74>
  return (READ_BIT(RCC->HSICFGR, RCC_HSICFGR_HSIDIV));
34186008:	6c9b      	ldr	r3, [r3, #72]	@ 0x48
        spi_frequency = HSI_VALUE >> (LL_RCC_HSI_GetDivider() >> RCC_HSICFGR_HSIDIV_Pos);
3418600a:	f3c3 13c1 	ubfx	r3, r3, #7, #2
3418600e:	4817      	ldr	r0, [pc, #92]	@ (3418606c <RCCEx_GetSPICLKFreq+0x2ec>)
34186010:	40d8      	lsrs	r0, r3
34186012:	e6ef      	b.n	34185df4 <RCCEx_GetSPICLKFreq+0x74>
  switch (LL_RCC_GetSPIClockSource(SPIxSource))
34186014:	2000      	movs	r0, #0
34186016:	e6ed      	b.n	34185df4 <RCCEx_GetSPICLKFreq+0x74>
34186018:	4b15      	ldr	r3, [pc, #84]	@ (34186070 <RCCEx_GetSPICLKFreq+0x2f0>)
3418601a:	4298      	cmp	r0, r3
3418601c:	d12c      	bne.n	34186078 <RCCEx_GetSPICLKFreq+0x2f8>
  return ((READ_BIT(RCC->SR, RCC_SR_HSERDY) != 0UL) ? 1UL : 0UL);
3418601e:	4b09      	ldr	r3, [pc, #36]	@ (34186044 <RCCEx_GetSPICLKFreq+0x2c4>)
34186020:	6858      	ldr	r0, [r3, #4]
34186022:	f010 0010 	ands.w	r0, r0, #16
34186026:	f43f aee5 	beq.w	34185df4 <RCCEx_GetSPICLKFreq+0x74>
        spi_frequency = HSE_VALUE;
3418602a:	4812      	ldr	r0, [pc, #72]	@ (34186074 <RCCEx_GetSPICLKFreq+0x2f4>)
  return spi_frequency;
3418602c:	e6e2      	b.n	34185df4 <RCCEx_GetSPICLKFreq+0x74>
3418602e:	bf00      	nop
34186030:	07030820 	.word	0x07030820
34186034:	07020820 	.word	0x07020820
34186038:	07011820 	.word	0x07011820
3418603c:	07001020 	.word	0x07001020
34186040:	07021420 	.word	0x07021420
34186044:	56028000 	.word	0x56028000
34186048:	07021820 	.word	0x07021820
3418604c:	07050c20 	.word	0x07050c20
34186050:	07041420 	.word	0x07041420
34186054:	07041020 	.word	0x07041020
34186058:	003d0900 	.word	0x003d0900
3418605c:	07050420 	.word	0x07050420
34186060:	07061020 	.word	0x07061020
34186064:	07060820 	.word	0x07060820
34186068:	00bb8000 	.word	0x00bb8000
3418606c:	03d09000 	.word	0x03d09000
34186070:	07061420 	.word	0x07061420
34186074:	02dc6c00 	.word	0x02dc6c00
  switch (LL_RCC_GetSPIClockSource(SPIxSource))
34186078:	f503 6380 	add.w	r3, r3, #1024	@ 0x400
3418607c:	4298      	cmp	r0, r3
3418607e:	d150      	bne.n	34186122 <RCCEx_GetSPICLKFreq+0x3a2>
      spi_frequency = EXTERNAL_CLOCK_VALUE;
34186080:	4829      	ldr	r0, [pc, #164]	@ (34186128 <RCCEx_GetSPICLKFreq+0x3a8>)
34186082:	e6b7      	b.n	34185df4 <RCCEx_GetSPICLKFreq+0x74>
      spi_frequency = RCCEx_GetPCLK4Freq(RCCEx_GetHCLKFreq(HAL_RCC_GetSysClockFreq()));
34186084:	f7fc fad6 	bl	34182634 <HAL_RCC_GetSysClockFreq>
34186088:	f7fc fb4c 	bl	34182724 <RCCEx_GetHCLKFreq>
3418608c:	f7fc fb62 	bl	34182754 <RCCEx_GetPCLK4Freq>
      break;
34186090:	e6b0      	b.n	34185df4 <RCCEx_GetSPICLKFreq+0x74>
        switch (LL_RCC_IC8_GetSource())
34186092:	2000      	movs	r0, #0
34186094:	e6ae      	b.n	34185df4 <RCCEx_GetSPICLKFreq+0x74>
34186096:	f1b3 5f40 	cmp.w	r3, #805306368	@ 0x30000000
3418609a:	d104      	bne.n	341860a6 <RCCEx_GetSPICLKFreq+0x326>
            spi_frequency = HAL_RCCEx_GetPLL4CLKFreq();
3418609c:	f7fe fa42 	bl	34184524 <HAL_RCCEx_GetPLL4CLKFreq>
            spi_frequency = spi_frequency / ic_divider;
341860a0:	fbb0 f0f4 	udiv	r0, r0, r4
            break;
341860a4:	e6a6      	b.n	34185df4 <RCCEx_GetSPICLKFreq+0x74>
        switch (LL_RCC_IC8_GetSource())
341860a6:	2000      	movs	r0, #0
341860a8:	e6a4      	b.n	34185df4 <RCCEx_GetSPICLKFreq+0x74>
            spi_frequency = HAL_RCCEx_GetPLL1CLKFreq();
341860aa:	f7fe f963 	bl	34184374 <HAL_RCCEx_GetPLL1CLKFreq>
            spi_frequency = spi_frequency / ic_divider;
341860ae:	fbb0 f0f4 	udiv	r0, r0, r4
            break;
341860b2:	e69f      	b.n	34185df4 <RCCEx_GetSPICLKFreq+0x74>
            spi_frequency = HAL_RCCEx_GetPLL3CLKFreq();
341860b4:	f7fe f9ee 	bl	34184494 <HAL_RCCEx_GetPLL3CLKFreq>
            spi_frequency = spi_frequency / ic_divider;
341860b8:	fbb0 f0f4 	udiv	r0, r0, r4
            break;
341860bc:	e69a      	b.n	34185df4 <RCCEx_GetSPICLKFreq+0x74>
        switch (LL_RCC_IC9_GetSource())
341860be:	2000      	movs	r0, #0
341860c0:	e698      	b.n	34185df4 <RCCEx_GetSPICLKFreq+0x74>
341860c2:	f1b3 5f40 	cmp.w	r3, #805306368	@ 0x30000000
341860c6:	d104      	bne.n	341860d2 <RCCEx_GetSPICLKFreq+0x352>
            spi_frequency = HAL_RCCEx_GetPLL4CLKFreq();
341860c8:	f7fe fa2c 	bl	34184524 <HAL_RCCEx_GetPLL4CLKFreq>
            spi_frequency = spi_frequency / ic_divider;
341860cc:	fbb0 f0f4 	udiv	r0, r0, r4
            break;
341860d0:	e690      	b.n	34185df4 <RCCEx_GetSPICLKFreq+0x74>
        switch (LL_RCC_IC9_GetSource())
341860d2:	2000      	movs	r0, #0
341860d4:	e68e      	b.n	34185df4 <RCCEx_GetSPICLKFreq+0x74>
            spi_frequency = HAL_RCCEx_GetPLL1CLKFreq();
341860d6:	f7fe f94d 	bl	34184374 <HAL_RCCEx_GetPLL1CLKFreq>
            spi_frequency = spi_frequency / ic_divider;
341860da:	fbb0 f0f4 	udiv	r0, r0, r4
            break;
341860de:	e689      	b.n	34185df4 <RCCEx_GetSPICLKFreq+0x74>
            spi_frequency = HAL_RCCEx_GetPLL3CLKFreq();
341860e0:	f7fe f9d8 	bl	34184494 <HAL_RCCEx_GetPLL3CLKFreq>
            spi_frequency = spi_frequency / ic_divider;
341860e4:	fbb0 f0f4 	udiv	r0, r0, r4
            break;
341860e8:	e684      	b.n	34185df4 <RCCEx_GetSPICLKFreq+0x74>
        switch (LL_RCC_IC14_GetSource())
341860ea:	2000      	movs	r0, #0
341860ec:	e682      	b.n	34185df4 <RCCEx_GetSPICLKFreq+0x74>
341860ee:	f1b3 5f40 	cmp.w	r3, #805306368	@ 0x30000000
341860f2:	d104      	bne.n	341860fe <RCCEx_GetSPICLKFreq+0x37e>
            spi_frequency = HAL_RCCEx_GetPLL4CLKFreq();
341860f4:	f7fe fa16 	bl	34184524 <HAL_RCCEx_GetPLL4CLKFreq>
            spi_frequency = spi_frequency / ic_divider;
341860f8:	fbb0 f0f4 	udiv	r0, r0, r4
            break;
341860fc:	e67a      	b.n	34185df4 <RCCEx_GetSPICLKFreq+0x74>
        switch (LL_RCC_IC14_GetSource())
341860fe:	2000      	movs	r0, #0
34186100:	e678      	b.n	34185df4 <RCCEx_GetSPICLKFreq+0x74>
            spi_frequency = HAL_RCCEx_GetPLL1CLKFreq();
34186102:	f7fe f937 	bl	34184374 <HAL_RCCEx_GetPLL1CLKFreq>
            spi_frequency = spi_frequency / ic_divider;
34186106:	fbb0 f0f4 	udiv	r0, r0, r4
            break;
3418610a:	e673      	b.n	34185df4 <RCCEx_GetSPICLKFreq+0x74>
            spi_frequency = HAL_RCCEx_GetPLL3CLKFreq();
3418610c:	f7fe f9c2 	bl	34184494 <HAL_RCCEx_GetPLL3CLKFreq>
            spi_frequency = spi_frequency / ic_divider;
34186110:	fbb0 f0f4 	udiv	r0, r0, r4
            break;
34186114:	e66e      	b.n	34185df4 <RCCEx_GetSPICLKFreq+0x74>
      spi_frequency = EXTERNAL_CLOCK_VALUE;
34186116:	4804      	ldr	r0, [pc, #16]	@ (34186128 <RCCEx_GetSPICLKFreq+0x3a8>)
34186118:	e66c      	b.n	34185df4 <RCCEx_GetSPICLKFreq+0x74>
3418611a:	4803      	ldr	r0, [pc, #12]	@ (34186128 <RCCEx_GetSPICLKFreq+0x3a8>)
3418611c:	e66a      	b.n	34185df4 <RCCEx_GetSPICLKFreq+0x74>
  switch (LL_RCC_GetSPIClockSource(SPIxSource))
3418611e:	2000      	movs	r0, #0
34186120:	e668      	b.n	34185df4 <RCCEx_GetSPICLKFreq+0x74>
34186122:	2000      	movs	r0, #0
34186124:	e666      	b.n	34185df4 <RCCEx_GetSPICLKFreq+0x74>
34186126:	bf00      	nop
34186128:	00bb8000 	.word	0x00bb8000

3418612c <RCCEx_GetUARTCLKFreq>:
  *         @arg @ref RCCEx_UART9_Clock_Source
  * @retval USART clock frequency (in Hz)
  *         - @ref  RCC_PERIPH_FREQUENCY_NO indicates that oscillator is not ready
  */
static uint32_t RCCEx_GetUARTCLKFreq(uint32_t UARTxSource)
{
3418612c:	b510      	push	{r4, lr}
  return LL_RCC_GetClockSource(Periph);
3418612e:	f7fc faeb 	bl	34182708 <LL_RCC_GetClockSource>
  uint32_t uart_frequency = RCC_PERIPH_FREQUENCY_NO;
  uint32_t ic_divider;

  switch (LL_RCC_GetUARTClockSource(UARTxSource))
34186132:	4ba6      	ldr	r3, [pc, #664]	@ (341863cc <RCCEx_GetUARTCLKFreq+0x2a0>)
34186134:	4298      	cmp	r0, r3
34186136:	d053      	beq.n	341861e0 <RCCEx_GetUARTCLKFreq+0xb4>
34186138:	d93d      	bls.n	341861b6 <RCCEx_GetUARTCLKFreq+0x8a>
3418613a:	4ba5      	ldr	r3, [pc, #660]	@ (341863d0 <RCCEx_GetUARTCLKFreq+0x2a4>)
3418613c:	4298      	cmp	r0, r3
3418613e:	f000 8100 	beq.w	34186342 <RCCEx_GetUARTCLKFreq+0x216>
34186142:	f200 80d0 	bhi.w	341862e6 <RCCEx_GetUARTCLKFreq+0x1ba>
34186146:	f5a3 3380 	sub.w	r3, r3, #65536	@ 0x10000
3418614a:	4298      	cmp	r0, r3
3418614c:	f000 80bc 	beq.w	341862c8 <RCCEx_GetUARTCLKFreq+0x19c>
34186150:	f200 80ae 	bhi.w	341862b0 <RCCEx_GetUARTCLKFreq+0x184>
34186154:	f5a3 4370 	sub.w	r3, r3, #61440	@ 0xf000
34186158:	3b04      	subs	r3, #4
3418615a:	4298      	cmp	r0, r3
3418615c:	d00a      	beq.n	34186174 <RCCEx_GetUARTCLKFreq+0x48>
3418615e:	f200 809c 	bhi.w	3418629a <RCCEx_GetUARTCLKFreq+0x16e>
34186162:	f6a3 73fc 	subw	r3, r3, #4092	@ 0xffc
34186166:	4298      	cmp	r0, r3
34186168:	d004      	beq.n	34186174 <RCCEx_GetUARTCLKFreq+0x48>
3418616a:	f603 33fc 	addw	r3, r3, #3068	@ 0xbfc
3418616e:	4298      	cmp	r0, r3
34186170:	f040 8091 	bne.w	34186296 <RCCEx_GetUARTCLKFreq+0x16a>
  return ((READ_BIT(RCC->DIVENR, RCC_DIVENR_IC14EN) == RCC_DIVENR_IC14EN) ? 1UL : 0UL);
34186174:	4b97      	ldr	r3, [pc, #604]	@ (341863d4 <RCCEx_GetUARTCLKFreq+0x2a8>)
34186176:	f8d3 0240 	ldr.w	r0, [r3, #576]	@ 0x240
3418617a:	f410 5000 	ands.w	r0, r0, #8192	@ 0x2000
3418617e:	d068      	beq.n	34186252 <RCCEx_GetUARTCLKFreq+0x126>
  return ((READ_BIT(RCC->IC14CFGR, RCC_IC14CFGR_IC14INT) >> RCC_IC14CFGR_IC14INT_Pos) + 1UL);
34186180:	f8d3 00f8 	ldr.w	r0, [r3, #248]	@ 0xf8
34186184:	f3c0 4007 	ubfx	r0, r0, #16, #8
34186188:	1c44      	adds	r4, r0, #1
  return (uint32_t)(READ_BIT(RCC->IC14CFGR, RCC_IC14CFGR_IC14SEL));
3418618a:	f8d3 30f8 	ldr.w	r3, [r3, #248]	@ 0xf8
3418618e:	f003 5340 	and.w	r3, r3, #805306368	@ 0x30000000
    case LL_RCC_UART8_CLKSOURCE_IC14:
    case LL_RCC_UART9_CLKSOURCE_IC14:
      if (LL_RCC_IC14_IsEnabled() != 0U)
      {
        ic_divider = LL_RCC_IC14_GetDivider();
        switch (LL_RCC_IC14_GetSource())
34186192:	f1b3 5f00 	cmp.w	r3, #536870912	@ 0x20000000
34186196:	f000 8112 	beq.w	341863be <RCCEx_GetUARTCLKFreq+0x292>
3418619a:	f200 8101 	bhi.w	341863a0 <RCCEx_GetUARTCLKFreq+0x274>
3418619e:	2b00      	cmp	r3, #0
341861a0:	f000 8108 	beq.w	341863b4 <RCCEx_GetUARTCLKFreq+0x288>
341861a4:	f1b3 5f80 	cmp.w	r3, #268435456	@ 0x10000000
341861a8:	f040 80f8 	bne.w	3418639c <RCCEx_GetUARTCLKFreq+0x270>
          case LL_RCC_ICCLKSOURCE_PLL1:
            uart_frequency = HAL_RCCEx_GetPLL1CLKFreq();
            uart_frequency = uart_frequency / ic_divider;
            break;
          case LL_RCC_ICCLKSOURCE_PLL2:
            uart_frequency = HAL_RCCEx_GetPLL2CLKFreq();
341861ac:	f7fe f92a 	bl	34184404 <HAL_RCCEx_GetPLL2CLKFreq>
            uart_frequency = uart_frequency / ic_divider;
341861b0:	fbb0 f0f4 	udiv	r0, r0, r4
            break;
341861b4:	e04d      	b.n	34186252 <RCCEx_GetUARTCLKFreq+0x126>
  switch (LL_RCC_GetUARTClockSource(UARTxSource))
341861b6:	f5a3 3300 	sub.w	r3, r3, #131072	@ 0x20000
341861ba:	4298      	cmp	r0, r3
341861bc:	d043      	beq.n	34186246 <RCCEx_GetUARTCLKFreq+0x11a>
341861be:	d930      	bls.n	34186222 <RCCEx_GetUARTCLKFreq+0xf6>
341861c0:	4b85      	ldr	r3, [pc, #532]	@ (341863d8 <RCCEx_GetUARTCLKFreq+0x2ac>)
341861c2:	4298      	cmp	r0, r3
341861c4:	d05a      	beq.n	3418627c <RCCEx_GetUARTCLKFreq+0x150>
341861c6:	d947      	bls.n	34186258 <RCCEx_GetUARTCLKFreq+0x12c>
341861c8:	4b84      	ldr	r3, [pc, #528]	@ (341863dc <RCCEx_GetUARTCLKFreq+0x2b0>)
341861ca:	4298      	cmp	r0, r3
341861cc:	d008      	beq.n	341861e0 <RCCEx_GetUARTCLKFreq+0xb4>
341861ce:	d85d      	bhi.n	3418628c <RCCEx_GetUARTCLKFreq+0x160>
341861d0:	f6a3 73fc 	subw	r3, r3, #4092	@ 0xffc
341861d4:	4298      	cmp	r0, r3
341861d6:	d003      	beq.n	341861e0 <RCCEx_GetUARTCLKFreq+0xb4>
341861d8:	f603 33fc 	addw	r3, r3, #3068	@ 0xbfc
341861dc:	4298      	cmp	r0, r3
341861de:	d153      	bne.n	34186288 <RCCEx_GetUARTCLKFreq+0x15c>
  return ((READ_BIT(RCC->DIVENR, RCC_DIVENR_IC9EN) == RCC_DIVENR_IC9EN) ? 1UL : 0UL);
341861e0:	4b7c      	ldr	r3, [pc, #496]	@ (341863d4 <RCCEx_GetUARTCLKFreq+0x2a8>)
341861e2:	f8d3 0240 	ldr.w	r0, [r3, #576]	@ 0x240
341861e6:	f410 7080 	ands.w	r0, r0, #256	@ 0x100
341861ea:	d032      	beq.n	34186252 <RCCEx_GetUARTCLKFreq+0x126>
  return ((READ_BIT(RCC->IC9CFGR, RCC_IC9CFGR_IC9INT) >> RCC_IC9CFGR_IC9INT_Pos) + 1UL);
341861ec:	f8d3 00e4 	ldr.w	r0, [r3, #228]	@ 0xe4
341861f0:	f3c0 4007 	ubfx	r0, r0, #16, #8
341861f4:	1c44      	adds	r4, r0, #1
  return (uint32_t)(READ_BIT(RCC->IC9CFGR, RCC_IC9CFGR_IC9SEL));
341861f6:	f8d3 30e4 	ldr.w	r3, [r3, #228]	@ 0xe4
341861fa:	f003 5340 	and.w	r3, r3, #805306368	@ 0x30000000
        switch (LL_RCC_IC9_GetSource())
341861fe:	f1b3 5f00 	cmp.w	r3, #536870912	@ 0x20000000
34186202:	f000 80c6 	beq.w	34186392 <RCCEx_GetUARTCLKFreq+0x266>
34186206:	f200 80b5 	bhi.w	34186374 <RCCEx_GetUARTCLKFreq+0x248>
3418620a:	2b00      	cmp	r3, #0
3418620c:	f000 80bc 	beq.w	34186388 <RCCEx_GetUARTCLKFreq+0x25c>
34186210:	f1b3 5f80 	cmp.w	r3, #268435456	@ 0x10000000
34186214:	f040 80ac 	bne.w	34186370 <RCCEx_GetUARTCLKFreq+0x244>
            uart_frequency = HAL_RCCEx_GetPLL2CLKFreq();
34186218:	f7fe f8f4 	bl	34184404 <HAL_RCCEx_GetPLL2CLKFreq>
            uart_frequency = uart_frequency / ic_divider;
3418621c:	fbb0 f0f4 	udiv	r0, r0, r4
            break;
34186220:	e017      	b.n	34186252 <RCCEx_GetUARTCLKFreq+0x126>
  switch (LL_RCC_GetUARTClockSource(UARTxSource))
34186222:	4b6f      	ldr	r3, [pc, #444]	@ (341863e0 <RCCEx_GetUARTCLKFreq+0x2b4>)
34186224:	4298      	cmp	r0, r3
34186226:	f000 809c 	beq.w	34186362 <RCCEx_GetUARTCLKFreq+0x236>
3418622a:	f0c0 80cd 	bcc.w	341863c8 <RCCEx_GetUARTCLKFreq+0x29c>
3418622e:	f603 73fc 	addw	r3, r3, #4092	@ 0xffc
34186232:	4298      	cmp	r0, r3
34186234:	d007      	beq.n	34186246 <RCCEx_GetUARTCLKFreq+0x11a>
34186236:	f503 6300 	add.w	r3, r3, #2048	@ 0x800
3418623a:	4298      	cmp	r0, r3
3418623c:	d003      	beq.n	34186246 <RCCEx_GetUARTCLKFreq+0x11a>
3418623e:	f5a3 6340 	sub.w	r3, r3, #3072	@ 0xc00
34186242:	4298      	cmp	r0, r3
34186244:	d106      	bne.n	34186254 <RCCEx_GetUARTCLKFreq+0x128>
      uart_frequency = RCCEx_GetPCLK1Freq(RCCEx_GetHCLKFreq(HAL_RCC_GetSysClockFreq()));
34186246:	f7fc f9f5 	bl	34182634 <HAL_RCC_GetSysClockFreq>
3418624a:	f7fc fa6b 	bl	34182724 <RCCEx_GetHCLKFreq>
3418624e:	f7fc fa71 	bl	34182734 <RCCEx_GetPCLK1Freq>
      /* Unexpected case */
      break;
  }

  return uart_frequency;
}
34186252:	bd10      	pop	{r4, pc}
  switch (LL_RCC_GetUARTClockSource(UARTxSource))
34186254:	2000      	movs	r0, #0
34186256:	e7fc      	b.n	34186252 <RCCEx_GetUARTCLKFreq+0x126>
34186258:	f5a3 6340 	sub.w	r3, r3, #3072	@ 0xc00
3418625c:	4298      	cmp	r0, r3
3418625e:	d00d      	beq.n	3418627c <RCCEx_GetUARTCLKFreq+0x150>
34186260:	d809      	bhi.n	34186276 <RCCEx_GetUARTCLKFreq+0x14a>
34186262:	f6a3 73fc 	subw	r3, r3, #4092	@ 0xffc
34186266:	4298      	cmp	r0, r3
34186268:	d008      	beq.n	3418627c <RCCEx_GetUARTCLKFreq+0x150>
3418626a:	f603 33fc 	addw	r3, r3, #3068	@ 0xbfc
3418626e:	4298      	cmp	r0, r3
34186270:	d004      	beq.n	3418627c <RCCEx_GetUARTCLKFreq+0x150>
34186272:	2000      	movs	r0, #0
34186274:	e7ed      	b.n	34186252 <RCCEx_GetUARTCLKFreq+0x126>
34186276:	4b5b      	ldr	r3, [pc, #364]	@ (341863e4 <RCCEx_GetUARTCLKFreq+0x2b8>)
34186278:	4298      	cmp	r0, r3
3418627a:	d103      	bne.n	34186284 <RCCEx_GetUARTCLKFreq+0x158>
      uart_frequency = RCCEx_GetCLKPCLKFreq(LL_RCC_CLKP_CLKSOURCE);
3418627c:	2007      	movs	r0, #7
3418627e:	f7fe f9cf 	bl	34184620 <RCCEx_GetCLKPCLKFreq>
      break;
34186282:	e7e6      	b.n	34186252 <RCCEx_GetUARTCLKFreq+0x126>
  switch (LL_RCC_GetUARTClockSource(UARTxSource))
34186284:	2000      	movs	r0, #0
34186286:	e7e4      	b.n	34186252 <RCCEx_GetUARTCLKFreq+0x126>
34186288:	2000      	movs	r0, #0
3418628a:	e7e2      	b.n	34186252 <RCCEx_GetUARTCLKFreq+0x126>
3418628c:	4b56      	ldr	r3, [pc, #344]	@ (341863e8 <RCCEx_GetUARTCLKFreq+0x2bc>)
3418628e:	4298      	cmp	r0, r3
34186290:	d0a6      	beq.n	341861e0 <RCCEx_GetUARTCLKFreq+0xb4>
34186292:	2000      	movs	r0, #0
34186294:	e7dd      	b.n	34186252 <RCCEx_GetUARTCLKFreq+0x126>
34186296:	2000      	movs	r0, #0
34186298:	e7db      	b.n	34186252 <RCCEx_GetUARTCLKFreq+0x126>
3418629a:	4b54      	ldr	r3, [pc, #336]	@ (341863ec <RCCEx_GetUARTCLKFreq+0x2c0>)
3418629c:	4298      	cmp	r0, r3
3418629e:	f43f af69 	beq.w	34186174 <RCCEx_GetUARTCLKFreq+0x48>
341862a2:	f503 6380 	add.w	r3, r3, #1024	@ 0x400
341862a6:	4298      	cmp	r0, r3
341862a8:	f43f af64 	beq.w	34186174 <RCCEx_GetUARTCLKFreq+0x48>
341862ac:	2000      	movs	r0, #0
341862ae:	e7d0      	b.n	34186252 <RCCEx_GetUARTCLKFreq+0x126>
341862b0:	4b4f      	ldr	r3, [pc, #316]	@ (341863f0 <RCCEx_GetUARTCLKFreq+0x2c4>)
341862b2:	4298      	cmp	r0, r3
341862b4:	d008      	beq.n	341862c8 <RCCEx_GetUARTCLKFreq+0x19c>
341862b6:	d811      	bhi.n	341862dc <RCCEx_GetUARTCLKFreq+0x1b0>
341862b8:	f5a3 6340 	sub.w	r3, r3, #3072	@ 0xc00
341862bc:	4298      	cmp	r0, r3
341862be:	d003      	beq.n	341862c8 <RCCEx_GetUARTCLKFreq+0x19c>
341862c0:	f503 6380 	add.w	r3, r3, #1024	@ 0x400
341862c4:	4298      	cmp	r0, r3
341862c6:	d107      	bne.n	341862d8 <RCCEx_GetUARTCLKFreq+0x1ac>
  return ((READ_BIT(RCC->SR, RCC_SR_LSERDY) != 0UL) ? 1UL : 0UL);
341862c8:	4b42      	ldr	r3, [pc, #264]	@ (341863d4 <RCCEx_GetUARTCLKFreq+0x2a8>)
341862ca:	6858      	ldr	r0, [r3, #4]
341862cc:	f010 0002 	ands.w	r0, r0, #2
341862d0:	d0bf      	beq.n	34186252 <RCCEx_GetUARTCLKFreq+0x126>
        uart_frequency = LSE_VALUE;
341862d2:	f44f 4000 	mov.w	r0, #32768	@ 0x8000
  return uart_frequency;
341862d6:	e7bc      	b.n	34186252 <RCCEx_GetUARTCLKFreq+0x126>
  switch (LL_RCC_GetUARTClockSource(UARTxSource))
341862d8:	2000      	movs	r0, #0
341862da:	e7ba      	b.n	34186252 <RCCEx_GetUARTCLKFreq+0x126>
341862dc:	4b45      	ldr	r3, [pc, #276]	@ (341863f4 <RCCEx_GetUARTCLKFreq+0x2c8>)
341862de:	4298      	cmp	r0, r3
341862e0:	d0f2      	beq.n	341862c8 <RCCEx_GetUARTCLKFreq+0x19c>
341862e2:	2000      	movs	r0, #0
341862e4:	e7b5      	b.n	34186252 <RCCEx_GetUARTCLKFreq+0x126>
341862e6:	4b44      	ldr	r3, [pc, #272]	@ (341863f8 <RCCEx_GetUARTCLKFreq+0x2cc>)
341862e8:	4298      	cmp	r0, r3
341862ea:	d00c      	beq.n	34186306 <RCCEx_GetUARTCLKFreq+0x1da>
341862ec:	d916      	bls.n	3418631c <RCCEx_GetUARTCLKFreq+0x1f0>
341862ee:	4b43      	ldr	r3, [pc, #268]	@ (341863fc <RCCEx_GetUARTCLKFreq+0x2d0>)
341862f0:	4298      	cmp	r0, r3
341862f2:	d008      	beq.n	34186306 <RCCEx_GetUARTCLKFreq+0x1da>
341862f4:	d830      	bhi.n	34186358 <RCCEx_GetUARTCLKFreq+0x22c>
341862f6:	f5a3 6340 	sub.w	r3, r3, #3072	@ 0xc00
341862fa:	4298      	cmp	r0, r3
341862fc:	d003      	beq.n	34186306 <RCCEx_GetUARTCLKFreq+0x1da>
341862fe:	f503 6380 	add.w	r3, r3, #1024	@ 0x400
34186302:	4298      	cmp	r0, r3
34186304:	d126      	bne.n	34186354 <RCCEx_GetUARTCLKFreq+0x228>
  return ((READ_BIT(RCC->SR, RCC_SR_HSIRDY) != 0UL) ? 1UL : 0UL);
34186306:	4b33      	ldr	r3, [pc, #204]	@ (341863d4 <RCCEx_GetUARTCLKFreq+0x2a8>)
34186308:	6858      	ldr	r0, [r3, #4]
3418630a:	f010 0008 	ands.w	r0, r0, #8
3418630e:	d0a0      	beq.n	34186252 <RCCEx_GetUARTCLKFreq+0x126>
  return (READ_BIT(RCC->HSICFGR, RCC_HSICFGR_HSIDIV));
34186310:	6c9b      	ldr	r3, [r3, #72]	@ 0x48
        uart_frequency = HSI_VALUE >> (LL_RCC_HSI_GetDivider() >> RCC_HSICFGR_HSIDIV_Pos);
34186312:	f3c3 13c1 	ubfx	r3, r3, #7, #2
34186316:	483a      	ldr	r0, [pc, #232]	@ (34186400 <RCCEx_GetUARTCLKFreq+0x2d4>)
34186318:	40d8      	lsrs	r0, r3
3418631a:	e79a      	b.n	34186252 <RCCEx_GetUARTCLKFreq+0x126>
  switch (LL_RCC_GetUARTClockSource(UARTxSource))
3418631c:	f5a3 4368 	sub.w	r3, r3, #59392	@ 0xe800
34186320:	3b04      	subs	r3, #4
34186322:	4298      	cmp	r0, r3
34186324:	d00d      	beq.n	34186342 <RCCEx_GetUARTCLKFreq+0x216>
34186326:	d809      	bhi.n	3418633c <RCCEx_GetUARTCLKFreq+0x210>
34186328:	f5a3 6340 	sub.w	r3, r3, #3072	@ 0xc00
3418632c:	4298      	cmp	r0, r3
3418632e:	d008      	beq.n	34186342 <RCCEx_GetUARTCLKFreq+0x216>
34186330:	f503 6380 	add.w	r3, r3, #1024	@ 0x400
34186334:	4298      	cmp	r0, r3
34186336:	d004      	beq.n	34186342 <RCCEx_GetUARTCLKFreq+0x216>
34186338:	2000      	movs	r0, #0
3418633a:	e78a      	b.n	34186252 <RCCEx_GetUARTCLKFreq+0x126>
3418633c:	4b31      	ldr	r3, [pc, #196]	@ (34186404 <RCCEx_GetUARTCLKFreq+0x2d8>)
3418633e:	4298      	cmp	r0, r3
34186340:	d106      	bne.n	34186350 <RCCEx_GetUARTCLKFreq+0x224>
  return ((READ_BIT(RCC->SR, RCC_SR_MSIRDY) != 0UL) ? 1UL : 0UL);
34186342:	4b24      	ldr	r3, [pc, #144]	@ (341863d4 <RCCEx_GetUARTCLKFreq+0x2a8>)
34186344:	6858      	ldr	r0, [r3, #4]
34186346:	f010 0004 	ands.w	r0, r0, #4
3418634a:	d082      	beq.n	34186252 <RCCEx_GetUARTCLKFreq+0x126>
        uart_frequency = MSI_VALUE;
3418634c:	482e      	ldr	r0, [pc, #184]	@ (34186408 <RCCEx_GetUARTCLKFreq+0x2dc>)
3418634e:	e780      	b.n	34186252 <RCCEx_GetUARTCLKFreq+0x126>
  switch (LL_RCC_GetUARTClockSource(UARTxSource))
34186350:	2000      	movs	r0, #0
34186352:	e77e      	b.n	34186252 <RCCEx_GetUARTCLKFreq+0x126>
34186354:	2000      	movs	r0, #0
34186356:	e77c      	b.n	34186252 <RCCEx_GetUARTCLKFreq+0x126>
34186358:	4b2c      	ldr	r3, [pc, #176]	@ (3418640c <RCCEx_GetUARTCLKFreq+0x2e0>)
3418635a:	4298      	cmp	r0, r3
3418635c:	d0d3      	beq.n	34186306 <RCCEx_GetUARTCLKFreq+0x1da>
3418635e:	2000      	movs	r0, #0
34186360:	e777      	b.n	34186252 <RCCEx_GetUARTCLKFreq+0x126>
      uart_frequency = RCCEx_GetPCLK2Freq(RCCEx_GetHCLKFreq(HAL_RCC_GetSysClockFreq()));
34186362:	f7fc f967 	bl	34182634 <HAL_RCC_GetSysClockFreq>
34186366:	f7fc f9dd 	bl	34182724 <RCCEx_GetHCLKFreq>
3418636a:	f7fc f9eb 	bl	34182744 <RCCEx_GetPCLK2Freq>
      break;
3418636e:	e770      	b.n	34186252 <RCCEx_GetUARTCLKFreq+0x126>
        switch (LL_RCC_IC9_GetSource())
34186370:	2000      	movs	r0, #0
34186372:	e76e      	b.n	34186252 <RCCEx_GetUARTCLKFreq+0x126>
34186374:	f1b3 5f40 	cmp.w	r3, #805306368	@ 0x30000000
34186378:	d104      	bne.n	34186384 <RCCEx_GetUARTCLKFreq+0x258>
            uart_frequency = HAL_RCCEx_GetPLL4CLKFreq();
3418637a:	f7fe f8d3 	bl	34184524 <HAL_RCCEx_GetPLL4CLKFreq>
            uart_frequency = uart_frequency / ic_divider;
3418637e:	fbb0 f0f4 	udiv	r0, r0, r4
            break;
34186382:	e766      	b.n	34186252 <RCCEx_GetUARTCLKFreq+0x126>
        switch (LL_RCC_IC9_GetSource())
34186384:	2000      	movs	r0, #0
34186386:	e764      	b.n	34186252 <RCCEx_GetUARTCLKFreq+0x126>
            uart_frequency = HAL_RCCEx_GetPLL1CLKFreq();
34186388:	f7fd fff4 	bl	34184374 <HAL_RCCEx_GetPLL1CLKFreq>
            uart_frequency = uart_frequency / ic_divider;
3418638c:	fbb0 f0f4 	udiv	r0, r0, r4
            break;
34186390:	e75f      	b.n	34186252 <RCCEx_GetUARTCLKFreq+0x126>
            uart_frequency = HAL_RCCEx_GetPLL3CLKFreq();
34186392:	f7fe f87f 	bl	34184494 <HAL_RCCEx_GetPLL3CLKFreq>
            uart_frequency = uart_frequency / ic_divider;
34186396:	fbb0 f0f4 	udiv	r0, r0, r4
            break;
3418639a:	e75a      	b.n	34186252 <RCCEx_GetUARTCLKFreq+0x126>
        switch (LL_RCC_IC14_GetSource())
3418639c:	2000      	movs	r0, #0
3418639e:	e758      	b.n	34186252 <RCCEx_GetUARTCLKFreq+0x126>
341863a0:	f1b3 5f40 	cmp.w	r3, #805306368	@ 0x30000000
341863a4:	d104      	bne.n	341863b0 <RCCEx_GetUARTCLKFreq+0x284>
            uart_frequency = HAL_RCCEx_GetPLL4CLKFreq();
341863a6:	f7fe f8bd 	bl	34184524 <HAL_RCCEx_GetPLL4CLKFreq>
            uart_frequency = uart_frequency / ic_divider;
341863aa:	fbb0 f0f4 	udiv	r0, r0, r4
            break;
341863ae:	e750      	b.n	34186252 <RCCEx_GetUARTCLKFreq+0x126>
        switch (LL_RCC_IC14_GetSource())
341863b0:	2000      	movs	r0, #0
341863b2:	e74e      	b.n	34186252 <RCCEx_GetUARTCLKFreq+0x126>
            uart_frequency = HAL_RCCEx_GetPLL1CLKFreq();
341863b4:	f7fd ffde 	bl	34184374 <HAL_RCCEx_GetPLL1CLKFreq>
            uart_frequency = uart_frequency / ic_divider;
341863b8:	fbb0 f0f4 	udiv	r0, r0, r4
            break;
341863bc:	e749      	b.n	34186252 <RCCEx_GetUARTCLKFreq+0x126>
            uart_frequency = HAL_RCCEx_GetPLL3CLKFreq();
341863be:	f7fe f869 	bl	34184494 <HAL_RCCEx_GetPLL3CLKFreq>
            uart_frequency = uart_frequency / ic_divider;
341863c2:	fbb0 f0f4 	udiv	r0, r0, r4
            break;
341863c6:	e744      	b.n	34186252 <RCCEx_GetUARTCLKFreq+0x126>
  switch (LL_RCC_GetUARTClockSource(UARTxSource))
341863c8:	2000      	movs	r0, #0
341863ca:	e742      	b.n	34186252 <RCCEx_GetUARTCLKFreq+0x126>
341863cc:	07021c30 	.word	0x07021c30
341863d0:	07050034 	.word	0x07050034
341863d4:	56028000 	.word	0x56028000
341863d8:	07011c30 	.word	0x07011c30
341863dc:	07021030 	.word	0x07021030
341863e0:	07000034 	.word	0x07000034
341863e4:	07011830 	.word	0x07011830
341863e8:	07021830 	.word	0x07021830
341863ec:	07031830 	.word	0x07031830
341863f0:	07041830 	.word	0x07041830
341863f4:	07041c30 	.word	0x07041c30
341863f8:	07060034 	.word	0x07060034
341863fc:	07061830 	.word	0x07061830
34186400:	03d09000 	.word	0x03d09000
34186404:	07051c30 	.word	0x07051c30
34186408:	003d0900 	.word	0x003d0900
3418640c:	07061c30 	.word	0x07061c30

34186410 <RCCEx_GetUSARTCLKFreq>:
  *         @arg @ref RCCEx_USART10_Clock_Source
  * @retval USART clock frequency (in Hz)
  *         - @ref  RCC_PERIPH_FREQUENCY_NO indicates that oscillator is not ready
  */
static uint32_t RCCEx_GetUSARTCLKFreq(uint32_t USARTxSource)
{
34186410:	b510      	push	{r4, lr}
  return LL_RCC_GetClockSource(Periph);
34186412:	f7fc f979 	bl	34182708 <LL_RCC_GetClockSource>
  uint32_t usart_frequency = RCC_PERIPH_FREQUENCY_NO;
  uint32_t ic_divider;

  switch (LL_RCC_GetUSARTClockSource(USARTxSource))
34186416:	4ba5      	ldr	r3, [pc, #660]	@ (341866ac <RCCEx_GetUSARTCLKFreq+0x29c>)
34186418:	4298      	cmp	r0, r3
3418641a:	f000 8090 	beq.w	3418653e <RCCEx_GetUSARTCLKFreq+0x12e>
3418641e:	d93e      	bls.n	3418649e <RCCEx_GetUSARTCLKFreq+0x8e>
34186420:	4ba3      	ldr	r3, [pc, #652]	@ (341866b0 <RCCEx_GetUSARTCLKFreq+0x2a0>)
34186422:	4298      	cmp	r0, r3
34186424:	f000 80f9 	beq.w	3418661a <RCCEx_GetUSARTCLKFreq+0x20a>
34186428:	f200 80d1 	bhi.w	341865ce <RCCEx_GetUSARTCLKFreq+0x1be>
3418642c:	f5a3 3380 	sub.w	r3, r3, #65536	@ 0x10000
34186430:	4298      	cmp	r0, r3
34186432:	f000 80bd 	beq.w	341865b0 <RCCEx_GetUSARTCLKFreq+0x1a0>
34186436:	f200 80b0 	bhi.w	3418659a <RCCEx_GetUSARTCLKFreq+0x18a>
3418643a:	f5a3 437b 	sub.w	r3, r3, #64256	@ 0xfb00
3418643e:	3bfc      	subs	r3, #252	@ 0xfc
34186440:	4298      	cmp	r0, r3
34186442:	d00a      	beq.n	3418645a <RCCEx_GetUSARTCLKFreq+0x4a>
34186444:	f200 809e 	bhi.w	34186584 <RCCEx_GetUSARTCLKFreq+0x174>
34186448:	f2a3 4304 	subw	r3, r3, #1028	@ 0x404
3418644c:	4298      	cmp	r0, r3
3418644e:	d004      	beq.n	3418645a <RCCEx_GetUSARTCLKFreq+0x4a>
34186450:	f503 6380 	add.w	r3, r3, #1024	@ 0x400
34186454:	4298      	cmp	r0, r3
34186456:	f040 8093 	bne.w	34186580 <RCCEx_GetUSARTCLKFreq+0x170>
  return ((READ_BIT(RCC->DIVENR, RCC_DIVENR_IC14EN) == RCC_DIVENR_IC14EN) ? 1UL : 0UL);
3418645a:	4b96      	ldr	r3, [pc, #600]	@ (341866b4 <RCCEx_GetUSARTCLKFreq+0x2a4>)
3418645c:	f8d3 0240 	ldr.w	r0, [r3, #576]	@ 0x240
34186460:	f410 5000 	ands.w	r0, r0, #8192	@ 0x2000
34186464:	f000 80f4 	beq.w	34186650 <RCCEx_GetUSARTCLKFreq+0x240>
  return ((READ_BIT(RCC->IC14CFGR, RCC_IC14CFGR_IC14INT) >> RCC_IC14CFGR_IC14INT_Pos) + 1UL);
34186468:	f8d3 00f8 	ldr.w	r0, [r3, #248]	@ 0xf8
3418646c:	f3c0 4007 	ubfx	r0, r0, #16, #8
34186470:	1c44      	adds	r4, r0, #1
  return (uint32_t)(READ_BIT(RCC->IC14CFGR, RCC_IC14CFGR_IC14SEL));
34186472:	f8d3 30f8 	ldr.w	r3, [r3, #248]	@ 0xf8
34186476:	f003 5340 	and.w	r3, r3, #805306368	@ 0x30000000
    case LL_RCC_USART6_CLKSOURCE_IC14:
    case LL_RCC_USART10_CLKSOURCE_IC14:
      if (LL_RCC_IC14_IsEnabled() != 0U)
      {
        ic_divider = LL_RCC_IC14_GetDivider();
        switch (LL_RCC_IC14_GetSource())
3418647a:	f1b3 5f00 	cmp.w	r3, #536870912	@ 0x20000000
3418647e:	f000 810f 	beq.w	341866a0 <RCCEx_GetUSARTCLKFreq+0x290>
34186482:	f200 80fe 	bhi.w	34186682 <RCCEx_GetUSARTCLKFreq+0x272>
34186486:	2b00      	cmp	r3, #0
34186488:	f000 8105 	beq.w	34186696 <RCCEx_GetUSARTCLKFreq+0x286>
3418648c:	f1b3 5f80 	cmp.w	r3, #268435456	@ 0x10000000
34186490:	f040 80f5 	bne.w	3418667e <RCCEx_GetUSARTCLKFreq+0x26e>
          case LL_RCC_ICCLKSOURCE_PLL1:
            usart_frequency = HAL_RCCEx_GetPLL1CLKFreq();
            usart_frequency = usart_frequency / ic_divider;
            break;
          case LL_RCC_ICCLKSOURCE_PLL2:
            usart_frequency = HAL_RCCEx_GetPLL2CLKFreq();
34186494:	f7fd ffb6 	bl	34184404 <HAL_RCCEx_GetPLL2CLKFreq>
            usart_frequency = usart_frequency / ic_divider;
34186498:	fbb0 f0f4 	udiv	r0, r0, r4
            break;
3418649c:	e0d8      	b.n	34186650 <RCCEx_GetUSARTCLKFreq+0x240>
  switch (LL_RCC_GetUSARTClockSource(USARTxSource))
3418649e:	f5a3 3300 	sub.w	r3, r3, #131072	@ 0x20000
341864a2:	4298      	cmp	r0, r3
341864a4:	f000 80ce 	beq.w	34186644 <RCCEx_GetUSARTCLKFreq+0x234>
341864a8:	d911      	bls.n	341864ce <RCCEx_GetUSARTCLKFreq+0xbe>
341864aa:	4b83      	ldr	r3, [pc, #524]	@ (341866b8 <RCCEx_GetUSARTCLKFreq+0x2a8>)
341864ac:	4298      	cmp	r0, r3
341864ae:	d038      	beq.n	34186522 <RCCEx_GetUSARTCLKFreq+0x112>
341864b0:	d92a      	bls.n	34186508 <RCCEx_GetUSARTCLKFreq+0xf8>
341864b2:	4b82      	ldr	r3, [pc, #520]	@ (341866bc <RCCEx_GetUSARTCLKFreq+0x2ac>)
341864b4:	4298      	cmp	r0, r3
341864b6:	d042      	beq.n	3418653e <RCCEx_GetUSARTCLKFreq+0x12e>
341864b8:	d83e      	bhi.n	34186538 <RCCEx_GetUSARTCLKFreq+0x128>
341864ba:	f2a3 4304 	subw	r3, r3, #1028	@ 0x404
341864be:	4298      	cmp	r0, r3
341864c0:	d03d      	beq.n	3418653e <RCCEx_GetUSARTCLKFreq+0x12e>
341864c2:	f503 6380 	add.w	r3, r3, #1024	@ 0x400
341864c6:	4298      	cmp	r0, r3
341864c8:	d039      	beq.n	3418653e <RCCEx_GetUSARTCLKFreq+0x12e>
341864ca:	2000      	movs	r0, #0
341864cc:	e0c0      	b.n	34186650 <RCCEx_GetUSARTCLKFreq+0x240>
341864ce:	f6a3 73fc 	subw	r3, r3, #4092	@ 0xffc
341864d2:	4298      	cmp	r0, r3
341864d4:	f000 80b6 	beq.w	34186644 <RCCEx_GetUSARTCLKFreq+0x234>
341864d8:	d80a      	bhi.n	341864f0 <RCCEx_GetUSARTCLKFreq+0xe0>
341864da:	f2a3 4304 	subw	r3, r3, #1028	@ 0x404
341864de:	4298      	cmp	r0, r3
341864e0:	f000 80b0 	beq.w	34186644 <RCCEx_GetUSARTCLKFreq+0x234>
341864e4:	f503 6380 	add.w	r3, r3, #1024	@ 0x400
341864e8:	4298      	cmp	r0, r3
341864ea:	d004      	beq.n	341864f6 <RCCEx_GetUSARTCLKFreq+0xe6>
341864ec:	2000      	movs	r0, #0
341864ee:	e0af      	b.n	34186650 <RCCEx_GetUSARTCLKFreq+0x240>
341864f0:	4b73      	ldr	r3, [pc, #460]	@ (341866c0 <RCCEx_GetUSARTCLKFreq+0x2b0>)
341864f2:	4298      	cmp	r0, r3
341864f4:	d106      	bne.n	34186504 <RCCEx_GetUSARTCLKFreq+0xf4>
      usart_frequency = RCCEx_GetPCLK1Freq(RCCEx_GetHCLKFreq(HAL_RCC_GetSysClockFreq()));
341864f6:	f7fc f89d 	bl	34182634 <HAL_RCC_GetSysClockFreq>
341864fa:	f7fc f913 	bl	34182724 <RCCEx_GetHCLKFreq>
341864fe:	f7fc f919 	bl	34182734 <RCCEx_GetPCLK1Freq>
      break;
34186502:	e0a5      	b.n	34186650 <RCCEx_GetUSARTCLKFreq+0x240>
  switch (LL_RCC_GetUSARTClockSource(USARTxSource))
34186504:	2000      	movs	r0, #0
34186506:	e0a3      	b.n	34186650 <RCCEx_GetUSARTCLKFreq+0x240>
34186508:	f6a3 73fc 	subw	r3, r3, #4092	@ 0xffc
3418650c:	4298      	cmp	r0, r3
3418650e:	d008      	beq.n	34186522 <RCCEx_GetUSARTCLKFreq+0x112>
34186510:	d80d      	bhi.n	3418652e <RCCEx_GetUSARTCLKFreq+0x11e>
34186512:	f2a3 4304 	subw	r3, r3, #1028	@ 0x404
34186516:	4298      	cmp	r0, r3
34186518:	d003      	beq.n	34186522 <RCCEx_GetUSARTCLKFreq+0x112>
3418651a:	f503 6380 	add.w	r3, r3, #1024	@ 0x400
3418651e:	4298      	cmp	r0, r3
34186520:	d103      	bne.n	3418652a <RCCEx_GetUSARTCLKFreq+0x11a>
      usart_frequency = RCCEx_GetCLKPCLKFreq(LL_RCC_CLKP_CLKSOURCE);
34186522:	2007      	movs	r0, #7
34186524:	f7fe f87c 	bl	34184620 <RCCEx_GetCLKPCLKFreq>
      break;
34186528:	e092      	b.n	34186650 <RCCEx_GetUSARTCLKFreq+0x240>
  switch (LL_RCC_GetUSARTClockSource(USARTxSource))
3418652a:	2000      	movs	r0, #0
3418652c:	e090      	b.n	34186650 <RCCEx_GetUSARTCLKFreq+0x240>
3418652e:	4b65      	ldr	r3, [pc, #404]	@ (341866c4 <RCCEx_GetUSARTCLKFreq+0x2b4>)
34186530:	4298      	cmp	r0, r3
34186532:	d0f6      	beq.n	34186522 <RCCEx_GetUSARTCLKFreq+0x112>
34186534:	2000      	movs	r0, #0
34186536:	e08b      	b.n	34186650 <RCCEx_GetUSARTCLKFreq+0x240>
34186538:	4b63      	ldr	r3, [pc, #396]	@ (341866c8 <RCCEx_GetUSARTCLKFreq+0x2b8>)
3418653a:	4298      	cmp	r0, r3
3418653c:	d11e      	bne.n	3418657c <RCCEx_GetUSARTCLKFreq+0x16c>
  return ((READ_BIT(RCC->DIVENR, RCC_DIVENR_IC9EN) == RCC_DIVENR_IC9EN) ? 1UL : 0UL);
3418653e:	4b5d      	ldr	r3, [pc, #372]	@ (341866b4 <RCCEx_GetUSARTCLKFreq+0x2a4>)
34186540:	f8d3 0240 	ldr.w	r0, [r3, #576]	@ 0x240
34186544:	f410 7080 	ands.w	r0, r0, #256	@ 0x100
34186548:	f000 8082 	beq.w	34186650 <RCCEx_GetUSARTCLKFreq+0x240>
  return ((READ_BIT(RCC->IC9CFGR, RCC_IC9CFGR_IC9INT) >> RCC_IC9CFGR_IC9INT_Pos) + 1UL);
3418654c:	f8d3 00e4 	ldr.w	r0, [r3, #228]	@ 0xe4
34186550:	f3c0 4007 	ubfx	r0, r0, #16, #8
34186554:	1c44      	adds	r4, r0, #1
  return (uint32_t)(READ_BIT(RCC->IC9CFGR, RCC_IC9CFGR_IC9SEL));
34186556:	f8d3 30e4 	ldr.w	r3, [r3, #228]	@ 0xe4
3418655a:	f003 5340 	and.w	r3, r3, #805306368	@ 0x30000000
        switch (LL_RCC_IC9_GetSource())
3418655e:	f1b3 5f00 	cmp.w	r3, #536870912	@ 0x20000000
34186562:	f000 8087 	beq.w	34186674 <RCCEx_GetUSARTCLKFreq+0x264>
34186566:	d876      	bhi.n	34186656 <RCCEx_GetUSARTCLKFreq+0x246>
34186568:	2b00      	cmp	r3, #0
3418656a:	d07e      	beq.n	3418666a <RCCEx_GetUSARTCLKFreq+0x25a>
3418656c:	f1b3 5f80 	cmp.w	r3, #268435456	@ 0x10000000
34186570:	d16f      	bne.n	34186652 <RCCEx_GetUSARTCLKFreq+0x242>
            usart_frequency = HAL_RCCEx_GetPLL2CLKFreq();
34186572:	f7fd ff47 	bl	34184404 <HAL_RCCEx_GetPLL2CLKFreq>
            usart_frequency = usart_frequency / ic_divider;
34186576:	fbb0 f0f4 	udiv	r0, r0, r4
            break;
3418657a:	e069      	b.n	34186650 <RCCEx_GetUSARTCLKFreq+0x240>
  switch (LL_RCC_GetUSARTClockSource(USARTxSource))
3418657c:	2000      	movs	r0, #0
3418657e:	e067      	b.n	34186650 <RCCEx_GetUSARTCLKFreq+0x240>
34186580:	2000      	movs	r0, #0
34186582:	e065      	b.n	34186650 <RCCEx_GetUSARTCLKFreq+0x240>
34186584:	4b51      	ldr	r3, [pc, #324]	@ (341866cc <RCCEx_GetUSARTCLKFreq+0x2bc>)
34186586:	4298      	cmp	r0, r3
34186588:	f43f af67 	beq.w	3418645a <RCCEx_GetUSARTCLKFreq+0x4a>
3418658c:	f503 6340 	add.w	r3, r3, #3072	@ 0xc00
34186590:	4298      	cmp	r0, r3
34186592:	f43f af62 	beq.w	3418645a <RCCEx_GetUSARTCLKFreq+0x4a>
34186596:	2000      	movs	r0, #0
34186598:	e05a      	b.n	34186650 <RCCEx_GetUSARTCLKFreq+0x240>
3418659a:	4b4d      	ldr	r3, [pc, #308]	@ (341866d0 <RCCEx_GetUSARTCLKFreq+0x2c0>)
3418659c:	4298      	cmp	r0, r3
3418659e:	d007      	beq.n	341865b0 <RCCEx_GetUSARTCLKFreq+0x1a0>
341865a0:	d810      	bhi.n	341865c4 <RCCEx_GetUSARTCLKFreq+0x1b4>
341865a2:	f5a3 6380 	sub.w	r3, r3, #1024	@ 0x400
341865a6:	4298      	cmp	r0, r3
341865a8:	d002      	beq.n	341865b0 <RCCEx_GetUSARTCLKFreq+0x1a0>
341865aa:	3304      	adds	r3, #4
341865ac:	4298      	cmp	r0, r3
341865ae:	d107      	bne.n	341865c0 <RCCEx_GetUSARTCLKFreq+0x1b0>
  return ((READ_BIT(RCC->SR, RCC_SR_LSERDY) != 0UL) ? 1UL : 0UL);
341865b0:	4b40      	ldr	r3, [pc, #256]	@ (341866b4 <RCCEx_GetUSARTCLKFreq+0x2a4>)
341865b2:	6858      	ldr	r0, [r3, #4]
341865b4:	f010 0002 	ands.w	r0, r0, #2
341865b8:	d04a      	beq.n	34186650 <RCCEx_GetUSARTCLKFreq+0x240>
    case LL_RCC_USART3_CLKSOURCE_LSE:
    case LL_RCC_USART6_CLKSOURCE_LSE:
    case LL_RCC_USART10_CLKSOURCE_LSE:
      if (LL_RCC_LSE_IsReady() != 0U)
      {
        usart_frequency = LSE_VALUE;
341865ba:	f44f 4000 	mov.w	r0, #32768	@ 0x8000
    default:
      /* Unexpected case */
      break;
  }

  return usart_frequency;
341865be:	e047      	b.n	34186650 <RCCEx_GetUSARTCLKFreq+0x240>
  switch (LL_RCC_GetUSARTClockSource(USARTxSource))
341865c0:	2000      	movs	r0, #0
341865c2:	e045      	b.n	34186650 <RCCEx_GetUSARTCLKFreq+0x240>
341865c4:	4b43      	ldr	r3, [pc, #268]	@ (341866d4 <RCCEx_GetUSARTCLKFreq+0x2c4>)
341865c6:	4298      	cmp	r0, r3
341865c8:	d0f2      	beq.n	341865b0 <RCCEx_GetUSARTCLKFreq+0x1a0>
341865ca:	2000      	movs	r0, #0
341865cc:	e040      	b.n	34186650 <RCCEx_GetUSARTCLKFreq+0x240>
341865ce:	4b42      	ldr	r3, [pc, #264]	@ (341866d8 <RCCEx_GetUSARTCLKFreq+0x2c8>)
341865d0:	4298      	cmp	r0, r3
341865d2:	d00b      	beq.n	341865ec <RCCEx_GetUSARTCLKFreq+0x1dc>
341865d4:	d915      	bls.n	34186602 <RCCEx_GetUSARTCLKFreq+0x1f2>
341865d6:	4b41      	ldr	r3, [pc, #260]	@ (341866dc <RCCEx_GetUSARTCLKFreq+0x2cc>)
341865d8:	4298      	cmp	r0, r3
341865da:	d007      	beq.n	341865ec <RCCEx_GetUSARTCLKFreq+0x1dc>
341865dc:	d82d      	bhi.n	3418663a <RCCEx_GetUSARTCLKFreq+0x22a>
341865de:	f5a3 6380 	sub.w	r3, r3, #1024	@ 0x400
341865e2:	4298      	cmp	r0, r3
341865e4:	d002      	beq.n	341865ec <RCCEx_GetUSARTCLKFreq+0x1dc>
341865e6:	3304      	adds	r3, #4
341865e8:	4298      	cmp	r0, r3
341865ea:	d124      	bne.n	34186636 <RCCEx_GetUSARTCLKFreq+0x226>
  return ((READ_BIT(RCC->SR, RCC_SR_HSIRDY) != 0UL) ? 1UL : 0UL);
341865ec:	4b31      	ldr	r3, [pc, #196]	@ (341866b4 <RCCEx_GetUSARTCLKFreq+0x2a4>)
341865ee:	6858      	ldr	r0, [r3, #4]
341865f0:	f010 0008 	ands.w	r0, r0, #8
341865f4:	d02c      	beq.n	34186650 <RCCEx_GetUSARTCLKFreq+0x240>
  return (READ_BIT(RCC->HSICFGR, RCC_HSICFGR_HSIDIV));
341865f6:	6c9b      	ldr	r3, [r3, #72]	@ 0x48
        usart_frequency = HSI_VALUE >> (LL_RCC_HSI_GetDivider() >> RCC_HSICFGR_HSIDIV_Pos);
341865f8:	f3c3 13c1 	ubfx	r3, r3, #7, #2
341865fc:	4838      	ldr	r0, [pc, #224]	@ (341866e0 <RCCEx_GetUSARTCLKFreq+0x2d0>)
341865fe:	40d8      	lsrs	r0, r3
34186600:	e026      	b.n	34186650 <RCCEx_GetUSARTCLKFreq+0x240>
  switch (LL_RCC_GetUSARTClockSource(USARTxSource))
34186602:	f5a3 4378 	sub.w	r3, r3, #63488	@ 0xf800
34186606:	4298      	cmp	r0, r3
34186608:	d007      	beq.n	3418661a <RCCEx_GetUSARTCLKFreq+0x20a>
3418660a:	d80f      	bhi.n	3418662c <RCCEx_GetUSARTCLKFreq+0x21c>
3418660c:	f5a3 6380 	sub.w	r3, r3, #1024	@ 0x400
34186610:	4298      	cmp	r0, r3
34186612:	d002      	beq.n	3418661a <RCCEx_GetUSARTCLKFreq+0x20a>
34186614:	3304      	adds	r3, #4
34186616:	4298      	cmp	r0, r3
34186618:	d106      	bne.n	34186628 <RCCEx_GetUSARTCLKFreq+0x218>
  return ((READ_BIT(RCC->SR, RCC_SR_MSIRDY) != 0UL) ? 1UL : 0UL);
3418661a:	4b26      	ldr	r3, [pc, #152]	@ (341866b4 <RCCEx_GetUSARTCLKFreq+0x2a4>)
3418661c:	6858      	ldr	r0, [r3, #4]
3418661e:	f010 0004 	ands.w	r0, r0, #4
34186622:	d015      	beq.n	34186650 <RCCEx_GetUSARTCLKFreq+0x240>
        usart_frequency = MSI_VALUE;
34186624:	482f      	ldr	r0, [pc, #188]	@ (341866e4 <RCCEx_GetUSARTCLKFreq+0x2d4>)
34186626:	e013      	b.n	34186650 <RCCEx_GetUSARTCLKFreq+0x240>
  switch (LL_RCC_GetUSARTClockSource(USARTxSource))
34186628:	2000      	movs	r0, #0
3418662a:	e011      	b.n	34186650 <RCCEx_GetUSARTCLKFreq+0x240>
3418662c:	4b2e      	ldr	r3, [pc, #184]	@ (341866e8 <RCCEx_GetUSARTCLKFreq+0x2d8>)
3418662e:	4298      	cmp	r0, r3
34186630:	d0f3      	beq.n	3418661a <RCCEx_GetUSARTCLKFreq+0x20a>
34186632:	2000      	movs	r0, #0
34186634:	e00c      	b.n	34186650 <RCCEx_GetUSARTCLKFreq+0x240>
34186636:	2000      	movs	r0, #0
34186638:	e00a      	b.n	34186650 <RCCEx_GetUSARTCLKFreq+0x240>
3418663a:	4b2c      	ldr	r3, [pc, #176]	@ (341866ec <RCCEx_GetUSARTCLKFreq+0x2dc>)
3418663c:	4298      	cmp	r0, r3
3418663e:	d0d5      	beq.n	341865ec <RCCEx_GetUSARTCLKFreq+0x1dc>
34186640:	2000      	movs	r0, #0
34186642:	e005      	b.n	34186650 <RCCEx_GetUSARTCLKFreq+0x240>
      usart_frequency = RCCEx_GetPCLK2Freq(RCCEx_GetHCLKFreq(HAL_RCC_GetSysClockFreq()));
34186644:	f7fb fff6 	bl	34182634 <HAL_RCC_GetSysClockFreq>
34186648:	f7fc f86c 	bl	34182724 <RCCEx_GetHCLKFreq>
3418664c:	f7fc f87a 	bl	34182744 <RCCEx_GetPCLK2Freq>
}
34186650:	bd10      	pop	{r4, pc}
        switch (LL_RCC_IC9_GetSource())
34186652:	2000      	movs	r0, #0
34186654:	e7fc      	b.n	34186650 <RCCEx_GetUSARTCLKFreq+0x240>
34186656:	f1b3 5f40 	cmp.w	r3, #805306368	@ 0x30000000
3418665a:	d104      	bne.n	34186666 <RCCEx_GetUSARTCLKFreq+0x256>
            usart_frequency = HAL_RCCEx_GetPLL4CLKFreq();
3418665c:	f7fd ff62 	bl	34184524 <HAL_RCCEx_GetPLL4CLKFreq>
            usart_frequency = usart_frequency / ic_divider;
34186660:	fbb0 f0f4 	udiv	r0, r0, r4
            break;
34186664:	e7f4      	b.n	34186650 <RCCEx_GetUSARTCLKFreq+0x240>
        switch (LL_RCC_IC9_GetSource())
34186666:	2000      	movs	r0, #0
34186668:	e7f2      	b.n	34186650 <RCCEx_GetUSARTCLKFreq+0x240>
            usart_frequency = HAL_RCCEx_GetPLL1CLKFreq();
3418666a:	f7fd fe83 	bl	34184374 <HAL_RCCEx_GetPLL1CLKFreq>
            usart_frequency = usart_frequency / ic_divider;
3418666e:	fbb0 f0f4 	udiv	r0, r0, r4
            break;
34186672:	e7ed      	b.n	34186650 <RCCEx_GetUSARTCLKFreq+0x240>
            usart_frequency = HAL_RCCEx_GetPLL3CLKFreq();
34186674:	f7fd ff0e 	bl	34184494 <HAL_RCCEx_GetPLL3CLKFreq>
            usart_frequency = usart_frequency / ic_divider;
34186678:	fbb0 f0f4 	udiv	r0, r0, r4
            break;
3418667c:	e7e8      	b.n	34186650 <RCCEx_GetUSARTCLKFreq+0x240>
        switch (LL_RCC_IC14_GetSource())
3418667e:	2000      	movs	r0, #0
34186680:	e7e6      	b.n	34186650 <RCCEx_GetUSARTCLKFreq+0x240>
34186682:	f1b3 5f40 	cmp.w	r3, #805306368	@ 0x30000000
34186686:	d104      	bne.n	34186692 <RCCEx_GetUSARTCLKFreq+0x282>
            usart_frequency = HAL_RCCEx_GetPLL4CLKFreq();
34186688:	f7fd ff4c 	bl	34184524 <HAL_RCCEx_GetPLL4CLKFreq>
            usart_frequency = usart_frequency / ic_divider;
3418668c:	fbb0 f0f4 	udiv	r0, r0, r4
            break;
34186690:	e7de      	b.n	34186650 <RCCEx_GetUSARTCLKFreq+0x240>
        switch (LL_RCC_IC14_GetSource())
34186692:	2000      	movs	r0, #0
34186694:	e7dc      	b.n	34186650 <RCCEx_GetUSARTCLKFreq+0x240>
            usart_frequency = HAL_RCCEx_GetPLL1CLKFreq();
34186696:	f7fd fe6d 	bl	34184374 <HAL_RCCEx_GetPLL1CLKFreq>
            usart_frequency = usart_frequency / ic_divider;
3418669a:	fbb0 f0f4 	udiv	r0, r0, r4
            break;
3418669e:	e7d7      	b.n	34186650 <RCCEx_GetUSARTCLKFreq+0x240>
            usart_frequency = HAL_RCCEx_GetPLL3CLKFreq();
341866a0:	f7fd fef8 	bl	34184494 <HAL_RCCEx_GetPLL3CLKFreq>
            usart_frequency = usart_frequency / ic_divider;
341866a4:	fbb0 f0f4 	udiv	r0, r0, r4
            break;
341866a8:	e7d2      	b.n	34186650 <RCCEx_GetUSARTCLKFreq+0x240>
341866aa:	bf00      	nop
341866ac:	07021430 	.word	0x07021430
341866b0:	07050030 	.word	0x07050030
341866b4:	56028000 	.word	0x56028000
341866b8:	07011430 	.word	0x07011430
341866bc:	07020434 	.word	0x07020434
341866c0:	07000830 	.word	0x07000830
341866c4:	07010830 	.word	0x07010830
341866c8:	07020830 	.word	0x07020830
341866cc:	07030830 	.word	0x07030830
341866d0:	07040830 	.word	0x07040830
341866d4:	07041430 	.word	0x07041430
341866d8:	07060030 	.word	0x07060030
341866dc:	07060830 	.word	0x07060830
341866e0:	03d09000 	.word	0x03d09000
341866e4:	003d0900 	.word	0x003d0900
341866e8:	07051430 	.word	0x07051430
341866ec:	07061430 	.word	0x07061430

341866f0 <RCCEx_GetOTGPHYCLKFreq>:
  *         @arg @ref RCCEx_USB_OTGHS2_Clock_Source
  * @retval OTGPHY clock frequency (in Hz)
  *         - @ref  RCC_PERIPH_FREQUENCY_NO indicates that oscillator is not ready or Disabled
  */
static uint32_t RCCEx_GetOTGPHYCLKFreq(uint32_t OTGPHYxSource)
{
341866f0:	b510      	push	{r4, lr}
  return LL_RCC_GetClockSource(Periph);
341866f2:	f7fc f809 	bl	34182708 <LL_RCC_GetClockSource>
  uint32_t usb_frequency = RCC_PERIPH_FREQUENCY_NO;

  switch (LL_RCC_GetUSBClockSource(OTGPHYxSource))
341866f6:	4b37      	ldr	r3, [pc, #220]	@ (341867d4 <RCCEx_GetOTGPHYCLKFreq+0xe4>)
341866f8:	4298      	cmp	r0, r3
341866fa:	d037      	beq.n	3418676c <RCCEx_GetOTGPHYCLKFreq+0x7c>
341866fc:	d81e      	bhi.n	3418673c <RCCEx_GetOTGPHYCLKFreq+0x4c>
341866fe:	f5a3 3380 	sub.w	r3, r3, #65536	@ 0x10000
34186702:	4298      	cmp	r0, r3
34186704:	d014      	beq.n	34186730 <RCCEx_GetOTGPHYCLKFreq+0x40>
34186706:	d810      	bhi.n	3418672a <RCCEx_GetOTGPHYCLKFreq+0x3a>
34186708:	f5a3 3380 	sub.w	r3, r3, #65536	@ 0x10000
3418670c:	4298      	cmp	r0, r3
3418670e:	d003      	beq.n	34186718 <RCCEx_GetOTGPHYCLKFreq+0x28>
34186710:	f503 6300 	add.w	r3, r3, #2048	@ 0x800
34186714:	4298      	cmp	r0, r3
34186716:	d106      	bne.n	34186726 <RCCEx_GetOTGPHYCLKFreq+0x36>
  return ((READ_BIT(RCC->SR, RCC_SR_HSERDY) != 0UL) ? 1UL : 0UL);
34186718:	4b2f      	ldr	r3, [pc, #188]	@ (341867d8 <RCCEx_GetOTGPHYCLKFreq+0xe8>)
3418671a:	6858      	ldr	r0, [r3, #4]
3418671c:	f010 0010 	ands.w	r0, r0, #16
34186720:	d009      	beq.n	34186736 <RCCEx_GetOTGPHYCLKFreq+0x46>
      break;
    case LL_RCC_OTGPHY1_CLKSOURCE_HSE_DIV_2:
    case LL_RCC_OTGPHY2_CLKSOURCE_HSE_DIV_2:
      if (LL_RCC_HSE_IsReady() != 0U)
      {
        usb_frequency = HSE_VALUE / 2U;
34186722:	482e      	ldr	r0, [pc, #184]	@ (341867dc <RCCEx_GetOTGPHYCLKFreq+0xec>)
34186724:	e007      	b.n	34186736 <RCCEx_GetOTGPHYCLKFreq+0x46>
  switch (LL_RCC_GetUSBClockSource(OTGPHYxSource))
34186726:	2000      	movs	r0, #0
34186728:	e005      	b.n	34186736 <RCCEx_GetOTGPHYCLKFreq+0x46>
3418672a:	4b2d      	ldr	r3, [pc, #180]	@ (341867e0 <RCCEx_GetOTGPHYCLKFreq+0xf0>)
3418672c:	4298      	cmp	r0, r3
3418672e:	d103      	bne.n	34186738 <RCCEx_GetOTGPHYCLKFreq+0x48>
      usb_frequency = RCCEx_GetCLKPCLKFreq(LL_RCC_CLKP_CLKSOURCE);
34186730:	2007      	movs	r0, #7
34186732:	f7fd ff75 	bl	34184620 <RCCEx_GetCLKPCLKFreq>
      /* Unexpected case */
      break;
  }

  return usb_frequency;
}
34186736:	bd10      	pop	{r4, pc}
  switch (LL_RCC_GetUSBClockSource(OTGPHYxSource))
34186738:	2000      	movs	r0, #0
3418673a:	e7fc      	b.n	34186736 <RCCEx_GetOTGPHYCLKFreq+0x46>
3418673c:	4b29      	ldr	r3, [pc, #164]	@ (341867e4 <RCCEx_GetOTGPHYCLKFreq+0xf4>)
3418673e:	4298      	cmp	r0, r3
34186740:	d009      	beq.n	34186756 <RCCEx_GetOTGPHYCLKFreq+0x66>
34186742:	f503 6300 	add.w	r3, r3, #2048	@ 0x800
34186746:	4298      	cmp	r0, r3
34186748:	d005      	beq.n	34186756 <RCCEx_GetOTGPHYCLKFreq+0x66>
3418674a:	f5a3 3380 	sub.w	r3, r3, #65536	@ 0x10000
3418674e:	4298      	cmp	r0, r3
34186750:	d00c      	beq.n	3418676c <RCCEx_GetOTGPHYCLKFreq+0x7c>
34186752:	2000      	movs	r0, #0
34186754:	e7ef      	b.n	34186736 <RCCEx_GetOTGPHYCLKFreq+0x46>
34186756:	4b20      	ldr	r3, [pc, #128]	@ (341867d8 <RCCEx_GetOTGPHYCLKFreq+0xe8>)
34186758:	6858      	ldr	r0, [r3, #4]
3418675a:	f010 0010 	ands.w	r0, r0, #16
3418675e:	d0ea      	beq.n	34186736 <RCCEx_GetOTGPHYCLKFreq+0x46>
  return ((READ_BIT(RCC->HSECFGR, RCC_HSECFGR_HSEDIV2SEL) == RCC_HSECFGR_HSEDIV2SEL) ? 1UL : 0UL);
34186760:	6d5b      	ldr	r3, [r3, #84]	@ 0x54
34186762:	f013 0f40 	tst.w	r3, #64	@ 0x40
34186766:	d133      	bne.n	341867d0 <RCCEx_GetOTGPHYCLKFreq+0xe0>
          usb_frequency = HSE_VALUE;
34186768:	481f      	ldr	r0, [pc, #124]	@ (341867e8 <RCCEx_GetOTGPHYCLKFreq+0xf8>)
3418676a:	e7e4      	b.n	34186736 <RCCEx_GetOTGPHYCLKFreq+0x46>
  return ((READ_BIT(RCC->DIVENR, RCC_DIVENR_IC15EN) == RCC_DIVENR_IC15EN) ? 1UL : 0UL);
3418676c:	4b1a      	ldr	r3, [pc, #104]	@ (341867d8 <RCCEx_GetOTGPHYCLKFreq+0xe8>)
3418676e:	f8d3 0240 	ldr.w	r0, [r3, #576]	@ 0x240
34186772:	f410 4080 	ands.w	r0, r0, #16384	@ 0x4000
34186776:	d0de      	beq.n	34186736 <RCCEx_GetOTGPHYCLKFreq+0x46>
  return ((READ_BIT(RCC->IC15CFGR, RCC_IC15CFGR_IC15INT) >> RCC_IC15CFGR_IC15INT_Pos) + 1UL);
34186778:	f8d3 00fc 	ldr.w	r0, [r3, #252]	@ 0xfc
3418677c:	f3c0 4007 	ubfx	r0, r0, #16, #8
34186780:	1c44      	adds	r4, r0, #1
  return (uint32_t)(READ_BIT(RCC->IC15CFGR, RCC_IC15CFGR_IC15SEL));
34186782:	f8d3 30fc 	ldr.w	r3, [r3, #252]	@ 0xfc
34186786:	f003 5340 	and.w	r3, r3, #805306368	@ 0x30000000
        switch (LL_RCC_IC15_GetSource())
3418678a:	f1b3 5f00 	cmp.w	r3, #536870912	@ 0x20000000
3418678e:	d01a      	beq.n	341867c6 <RCCEx_GetOTGPHYCLKFreq+0xd6>
34186790:	d80a      	bhi.n	341867a8 <RCCEx_GetOTGPHYCLKFreq+0xb8>
34186792:	b19b      	cbz	r3, 341867bc <RCCEx_GetOTGPHYCLKFreq+0xcc>
34186794:	f1b3 5f80 	cmp.w	r3, #268435456	@ 0x10000000
34186798:	d104      	bne.n	341867a4 <RCCEx_GetOTGPHYCLKFreq+0xb4>
            usb_frequency = HAL_RCCEx_GetPLL2CLKFreq();
3418679a:	f7fd fe33 	bl	34184404 <HAL_RCCEx_GetPLL2CLKFreq>
            usb_frequency = usb_frequency / ic_divider;
3418679e:	fbb0 f0f4 	udiv	r0, r0, r4
            break;
341867a2:	e7c8      	b.n	34186736 <RCCEx_GetOTGPHYCLKFreq+0x46>
        switch (LL_RCC_IC15_GetSource())
341867a4:	2000      	movs	r0, #0
341867a6:	e7c6      	b.n	34186736 <RCCEx_GetOTGPHYCLKFreq+0x46>
341867a8:	f1b3 5f40 	cmp.w	r3, #805306368	@ 0x30000000
341867ac:	d104      	bne.n	341867b8 <RCCEx_GetOTGPHYCLKFreq+0xc8>
            usb_frequency = HAL_RCCEx_GetPLL4CLKFreq();
341867ae:	f7fd feb9 	bl	34184524 <HAL_RCCEx_GetPLL4CLKFreq>
            usb_frequency = usb_frequency / ic_divider;
341867b2:	fbb0 f0f4 	udiv	r0, r0, r4
            break;
341867b6:	e7be      	b.n	34186736 <RCCEx_GetOTGPHYCLKFreq+0x46>
        switch (LL_RCC_IC15_GetSource())
341867b8:	2000      	movs	r0, #0
341867ba:	e7bc      	b.n	34186736 <RCCEx_GetOTGPHYCLKFreq+0x46>
            usb_frequency = HAL_RCCEx_GetPLL1CLKFreq();
341867bc:	f7fd fdda 	bl	34184374 <HAL_RCCEx_GetPLL1CLKFreq>
            usb_frequency = usb_frequency / ic_divider;
341867c0:	fbb0 f0f4 	udiv	r0, r0, r4
            break;
341867c4:	e7b7      	b.n	34186736 <RCCEx_GetOTGPHYCLKFreq+0x46>
            usb_frequency = HAL_RCCEx_GetPLL3CLKFreq();
341867c6:	f7fd fe65 	bl	34184494 <HAL_RCCEx_GetPLL3CLKFreq>
            usb_frequency = usb_frequency / ic_divider;
341867ca:	fbb0 f0f4 	udiv	r0, r0, r4
            break;
341867ce:	e7b2      	b.n	34186736 <RCCEx_GetOTGPHYCLKFreq+0x46>
          usb_frequency = HSE_VALUE / 2U;
341867d0:	4802      	ldr	r0, [pc, #8]	@ (341867dc <RCCEx_GetOTGPHYCLKFreq+0xec>)
  return usb_frequency;
341867d2:	e7b0      	b.n	34186736 <RCCEx_GetOTGPHYCLKFreq+0x46>
341867d4:	03020c14 	.word	0x03020c14
341867d8:	56028000 	.word	0x56028000
341867dc:	016e3600 	.word	0x016e3600
341867e0:	03011414 	.word	0x03011414
341867e4:	03030c14 	.word	0x03030c14
341867e8:	02dc6c00 	.word	0x02dc6c00

341867ec <RCCEx_GetOTGPHYCKREFCLKFreq>:
  *         @arg @ref RCCEx_USBPHY2_Clock_Source
  * @retval OTGPHYCKREF clock frequency (in Hz)
  *         - @ref  RCC_PERIPH_FREQUENCY_NO indicates that oscillator is not ready or Disabled
  */
static uint32_t RCCEx_GetOTGPHYCKREFCLKFreq(uint32_t OTGPHYxCKREFSource)
{
341867ec:	b508      	push	{r3, lr}
  return LL_RCC_GetClockSource(Periph);
341867ee:	f7fb ff8b 	bl	34182708 <LL_RCC_GetClockSource>
  uint32_t usb_frequency = RCC_PERIPH_FREQUENCY_NO;

  switch (LL_RCC_GetUSBClockSource(OTGPHYxCKREFSource))
341867f2:	4b14      	ldr	r3, [pc, #80]	@ (34186844 <RCCEx_GetOTGPHYCKREFCLKFreq+0x58>)
341867f4:	4298      	cmp	r0, r3
341867f6:	d01c      	beq.n	34186832 <RCCEx_GetOTGPHYCKREFCLKFreq+0x46>
341867f8:	d809      	bhi.n	3418680e <RCCEx_GetOTGPHYCKREFCLKFreq+0x22>
341867fa:	f5a3 6300 	sub.w	r3, r3, #2048	@ 0x800
341867fe:	4298      	cmp	r0, r3
34186800:	d103      	bne.n	3418680a <RCCEx_GetOTGPHYCKREFCLKFreq+0x1e>
        }
      }
      break;

    case LL_RCC_OTGPHY1CKREF_CLKSOURCE_OTGPHY1:
      usb_frequency = RCCEx_GetOTGPHYCLKFreq(LL_RCC_OTGPHY1_CLKSOURCE);
34186802:	4811      	ldr	r0, [pc, #68]	@ (34186848 <RCCEx_GetOTGPHYCKREFCLKFreq+0x5c>)
34186804:	f7ff ff74 	bl	341866f0 <RCCEx_GetOTGPHYCLKFreq>
      /* Unexpected case */
      break;
  }

  return usb_frequency;
}
34186808:	bd08      	pop	{r3, pc}
  switch (LL_RCC_GetUSBClockSource(OTGPHYxCKREFSource))
3418680a:	2000      	movs	r0, #0
3418680c:	e7fc      	b.n	34186808 <RCCEx_GetOTGPHYCKREFCLKFreq+0x1c>
3418680e:	4b0f      	ldr	r3, [pc, #60]	@ (3418684c <RCCEx_GetOTGPHYCKREFCLKFreq+0x60>)
34186810:	4298      	cmp	r0, r3
34186812:	d003      	beq.n	3418681c <RCCEx_GetOTGPHYCKREFCLKFreq+0x30>
34186814:	f503 6300 	add.w	r3, r3, #2048	@ 0x800
34186818:	4298      	cmp	r0, r3
3418681a:	d10e      	bne.n	3418683a <RCCEx_GetOTGPHYCKREFCLKFreq+0x4e>
  return ((READ_BIT(RCC->SR, RCC_SR_HSERDY) != 0UL) ? 1UL : 0UL);
3418681c:	4b0c      	ldr	r3, [pc, #48]	@ (34186850 <RCCEx_GetOTGPHYCKREFCLKFreq+0x64>)
3418681e:	6858      	ldr	r0, [r3, #4]
34186820:	f010 0010 	ands.w	r0, r0, #16
34186824:	d0f0      	beq.n	34186808 <RCCEx_GetOTGPHYCKREFCLKFreq+0x1c>
  return ((READ_BIT(RCC->HSECFGR, RCC_HSECFGR_HSEDIV2SEL) == RCC_HSECFGR_HSEDIV2SEL) ? 1UL : 0UL);
34186826:	6d5b      	ldr	r3, [r3, #84]	@ 0x54
34186828:	f013 0f40 	tst.w	r3, #64	@ 0x40
3418682c:	d107      	bne.n	3418683e <RCCEx_GetOTGPHYCKREFCLKFreq+0x52>
          usb_frequency = HSE_VALUE;
3418682e:	4809      	ldr	r0, [pc, #36]	@ (34186854 <RCCEx_GetOTGPHYCKREFCLKFreq+0x68>)
34186830:	e7ea      	b.n	34186808 <RCCEx_GetOTGPHYCKREFCLKFreq+0x1c>
      usb_frequency = RCCEx_GetOTGPHYCLKFreq(LL_RCC_OTGPHY2_CLKSOURCE);
34186832:	4809      	ldr	r0, [pc, #36]	@ (34186858 <RCCEx_GetOTGPHYCKREFCLKFreq+0x6c>)
34186834:	f7ff ff5c 	bl	341866f0 <RCCEx_GetOTGPHYCLKFreq>
      break;
34186838:	e7e6      	b.n	34186808 <RCCEx_GetOTGPHYCKREFCLKFreq+0x1c>
  switch (LL_RCC_GetUSBClockSource(OTGPHYxCKREFSource))
3418683a:	2000      	movs	r0, #0
3418683c:	e7e4      	b.n	34186808 <RCCEx_GetOTGPHYCKREFCLKFreq+0x1c>
          usb_frequency = HSE_VALUE / 2U;
3418683e:	4807      	ldr	r0, [pc, #28]	@ (3418685c <RCCEx_GetOTGPHYCKREFCLKFreq+0x70>)
  return usb_frequency;
34186840:	e7e2      	b.n	34186808 <RCCEx_GetOTGPHYCKREFCLKFreq+0x1c>
34186842:	bf00      	nop
34186844:	01001814 	.word	0x01001814
34186848:	03000c14 	.word	0x03000c14
3418684c:	01011014 	.word	0x01011014
34186850:	56028000 	.word	0x56028000
34186854:	02dc6c00 	.word	0x02dc6c00
34186858:	03001414 	.word	0x03001414
3418685c:	016e3600 	.word	0x016e3600

34186860 <RCCEx_GetXSPICLKFreq>:
  * @retval XSPI clock frequency (in Hz)
  *         - @ref  RCC_PERIPH_FREQUENCY_NO indicates that oscillator is not ready
  */

static uint32_t RCCEx_GetXSPICLKFreq(uint32_t XSPIxSource)
{
34186860:	b510      	push	{r4, lr}
  return LL_RCC_GetClockSource(Periph);
34186862:	f7fb ff51 	bl	34182708 <LL_RCC_GetClockSource>
  uint32_t xspi_frequency = RCC_PERIPH_FREQUENCY_NO;
  uint32_t ic_divider;

  switch (LL_RCC_GetXSPIClockSource(XSPIxSource))
34186866:	4b52      	ldr	r3, [pc, #328]	@ (341869b0 <RCCEx_GetXSPICLKFreq+0x150>)
34186868:	4298      	cmp	r0, r3
3418686a:	d055      	beq.n	34186918 <RCCEx_GetXSPICLKFreq+0xb8>
3418686c:	d824      	bhi.n	341868b8 <RCCEx_GetXSPICLKFreq+0x58>
3418686e:	f5a3 3380 	sub.w	r3, r3, #65536	@ 0x10000
34186872:	4298      	cmp	r0, r3
34186874:	d01a      	beq.n	341868ac <RCCEx_GetXSPICLKFreq+0x4c>
34186876:	d812      	bhi.n	3418689e <RCCEx_GetXSPICLKFreq+0x3e>
34186878:	f5a3 437c 	sub.w	r3, r3, #64512	@ 0xfc00
3418687c:	4298      	cmp	r0, r3
3418687e:	d007      	beq.n	34186890 <RCCEx_GetXSPICLKFreq+0x30>
34186880:	f503 6380 	add.w	r3, r3, #1024	@ 0x400
34186884:	4298      	cmp	r0, r3
34186886:	d003      	beq.n	34186890 <RCCEx_GetXSPICLKFreq+0x30>
34186888:	f5a3 6300 	sub.w	r3, r3, #2048	@ 0x800
3418688c:	4298      	cmp	r0, r3
3418688e:	d104      	bne.n	3418689a <RCCEx_GetXSPICLKFreq+0x3a>
  {
    case LL_RCC_XSPI1_CLKSOURCE_HCLK:
    case LL_RCC_XSPI2_CLKSOURCE_HCLK:
    case LL_RCC_XSPI3_CLKSOURCE_HCLK:
      xspi_frequency = RCCEx_GetHCLKFreq(HAL_RCC_GetSysClockFreq());
34186890:	f7fb fed0 	bl	34182634 <HAL_RCC_GetSysClockFreq>
34186894:	f7fb ff46 	bl	34182724 <RCCEx_GetHCLKFreq>
      /* Nothing to do */
      break;
  }

  return xspi_frequency;
}
34186898:	bd10      	pop	{r4, pc}
  switch (LL_RCC_GetXSPIClockSource(XSPIxSource))
3418689a:	2000      	movs	r0, #0
3418689c:	e7fc      	b.n	34186898 <RCCEx_GetXSPICLKFreq+0x38>
3418689e:	4b45      	ldr	r3, [pc, #276]	@ (341869b4 <RCCEx_GetXSPICLKFreq+0x154>)
341868a0:	4298      	cmp	r0, r3
341868a2:	d003      	beq.n	341868ac <RCCEx_GetXSPICLKFreq+0x4c>
341868a4:	f503 6380 	add.w	r3, r3, #1024	@ 0x400
341868a8:	4298      	cmp	r0, r3
341868aa:	d103      	bne.n	341868b4 <RCCEx_GetXSPICLKFreq+0x54>
      xspi_frequency = RCCEx_GetCLKPCLKFreq(LL_RCC_CLKP_CLKSOURCE);
341868ac:	2007      	movs	r0, #7
341868ae:	f7fd feb7 	bl	34184620 <RCCEx_GetCLKPCLKFreq>
      break;
341868b2:	e7f1      	b.n	34186898 <RCCEx_GetXSPICLKFreq+0x38>
  switch (LL_RCC_GetXSPIClockSource(XSPIxSource))
341868b4:	2000      	movs	r0, #0
341868b6:	e7ef      	b.n	34186898 <RCCEx_GetXSPICLKFreq+0x38>
341868b8:	4b3f      	ldr	r3, [pc, #252]	@ (341869b8 <RCCEx_GetXSPICLKFreq+0x158>)
341868ba:	4298      	cmp	r0, r3
341868bc:	d007      	beq.n	341868ce <RCCEx_GetXSPICLKFreq+0x6e>
341868be:	d923      	bls.n	34186908 <RCCEx_GetXSPICLKFreq+0xa8>
341868c0:	4b3e      	ldr	r3, [pc, #248]	@ (341869bc <RCCEx_GetXSPICLKFreq+0x15c>)
341868c2:	4298      	cmp	r0, r3
341868c4:	d003      	beq.n	341868ce <RCCEx_GetXSPICLKFreq+0x6e>
341868c6:	f503 6380 	add.w	r3, r3, #1024	@ 0x400
341868ca:	4298      	cmp	r0, r3
341868cc:	d142      	bne.n	34186954 <RCCEx_GetXSPICLKFreq+0xf4>
  return ((READ_BIT(RCC->DIVENR, RCC_DIVENR_IC4EN) == RCC_DIVENR_IC4EN) ? 1UL : 0UL);
341868ce:	4b3c      	ldr	r3, [pc, #240]	@ (341869c0 <RCCEx_GetXSPICLKFreq+0x160>)
341868d0:	f8d3 0240 	ldr.w	r0, [r3, #576]	@ 0x240
341868d4:	f010 0008 	ands.w	r0, r0, #8
341868d8:	d0de      	beq.n	34186898 <RCCEx_GetXSPICLKFreq+0x38>
  return ((READ_BIT(RCC->IC4CFGR, RCC_IC4CFGR_IC4INT) >> RCC_IC4CFGR_IC4INT_Pos) + 1UL);
341868da:	f8d3 00d0 	ldr.w	r0, [r3, #208]	@ 0xd0
341868de:	f3c0 4007 	ubfx	r0, r0, #16, #8
341868e2:	1c44      	adds	r4, r0, #1
  return (uint32_t)(READ_BIT(RCC->IC4CFGR, RCC_IC4CFGR_IC4SEL));
341868e4:	f8d3 30d0 	ldr.w	r3, [r3, #208]	@ 0xd0
341868e8:	f003 5340 	and.w	r3, r3, #805306368	@ 0x30000000
        switch (LL_RCC_IC4_GetSource())
341868ec:	f1b3 5f00 	cmp.w	r3, #536870912	@ 0x20000000
341868f0:	d059      	beq.n	341869a6 <RCCEx_GetXSPICLKFreq+0x146>
341868f2:	d849      	bhi.n	34186988 <RCCEx_GetXSPICLKFreq+0x128>
341868f4:	2b00      	cmp	r3, #0
341868f6:	d051      	beq.n	3418699c <RCCEx_GetXSPICLKFreq+0x13c>
341868f8:	f1b3 5f80 	cmp.w	r3, #268435456	@ 0x10000000
341868fc:	d142      	bne.n	34186984 <RCCEx_GetXSPICLKFreq+0x124>
            xspi_frequency = HAL_RCCEx_GetPLL2CLKFreq();
341868fe:	f7fd fd81 	bl	34184404 <HAL_RCCEx_GetPLL2CLKFreq>
            xspi_frequency = xspi_frequency / ic_divider;
34186902:	fbb0 f0f4 	udiv	r0, r0, r4
            break;
34186906:	e7c7      	b.n	34186898 <RCCEx_GetXSPICLKFreq+0x38>
  switch (LL_RCC_GetXSPIClockSource(XSPIxSource))
34186908:	f5a3 437c 	sub.w	r3, r3, #64512	@ 0xfc00
3418690c:	4298      	cmp	r0, r3
3418690e:	d003      	beq.n	34186918 <RCCEx_GetXSPICLKFreq+0xb8>
34186910:	f503 6380 	add.w	r3, r3, #1024	@ 0x400
34186914:	4298      	cmp	r0, r3
34186916:	d11b      	bne.n	34186950 <RCCEx_GetXSPICLKFreq+0xf0>
  return ((READ_BIT(RCC->DIVENR, RCC_DIVENR_IC3EN) == RCC_DIVENR_IC3EN) ? 1UL : 0UL);
34186918:	4b29      	ldr	r3, [pc, #164]	@ (341869c0 <RCCEx_GetXSPICLKFreq+0x160>)
3418691a:	f8d3 0240 	ldr.w	r0, [r3, #576]	@ 0x240
3418691e:	f010 0004 	ands.w	r0, r0, #4
34186922:	d0b9      	beq.n	34186898 <RCCEx_GetXSPICLKFreq+0x38>
  return ((READ_BIT(RCC->IC3CFGR, RCC_IC3CFGR_IC3INT) >> RCC_IC3CFGR_IC3INT_Pos) + 1UL);
34186924:	f8d3 00cc 	ldr.w	r0, [r3, #204]	@ 0xcc
34186928:	f3c0 4007 	ubfx	r0, r0, #16, #8
3418692c:	1c44      	adds	r4, r0, #1
  return (uint32_t)(READ_BIT(RCC->IC3CFGR, RCC_IC3CFGR_IC3SEL));
3418692e:	f8d3 30cc 	ldr.w	r3, [r3, #204]	@ 0xcc
34186932:	f003 5340 	and.w	r3, r3, #805306368	@ 0x30000000
        switch (LL_RCC_IC3_GetSource())
34186936:	f1b3 5f00 	cmp.w	r3, #536870912	@ 0x20000000
3418693a:	d01e      	beq.n	3418697a <RCCEx_GetXSPICLKFreq+0x11a>
3418693c:	d80e      	bhi.n	3418695c <RCCEx_GetXSPICLKFreq+0xfc>
3418693e:	b1bb      	cbz	r3, 34186970 <RCCEx_GetXSPICLKFreq+0x110>
34186940:	f1b3 5f80 	cmp.w	r3, #268435456	@ 0x10000000
34186944:	d108      	bne.n	34186958 <RCCEx_GetXSPICLKFreq+0xf8>
            xspi_frequency = HAL_RCCEx_GetPLL2CLKFreq();
34186946:	f7fd fd5d 	bl	34184404 <HAL_RCCEx_GetPLL2CLKFreq>
            xspi_frequency = xspi_frequency / ic_divider;
3418694a:	fbb0 f0f4 	udiv	r0, r0, r4
            break;
3418694e:	e7a3      	b.n	34186898 <RCCEx_GetXSPICLKFreq+0x38>
  switch (LL_RCC_GetXSPIClockSource(XSPIxSource))
34186950:	2000      	movs	r0, #0
34186952:	e7a1      	b.n	34186898 <RCCEx_GetXSPICLKFreq+0x38>
34186954:	2000      	movs	r0, #0
34186956:	e79f      	b.n	34186898 <RCCEx_GetXSPICLKFreq+0x38>
        switch (LL_RCC_IC3_GetSource())
34186958:	2000      	movs	r0, #0
3418695a:	e79d      	b.n	34186898 <RCCEx_GetXSPICLKFreq+0x38>
3418695c:	f1b3 5f40 	cmp.w	r3, #805306368	@ 0x30000000
34186960:	d104      	bne.n	3418696c <RCCEx_GetXSPICLKFreq+0x10c>
            xspi_frequency = HAL_RCCEx_GetPLL4CLKFreq();
34186962:	f7fd fddf 	bl	34184524 <HAL_RCCEx_GetPLL4CLKFreq>
            xspi_frequency = xspi_frequency / ic_divider;
34186966:	fbb0 f0f4 	udiv	r0, r0, r4
            break;
3418696a:	e795      	b.n	34186898 <RCCEx_GetXSPICLKFreq+0x38>
        switch (LL_RCC_IC3_GetSource())
3418696c:	2000      	movs	r0, #0
3418696e:	e793      	b.n	34186898 <RCCEx_GetXSPICLKFreq+0x38>
            xspi_frequency = HAL_RCCEx_GetPLL1CLKFreq();
34186970:	f7fd fd00 	bl	34184374 <HAL_RCCEx_GetPLL1CLKFreq>
            xspi_frequency = xspi_frequency / ic_divider;
34186974:	fbb0 f0f4 	udiv	r0, r0, r4
            break;
34186978:	e78e      	b.n	34186898 <RCCEx_GetXSPICLKFreq+0x38>
            xspi_frequency = HAL_RCCEx_GetPLL3CLKFreq();
3418697a:	f7fd fd8b 	bl	34184494 <HAL_RCCEx_GetPLL3CLKFreq>
            xspi_frequency = xspi_frequency / ic_divider;
3418697e:	fbb0 f0f4 	udiv	r0, r0, r4
            break;
34186982:	e789      	b.n	34186898 <RCCEx_GetXSPICLKFreq+0x38>
        switch (LL_RCC_IC4_GetSource())
34186984:	2000      	movs	r0, #0
34186986:	e787      	b.n	34186898 <RCCEx_GetXSPICLKFreq+0x38>
34186988:	f1b3 5f40 	cmp.w	r3, #805306368	@ 0x30000000
3418698c:	d104      	bne.n	34186998 <RCCEx_GetXSPICLKFreq+0x138>
            xspi_frequency = HAL_RCCEx_GetPLL4CLKFreq();
3418698e:	f7fd fdc9 	bl	34184524 <HAL_RCCEx_GetPLL4CLKFreq>
            xspi_frequency = xspi_frequency / ic_divider;
34186992:	fbb0 f0f4 	udiv	r0, r0, r4
  return xspi_frequency;
34186996:	e77f      	b.n	34186898 <RCCEx_GetXSPICLKFreq+0x38>
        switch (LL_RCC_IC4_GetSource())
34186998:	2000      	movs	r0, #0
3418699a:	e77d      	b.n	34186898 <RCCEx_GetXSPICLKFreq+0x38>
            xspi_frequency = HAL_RCCEx_GetPLL1CLKFreq();
3418699c:	f7fd fcea 	bl	34184374 <HAL_RCCEx_GetPLL1CLKFreq>
            xspi_frequency = xspi_frequency / ic_divider;
341869a0:	fbb0 f0f4 	udiv	r0, r0, r4
            break;
341869a4:	e778      	b.n	34186898 <RCCEx_GetXSPICLKFreq+0x38>
            xspi_frequency = HAL_RCCEx_GetPLL3CLKFreq();
341869a6:	f7fd fd75 	bl	34184494 <HAL_RCCEx_GetPLL3CLKFreq>
            xspi_frequency = xspi_frequency / ic_divider;
341869aa:	fbb0 f0f4 	udiv	r0, r0, r4
            break;
341869ae:	e773      	b.n	34186898 <RCCEx_GetXSPICLKFreq+0x38>
341869b0:	03020014 	.word	0x03020014
341869b4:	03010414 	.word	0x03010414
341869b8:	03030014 	.word	0x03030014
341869bc:	03030414 	.word	0x03030414
341869c0:	56028000 	.word	0x56028000

341869c4 <HAL_RCCEx_GetPeriphCLKFreq>:
{
341869c4:	b508      	push	{r3, lr}
  switch (PeriphClk)
341869c6:	f100 4360 	add.w	r3, r0, #3758096384	@ 0xe0000000
341869ca:	430b      	orrs	r3, r1
341869cc:	f000 8256 	beq.w	34186e7c <HAL_RCCEx_GetPeriphCLKFreq+0x4b8>
341869d0:	4bbe      	ldr	r3, [pc, #760]	@ (34186ccc <HAL_RCCEx_GetPeriphCLKFreq+0x308>)
341869d2:	4298      	cmp	r0, r3
341869d4:	f171 0300 	sbcs.w	r3, r1, #0
341869d8:	d339      	bcc.n	34186a4e <HAL_RCCEx_GetPeriphCLKFreq+0x8a>
341869da:	f5b1 5f80 	cmp.w	r1, #4096	@ 0x1000
341869de:	bf08      	it	eq
341869e0:	2800      	cmpeq	r0, #0
341869e2:	f000 8273 	beq.w	34186ecc <HAL_RCCEx_GetPeriphCLKFreq+0x508>
341869e6:	2300      	movs	r3, #0
341869e8:	4283      	cmp	r3, r0
341869ea:	f44f 5380 	mov.w	r3, #4096	@ 0x1000
341869ee:	418b      	sbcs	r3, r1
341869f0:	f0c0 8184 	bcc.w	34186cfc <HAL_RCCEx_GetPeriphCLKFreq+0x338>
341869f4:	2910      	cmp	r1, #16
341869f6:	bf08      	it	eq
341869f8:	2800      	cmpeq	r0, #0
341869fa:	f000 8253 	beq.w	34186ea4 <HAL_RCCEx_GetPeriphCLKFreq+0x4e0>
341869fe:	2300      	movs	r3, #0
34186a00:	4283      	cmp	r3, r0
34186a02:	f04f 0310 	mov.w	r3, #16
34186a06:	418b      	sbcs	r3, r1
34186a08:	f080 811d 	bcs.w	34186c46 <HAL_RCCEx_GetPeriphCLKFreq+0x282>
34186a0c:	f5b1 7f00 	cmp.w	r1, #512	@ 0x200
34186a10:	bf08      	it	eq
34186a12:	2800      	cmpeq	r0, #0
34186a14:	f000 8252 	beq.w	34186ebc <HAL_RCCEx_GetPeriphCLKFreq+0x4f8>
34186a18:	2300      	movs	r3, #0
34186a1a:	4283      	cmp	r3, r0
34186a1c:	f44f 7300 	mov.w	r3, #512	@ 0x200
34186a20:	418b      	sbcs	r3, r1
34186a22:	f0c0 8141 	bcc.w	34186ca8 <HAL_RCCEx_GetPeriphCLKFreq+0x2e4>
34186a26:	2940      	cmp	r1, #64	@ 0x40
34186a28:	bf08      	it	eq
34186a2a:	2800      	cmpeq	r0, #0
34186a2c:	f000 823e 	beq.w	34186eac <HAL_RCCEx_GetPeriphCLKFreq+0x4e8>
34186a30:	f5b1 7f80 	cmp.w	r1, #256	@ 0x100
34186a34:	bf08      	it	eq
34186a36:	2800      	cmpeq	r0, #0
34186a38:	f000 823c 	beq.w	34186eb4 <HAL_RCCEx_GetPeriphCLKFreq+0x4f0>
34186a3c:	2920      	cmp	r1, #32
34186a3e:	bf08      	it	eq
34186a40:	2800      	cmpeq	r0, #0
34186a42:	f040 812f 	bne.w	34186ca4 <HAL_RCCEx_GetPeriphCLKFreq+0x2e0>
      frequency = RCCEx_GetSPICLKFreq(LL_RCC_SPI5_CLKSOURCE);
34186a46:	48a2      	ldr	r0, [pc, #648]	@ (34186cd0 <HAL_RCCEx_GetPeriphCLKFreq+0x30c>)
34186a48:	f7ff f99a 	bl	34185d80 <RCCEx_GetSPICLKFreq>
      break;
34186a4c:	e043      	b.n	34186ad6 <HAL_RCCEx_GetPeriphCLKFreq+0x112>
  switch (PeriphClk)
34186a4e:	f5a0 3380 	sub.w	r3, r0, #65536	@ 0x10000
34186a52:	430b      	orrs	r3, r1
34186a54:	f000 81ed 	beq.w	34186e32 <HAL_RCCEx_GetPeriphCLKFreq+0x46e>
34186a58:	f1b0 1f01 	cmp.w	r0, #65537	@ 0x10001
34186a5c:	f171 0300 	sbcs.w	r3, r1, #0
34186a60:	f080 8091 	bcs.w	34186b86 <HAL_RCCEx_GetPeriphCLKFreq+0x1c2>
34186a64:	f5a0 7300 	sub.w	r3, r0, #512	@ 0x200
34186a68:	430b      	orrs	r3, r1
34186a6a:	f000 81ce 	beq.w	34186e0a <HAL_RCCEx_GetPeriphCLKFreq+0x446>
34186a6e:	f240 2301 	movw	r3, #513	@ 0x201
34186a72:	4298      	cmp	r0, r3
34186a74:	f171 0300 	sbcs.w	r3, r1, #0
34186a78:	d31c      	bcc.n	34186ab4 <HAL_RCCEx_GetPeriphCLKFreq+0xf0>
34186a7a:	f5a0 5300 	sub.w	r3, r0, #8192	@ 0x2000
34186a7e:	430b      	orrs	r3, r1
34186a80:	f000 81cf 	beq.w	34186e22 <HAL_RCCEx_GetPeriphCLKFreq+0x45e>
34186a84:	f242 0301 	movw	r3, #8193	@ 0x2001
34186a88:	4298      	cmp	r0, r3
34186a8a:	f171 0300 	sbcs.w	r3, r1, #0
34186a8e:	d26b      	bcs.n	34186b68 <HAL_RCCEx_GetPeriphCLKFreq+0x1a4>
34186a90:	f5a0 6300 	sub.w	r3, r0, #2048	@ 0x800
34186a94:	430b      	orrs	r3, r1
34186a96:	f000 81bc 	beq.w	34186e12 <HAL_RCCEx_GetPeriphCLKFreq+0x44e>
34186a9a:	f5a0 5380 	sub.w	r3, r0, #4096	@ 0x1000
34186a9e:	430b      	orrs	r3, r1
34186aa0:	f000 81bb 	beq.w	34186e1a <HAL_RCCEx_GetPeriphCLKFreq+0x456>
34186aa4:	f5a0 6080 	sub.w	r0, r0, #1024	@ 0x400
34186aa8:	4308      	orrs	r0, r1
34186aaa:	d15b      	bne.n	34186b64 <HAL_RCCEx_GetPeriphCLKFreq+0x1a0>
      frequency = RCCEx_GetFDCANCLKFreq(LL_RCC_FDCAN_CLKSOURCE);
34186aac:	2003      	movs	r0, #3
34186aae:	f7fe f963 	bl	34184d78 <RCCEx_GetFDCANCLKFreq>
      break;
34186ab2:	e010      	b.n	34186ad6 <HAL_RCCEx_GetPeriphCLKFreq+0x112>
  switch (PeriphClk)
34186ab4:	2821      	cmp	r0, #33	@ 0x21
34186ab6:	f171 0300 	sbcs.w	r3, r1, #0
34186aba:	f080 822b 	bcs.w	34186f14 <HAL_RCCEx_GetPeriphCLKFreq+0x550>
34186abe:	ea50 0301 	orrs.w	r3, r0, r1
34186ac2:	f000 8229 	beq.w	34186f18 <HAL_RCCEx_GetPeriphCLKFreq+0x554>
34186ac6:	3801      	subs	r0, #1
34186ac8:	f141 31ff 	adc.w	r1, r1, #4294967295
34186acc:	2820      	cmp	r0, #32
34186ace:	f171 0100 	sbcs.w	r1, r1, #0
34186ad2:	d301      	bcc.n	34186ad8 <HAL_RCCEx_GetPeriphCLKFreq+0x114>
34186ad4:	2000      	movs	r0, #0
}
34186ad6:	bd08      	pop	{r3, pc}
  switch (PeriphClk)
34186ad8:	281f      	cmp	r0, #31
34186ada:	d8fb      	bhi.n	34186ad4 <HAL_RCCEx_GetPeriphCLKFreq+0x110>
34186adc:	a301      	add	r3, pc, #4	@ (adr r3, 34186ae4 <HAL_RCCEx_GetPeriphCLKFreq+0x120>)
34186ade:	f853 f020 	ldr.w	pc, [r3, r0, lsl #2]
34186ae2:	bf00      	nop
34186ae4:	34186dd9 	.word	0x34186dd9
34186ae8:	34186de1 	.word	0x34186de1
34186aec:	34186ad5 	.word	0x34186ad5
34186af0:	34186def 	.word	0x34186def
34186af4:	34186ad5 	.word	0x34186ad5
34186af8:	34186ad5 	.word	0x34186ad5
34186afc:	34186ad5 	.word	0x34186ad5
34186b00:	34186de9 	.word	0x34186de9
34186b04:	34186ad5 	.word	0x34186ad5
34186b08:	34186ad5 	.word	0x34186ad5
34186b0c:	34186ad5 	.word	0x34186ad5
34186b10:	34186ad5 	.word	0x34186ad5
34186b14:	34186ad5 	.word	0x34186ad5
34186b18:	34186ad5 	.word	0x34186ad5
34186b1c:	34186ad5 	.word	0x34186ad5
34186b20:	34186df7 	.word	0x34186df7
34186b24:	34186ad5 	.word	0x34186ad5
34186b28:	34186ad5 	.word	0x34186ad5
34186b2c:	34186ad5 	.word	0x34186ad5
34186b30:	34186ad5 	.word	0x34186ad5
34186b34:	34186ad5 	.word	0x34186ad5
34186b38:	34186ad5 	.word	0x34186ad5
34186b3c:	34186ad5 	.word	0x34186ad5
34186b40:	34186ad5 	.word	0x34186ad5
34186b44:	34186ad5 	.word	0x34186ad5
34186b48:	34186ad5 	.word	0x34186ad5
34186b4c:	34186ad5 	.word	0x34186ad5
34186b50:	34186ad5 	.word	0x34186ad5
34186b54:	34186ad5 	.word	0x34186ad5
34186b58:	34186ad5 	.word	0x34186ad5
34186b5c:	34186ad5 	.word	0x34186ad5
34186b60:	34186e01 	.word	0x34186e01
34186b64:	2000      	movs	r0, #0
34186b66:	e7b6      	b.n	34186ad6 <HAL_RCCEx_GetPeriphCLKFreq+0x112>
34186b68:	f5a0 4380 	sub.w	r3, r0, #16384	@ 0x4000
34186b6c:	430b      	orrs	r3, r1
34186b6e:	f000 815c 	beq.w	34186e2a <HAL_RCCEx_GetPeriphCLKFreq+0x466>
34186b72:	f5a0 4000 	sub.w	r0, r0, #32768	@ 0x8000
34186b76:	4308      	orrs	r0, r1
34186b78:	d103      	bne.n	34186b82 <HAL_RCCEx_GetPeriphCLKFreq+0x1be>
      frequency = RCCEx_GetI2CCLKFreq(LL_RCC_I2C4_CLKSOURCE);
34186b7a:	4856      	ldr	r0, [pc, #344]	@ (34186cd4 <HAL_RCCEx_GetPeriphCLKFreq+0x310>)
34186b7c:	f7fe f9d4 	bl	34184f28 <RCCEx_GetI2CCLKFreq>
      break;
34186b80:	e7a9      	b.n	34186ad6 <HAL_RCCEx_GetPeriphCLKFreq+0x112>
  switch (PeriphClk)
34186b82:	2000      	movs	r0, #0
34186b84:	e7a7      	b.n	34186ad6 <HAL_RCCEx_GetPeriphCLKFreq+0x112>
34186b86:	f5a0 0300 	sub.w	r3, r0, #8388608	@ 0x800000
34186b8a:	430b      	orrs	r3, r1
34186b8c:	f000 8165 	beq.w	34186e5a <HAL_RCCEx_GetPeriphCLKFreq+0x496>
34186b90:	4b51      	ldr	r3, [pc, #324]	@ (34186cd8 <HAL_RCCEx_GetPeriphCLKFreq+0x314>)
34186b92:	4298      	cmp	r0, r3
34186b94:	f171 0300 	sbcs.w	r3, r1, #0
34186b98:	d22c      	bcs.n	34186bf4 <HAL_RCCEx_GetPeriphCLKFreq+0x230>
34186b9a:	f5a0 1380 	sub.w	r3, r0, #1048576	@ 0x100000
34186b9e:	430b      	orrs	r3, r1
34186ba0:	f000 8153 	beq.w	34186e4a <HAL_RCCEx_GetPeriphCLKFreq+0x486>
34186ba4:	4b4d      	ldr	r3, [pc, #308]	@ (34186cdc <HAL_RCCEx_GetPeriphCLKFreq+0x318>)
34186ba6:	4298      	cmp	r0, r3
34186ba8:	f171 0300 	sbcs.w	r3, r1, #0
34186bac:	d213      	bcs.n	34186bd6 <HAL_RCCEx_GetPeriphCLKFreq+0x212>
34186bae:	f5a0 2380 	sub.w	r3, r0, #262144	@ 0x40000
34186bb2:	430b      	orrs	r3, r1
34186bb4:	f000 8141 	beq.w	34186e3a <HAL_RCCEx_GetPeriphCLKFreq+0x476>
34186bb8:	f5a0 2300 	sub.w	r3, r0, #524288	@ 0x80000
34186bbc:	430b      	orrs	r3, r1
34186bbe:	f000 8140 	beq.w	34186e42 <HAL_RCCEx_GetPeriphCLKFreq+0x47e>
34186bc2:	f5a0 3000 	sub.w	r0, r0, #131072	@ 0x20000
34186bc6:	4308      	orrs	r0, r1
34186bc8:	d103      	bne.n	34186bd2 <HAL_RCCEx_GetPeriphCLKFreq+0x20e>
      frequency = RCCEx_GetI3CCLKFreq(LL_RCC_I3C2_CLKSOURCE);
34186bca:	4845      	ldr	r0, [pc, #276]	@ (34186ce0 <HAL_RCCEx_GetPeriphCLKFreq+0x31c>)
34186bcc:	f7fe faba 	bl	34185144 <RCCEx_GetI3CCLKFreq>
      break;
34186bd0:	e781      	b.n	34186ad6 <HAL_RCCEx_GetPeriphCLKFreq+0x112>
  switch (PeriphClk)
34186bd2:	2000      	movs	r0, #0
34186bd4:	e77f      	b.n	34186ad6 <HAL_RCCEx_GetPeriphCLKFreq+0x112>
34186bd6:	f5a0 1300 	sub.w	r3, r0, #2097152	@ 0x200000
34186bda:	430b      	orrs	r3, r1
34186bdc:	f000 8139 	beq.w	34186e52 <HAL_RCCEx_GetPeriphCLKFreq+0x48e>
34186be0:	f5a0 0080 	sub.w	r0, r0, #4194304	@ 0x400000
34186be4:	4308      	orrs	r0, r1
34186be6:	d103      	bne.n	34186bf0 <HAL_RCCEx_GetPeriphCLKFreq+0x22c>
      frequency = RCCEx_GetLPTIMCLKFreq(LL_RCC_LPTIM5_CLKSOURCE);
34186be8:	483e      	ldr	r0, [pc, #248]	@ (34186ce4 <HAL_RCCEx_GetPeriphCLKFreq+0x320>)
34186bea:	f7fe fb77 	bl	341852dc <RCCEx_GetLPTIMCLKFreq>
      break;
34186bee:	e772      	b.n	34186ad6 <HAL_RCCEx_GetPeriphCLKFreq+0x112>
  switch (PeriphClk)
34186bf0:	2000      	movs	r0, #0
34186bf2:	e770      	b.n	34186ad6 <HAL_RCCEx_GetPeriphCLKFreq+0x112>
34186bf4:	f100 437c 	add.w	r3, r0, #4227858432	@ 0xfc000000
34186bf8:	430b      	orrs	r3, r1
34186bfa:	f000 8138 	beq.w	34186e6e <HAL_RCCEx_GetPeriphCLKFreq+0x4aa>
34186bfe:	4b3a      	ldr	r3, [pc, #232]	@ (34186ce8 <HAL_RCCEx_GetPeriphCLKFreq+0x324>)
34186c00:	4298      	cmp	r0, r3
34186c02:	f171 0300 	sbcs.w	r3, r1, #0
34186c06:	d20f      	bcs.n	34186c28 <HAL_RCCEx_GetPeriphCLKFreq+0x264>
34186c08:	f100 437f 	add.w	r3, r0, #4278190080	@ 0xff000000
34186c0c:	430b      	orrs	r3, r1
34186c0e:	f000 8129 	beq.w	34186e64 <HAL_RCCEx_GetPeriphCLKFreq+0x4a0>
34186c12:	f100 407e 	add.w	r0, r0, #4261412864	@ 0xfe000000
34186c16:	4308      	orrs	r0, r1
34186c18:	d104      	bne.n	34186c24 <HAL_RCCEx_GetPeriphCLKFreq+0x260>
      frequency = RCCEx_GetMDFCLKFreq(LL_RCC_MDF1_CLKSOURCE);
34186c1a:	f44f 20e0 	mov.w	r0, #458752	@ 0x70000
34186c1e:	f7fe fd75 	bl	3418570c <RCCEx_GetMDFCLKFreq>
      break;
34186c22:	e758      	b.n	34186ad6 <HAL_RCCEx_GetPeriphCLKFreq+0x112>
  switch (PeriphClk)
34186c24:	2000      	movs	r0, #0
34186c26:	e756      	b.n	34186ad6 <HAL_RCCEx_GetPeriphCLKFreq+0x112>
34186c28:	f100 4378 	add.w	r3, r0, #4160749568	@ 0xf8000000
34186c2c:	430b      	orrs	r3, r1
34186c2e:	f000 8122 	beq.w	34186e76 <HAL_RCCEx_GetPeriphCLKFreq+0x4b2>
34186c32:	f100 4070 	add.w	r0, r0, #4026531840	@ 0xf0000000
34186c36:	4308      	orrs	r0, r1
34186c38:	d103      	bne.n	34186c42 <HAL_RCCEx_GetPeriphCLKFreq+0x27e>
      frequency = RCCEx_GetSAICLKFreq(LL_RCC_SAI1_CLKSOURCE);
34186c3a:	482c      	ldr	r0, [pc, #176]	@ (34186cec <HAL_RCCEx_GetPeriphCLKFreq+0x328>)
34186c3c:	f7fe ffb6 	bl	34185bac <RCCEx_GetSAICLKFreq>
      break;
34186c40:	e749      	b.n	34186ad6 <HAL_RCCEx_GetPeriphCLKFreq+0x112>
  switch (PeriphClk)
34186c42:	2000      	movs	r0, #0
34186c44:	e747      	b.n	34186ad6 <HAL_RCCEx_GetPeriphCLKFreq+0x112>
34186c46:	2902      	cmp	r1, #2
34186c48:	bf08      	it	eq
34186c4a:	2800      	cmpeq	r0, #0
34186c4c:	f000 8122 	beq.w	34186e94 <HAL_RCCEx_GetPeriphCLKFreq+0x4d0>
34186c50:	2300      	movs	r3, #0
34186c52:	4283      	cmp	r3, r0
34186c54:	f04f 0302 	mov.w	r3, #2
34186c58:	418b      	sbcs	r3, r1
34186c5a:	d314      	bcc.n	34186c86 <HAL_RCCEx_GetPeriphCLKFreq+0x2c2>
34186c5c:	2900      	cmp	r1, #0
34186c5e:	bf08      	it	eq
34186c60:	f1b0 4f00 	cmpeq.w	r0, #2147483648	@ 0x80000000
34186c64:	f000 810e 	beq.w	34186e84 <HAL_RCCEx_GetPeriphCLKFreq+0x4c0>
34186c68:	2901      	cmp	r1, #1
34186c6a:	bf08      	it	eq
34186c6c:	2800      	cmpeq	r0, #0
34186c6e:	f000 810d 	beq.w	34186e8c <HAL_RCCEx_GetPeriphCLKFreq+0x4c8>
34186c72:	f100 4040 	add.w	r0, r0, #3221225472	@ 0xc0000000
34186c76:	4308      	orrs	r0, r1
34186c78:	d103      	bne.n	34186c82 <HAL_RCCEx_GetPeriphCLKFreq+0x2be>
      frequency = RCCEx_GetSDMMCCLKFreq(LL_RCC_SDMMC1_CLKSOURCE);
34186c7a:	481d      	ldr	r0, [pc, #116]	@ (34186cf0 <HAL_RCCEx_GetPeriphCLKFreq+0x32c>)
34186c7c:	f7fe fe5c 	bl	34185938 <RCCEx_GetSDMMCCLKFreq>
      break;
34186c80:	e729      	b.n	34186ad6 <HAL_RCCEx_GetPeriphCLKFreq+0x112>
  switch (PeriphClk)
34186c82:	2000      	movs	r0, #0
34186c84:	e727      	b.n	34186ad6 <HAL_RCCEx_GetPeriphCLKFreq+0x112>
34186c86:	2904      	cmp	r1, #4
34186c88:	bf08      	it	eq
34186c8a:	2800      	cmpeq	r0, #0
34186c8c:	f000 8106 	beq.w	34186e9c <HAL_RCCEx_GetPeriphCLKFreq+0x4d8>
34186c90:	2908      	cmp	r1, #8
34186c92:	bf08      	it	eq
34186c94:	2800      	cmpeq	r0, #0
34186c96:	d103      	bne.n	34186ca0 <HAL_RCCEx_GetPeriphCLKFreq+0x2dc>
      frequency = RCCEx_GetSPICLKFreq(LL_RCC_SPI3_CLKSOURCE);
34186c98:	4816      	ldr	r0, [pc, #88]	@ (34186cf4 <HAL_RCCEx_GetPeriphCLKFreq+0x330>)
34186c9a:	f7ff f871 	bl	34185d80 <RCCEx_GetSPICLKFreq>
      break;
34186c9e:	e71a      	b.n	34186ad6 <HAL_RCCEx_GetPeriphCLKFreq+0x112>
  switch (PeriphClk)
34186ca0:	2000      	movs	r0, #0
34186ca2:	e718      	b.n	34186ad6 <HAL_RCCEx_GetPeriphCLKFreq+0x112>
34186ca4:	2000      	movs	r0, #0
34186ca6:	e716      	b.n	34186ad6 <HAL_RCCEx_GetPeriphCLKFreq+0x112>
34186ca8:	f5b1 6f80 	cmp.w	r1, #1024	@ 0x400
34186cac:	bf08      	it	eq
34186cae:	2800      	cmpeq	r0, #0
34186cb0:	f000 8108 	beq.w	34186ec4 <HAL_RCCEx_GetPeriphCLKFreq+0x500>
34186cb4:	f5b1 6f00 	cmp.w	r1, #2048	@ 0x800
34186cb8:	bf08      	it	eq
34186cba:	2800      	cmpeq	r0, #0
34186cbc:	d103      	bne.n	34186cc6 <HAL_RCCEx_GetPeriphCLKFreq+0x302>
      frequency = RCCEx_GetUARTCLKFreq(LL_RCC_UART4_CLKSOURCE);
34186cbe:	480e      	ldr	r0, [pc, #56]	@ (34186cf8 <HAL_RCCEx_GetPeriphCLKFreq+0x334>)
34186cc0:	f7ff fa34 	bl	3418612c <RCCEx_GetUARTCLKFreq>
      break;
34186cc4:	e707      	b.n	34186ad6 <HAL_RCCEx_GetPeriphCLKFreq+0x112>
  switch (PeriphClk)
34186cc6:	2000      	movs	r0, #0
34186cc8:	e705      	b.n	34186ad6 <HAL_RCCEx_GetPeriphCLKFreq+0x112>
34186cca:	bf00      	nop
34186ccc:	20000001 	.word	0x20000001
34186cd0:	07001420 	.word	0x07001420
34186cd4:	07000c0c 	.word	0x07000c0c
34186cd8:	00800001 	.word	0x00800001
34186cdc:	00100001 	.word	0x00100001
34186ce0:	0700140c 	.word	0x0700140c
34186ce4:	0700182c 	.word	0x0700182c
34186ce8:	04000001 	.word	0x04000001
34186cec:	07001418 	.word	0x07001418
34186cf0:	0300001c 	.word	0x0300001c
34186cf4:	07000c20 	.word	0x07000c20
34186cf8:	07000c30 	.word	0x07000c30
34186cfc:	f5b1 2f00 	cmp.w	r1, #524288	@ 0x80000
34186d00:	bf08      	it	eq
34186d02:	2800      	cmpeq	r0, #0
34186d04:	f000 80f6 	beq.w	34186ef4 <HAL_RCCEx_GetPeriphCLKFreq+0x530>
34186d08:	2300      	movs	r3, #0
34186d0a:	4283      	cmp	r3, r0
34186d0c:	f44f 2300 	mov.w	r3, #524288	@ 0x80000
34186d10:	418b      	sbcs	r3, r1
34186d12:	d333      	bcc.n	34186d7c <HAL_RCCEx_GetPeriphCLKFreq+0x3b8>
34186d14:	f5b1 3f80 	cmp.w	r1, #65536	@ 0x10000
34186d18:	bf08      	it	eq
34186d1a:	2800      	cmpeq	r0, #0
34186d1c:	f000 80e2 	beq.w	34186ee4 <HAL_RCCEx_GetPeriphCLKFreq+0x520>
34186d20:	2300      	movs	r3, #0
34186d22:	4283      	cmp	r3, r0
34186d24:	f44f 3380 	mov.w	r3, #65536	@ 0x10000
34186d28:	418b      	sbcs	r3, r1
34186d2a:	d316      	bcc.n	34186d5a <HAL_RCCEx_GetPeriphCLKFreq+0x396>
34186d2c:	f5b1 4f80 	cmp.w	r1, #16384	@ 0x4000
34186d30:	bf08      	it	eq
34186d32:	2800      	cmpeq	r0, #0
34186d34:	f000 80ce 	beq.w	34186ed4 <HAL_RCCEx_GetPeriphCLKFreq+0x510>
34186d38:	f5b1 4f00 	cmp.w	r1, #32768	@ 0x8000
34186d3c:	bf08      	it	eq
34186d3e:	2800      	cmpeq	r0, #0
34186d40:	f000 80cc 	beq.w	34186edc <HAL_RCCEx_GetPeriphCLKFreq+0x518>
34186d44:	f5b1 5f00 	cmp.w	r1, #8192	@ 0x2000
34186d48:	bf08      	it	eq
34186d4a:	2800      	cmpeq	r0, #0
34186d4c:	d103      	bne.n	34186d56 <HAL_RCCEx_GetPeriphCLKFreq+0x392>
      frequency = RCCEx_GetUSARTCLKFreq(LL_RCC_USART6_CLKSOURCE);
34186d4e:	4873      	ldr	r0, [pc, #460]	@ (34186f1c <HAL_RCCEx_GetPeriphCLKFreq+0x558>)
34186d50:	f7ff fb5e 	bl	34186410 <RCCEx_GetUSARTCLKFreq>
      break;
34186d54:	e6bf      	b.n	34186ad6 <HAL_RCCEx_GetPeriphCLKFreq+0x112>
  switch (PeriphClk)
34186d56:	2000      	movs	r0, #0
34186d58:	e6bd      	b.n	34186ad6 <HAL_RCCEx_GetPeriphCLKFreq+0x112>
34186d5a:	f5b1 3f00 	cmp.w	r1, #131072	@ 0x20000
34186d5e:	bf08      	it	eq
34186d60:	2800      	cmpeq	r0, #0
34186d62:	f000 80c3 	beq.w	34186eec <HAL_RCCEx_GetPeriphCLKFreq+0x528>
34186d66:	f5b1 2f80 	cmp.w	r1, #262144	@ 0x40000
34186d6a:	bf08      	it	eq
34186d6c:	2800      	cmpeq	r0, #0
34186d6e:	d103      	bne.n	34186d78 <HAL_RCCEx_GetPeriphCLKFreq+0x3b4>
      frequency = RCCEx_GetOTGPHYCLKFreq(LL_RCC_OTGPHY1_CLKSOURCE);
34186d70:	486b      	ldr	r0, [pc, #428]	@ (34186f20 <HAL_RCCEx_GetPeriphCLKFreq+0x55c>)
34186d72:	f7ff fcbd 	bl	341866f0 <RCCEx_GetOTGPHYCLKFreq>
      break;
34186d76:	e6ae      	b.n	34186ad6 <HAL_RCCEx_GetPeriphCLKFreq+0x112>
  switch (PeriphClk)
34186d78:	2000      	movs	r0, #0
34186d7a:	e6ac      	b.n	34186ad6 <HAL_RCCEx_GetPeriphCLKFreq+0x112>
34186d7c:	f5b1 0f80 	cmp.w	r1, #4194304	@ 0x400000
34186d80:	bf08      	it	eq
34186d82:	2800      	cmpeq	r0, #0
34186d84:	f000 80be 	beq.w	34186f04 <HAL_RCCEx_GetPeriphCLKFreq+0x540>
34186d88:	2300      	movs	r3, #0
34186d8a:	4283      	cmp	r3, r0
34186d8c:	f44f 0380 	mov.w	r3, #4194304	@ 0x400000
34186d90:	418b      	sbcs	r3, r1
34186d92:	d310      	bcc.n	34186db6 <HAL_RCCEx_GetPeriphCLKFreq+0x3f2>
34186d94:	f5b1 1f80 	cmp.w	r1, #1048576	@ 0x100000
34186d98:	bf08      	it	eq
34186d9a:	2800      	cmpeq	r0, #0
34186d9c:	f000 80ae 	beq.w	34186efc <HAL_RCCEx_GetPeriphCLKFreq+0x538>
34186da0:	f5b1 1f00 	cmp.w	r1, #2097152	@ 0x200000
34186da4:	bf08      	it	eq
34186da6:	2800      	cmpeq	r0, #0
34186da8:	d103      	bne.n	34186db2 <HAL_RCCEx_GetPeriphCLKFreq+0x3ee>
      frequency = RCCEx_GetOTGPHYCKREFCLKFreq(LL_RCC_OTGPHY2CKREF_CLKSOURCE);
34186daa:	485e      	ldr	r0, [pc, #376]	@ (34186f24 <HAL_RCCEx_GetPeriphCLKFreq+0x560>)
34186dac:	f7ff fd1e 	bl	341867ec <RCCEx_GetOTGPHYCKREFCLKFreq>
      break;
34186db0:	e691      	b.n	34186ad6 <HAL_RCCEx_GetPeriphCLKFreq+0x112>
  switch (PeriphClk)
34186db2:	2000      	movs	r0, #0
34186db4:	e68f      	b.n	34186ad6 <HAL_RCCEx_GetPeriphCLKFreq+0x112>
34186db6:	f5b1 0f00 	cmp.w	r1, #8388608	@ 0x800000
34186dba:	bf08      	it	eq
34186dbc:	2800      	cmpeq	r0, #0
34186dbe:	f000 80a5 	beq.w	34186f0c <HAL_RCCEx_GetPeriphCLKFreq+0x548>
34186dc2:	f1b1 7f80 	cmp.w	r1, #16777216	@ 0x1000000
34186dc6:	bf08      	it	eq
34186dc8:	2800      	cmpeq	r0, #0
34186dca:	d103      	bne.n	34186dd4 <HAL_RCCEx_GetPeriphCLKFreq+0x410>
      frequency = RCCEx_GetXSPICLKFreq(LL_RCC_XSPI3_CLKSOURCE);
34186dcc:	4856      	ldr	r0, [pc, #344]	@ (34186f28 <HAL_RCCEx_GetPeriphCLKFreq+0x564>)
34186dce:	f7ff fd47 	bl	34186860 <RCCEx_GetXSPICLKFreq>
      break;
34186dd2:	e680      	b.n	34186ad6 <HAL_RCCEx_GetPeriphCLKFreq+0x112>
  switch (PeriphClk)
34186dd4:	2000      	movs	r0, #0
34186dd6:	e67e      	b.n	34186ad6 <HAL_RCCEx_GetPeriphCLKFreq+0x112>
      frequency = RCCEx_GetADCCLKFreq(LL_RCC_ADC_CLKSOURCE);
34186dd8:	2070      	movs	r0, #112	@ 0x70
34186dda:	f7fd fd57 	bl	3418488c <RCCEx_GetADCCLKFreq>
      break;
34186dde:	e67a      	b.n	34186ad6 <HAL_RCCEx_GetPeriphCLKFreq+0x112>
      frequency = RCCEx_GetADFCLKFreq(LL_RCC_ADF1_CLKSOURCE);
34186de0:	2007      	movs	r0, #7
34186de2:	f7fd fe0d 	bl	34184a00 <RCCEx_GetADFCLKFreq>
      break;
34186de6:	e676      	b.n	34186ad6 <HAL_RCCEx_GetPeriphCLKFreq+0x112>
      frequency = RCCEx_GetCSICLKFreq();
34186de8:	f7fd fbe4 	bl	341845b4 <RCCEx_GetCSICLKFreq>
      break;
34186dec:	e673      	b.n	34186ad6 <HAL_RCCEx_GetPeriphCLKFreq+0x112>
      frequency = RCCEx_GetCLKPCLKFreq(LL_RCC_CLKP_CLKSOURCE);
34186dee:	2007      	movs	r0, #7
34186df0:	f7fd fc16 	bl	34184620 <RCCEx_GetCLKPCLKFreq>
      break;
34186df4:	e66f      	b.n	34186ad6 <HAL_RCCEx_GetPeriphCLKFreq+0x112>
      frequency = RCCEx_GetDCMIPPCLKFreq(LL_RCC_DCMIPP_CLKSOURCE);
34186df6:	f44f 1040 	mov.w	r0, #3145728	@ 0x300000
34186dfa:	f7fd fea3 	bl	34184b44 <RCCEx_GetDCMIPPCLKFreq>
      break;
34186dfe:	e66a      	b.n	34186ad6 <HAL_RCCEx_GetPeriphCLKFreq+0x112>
      frequency = RCCEx_GetETH1CLKFreq(LL_RCC_ETH1_CLKSOURCE);
34186e00:	f44f 5040 	mov.w	r0, #12288	@ 0x3000
34186e04:	f7fd ff00 	bl	34184c08 <RCCEx_GetETH1CLKFreq>
      break;
34186e08:	e665      	b.n	34186ad6 <HAL_RCCEx_GetPeriphCLKFreq+0x112>
      frequency = RCCEx_GetETH1PTPCLKFreq(LL_RCC_ETH1PTP_CLKSOURCE);
34186e0a:	2003      	movs	r0, #3
34186e0c:	f7fd ff58 	bl	34184cc0 <RCCEx_GetETH1PTPCLKFreq>
      break;
34186e10:	e661      	b.n	34186ad6 <HAL_RCCEx_GetPeriphCLKFreq+0x112>
      frequency = RCCEx_GetFMCCLKFreq(LL_RCC_FMC_CLKSOURCE);
34186e12:	2030      	movs	r0, #48	@ 0x30
34186e14:	f7fe f806 	bl	34184e24 <RCCEx_GetFMCCLKFreq>
      break;
34186e18:	e65d      	b.n	34186ad6 <HAL_RCCEx_GetPeriphCLKFreq+0x112>
      frequency = RCCEx_GetI2CCLKFreq(LL_RCC_I2C1_CLKSOURCE);
34186e1a:	4844      	ldr	r0, [pc, #272]	@ (34186f2c <HAL_RCCEx_GetPeriphCLKFreq+0x568>)
34186e1c:	f7fe f884 	bl	34184f28 <RCCEx_GetI2CCLKFreq>
      break;
34186e20:	e659      	b.n	34186ad6 <HAL_RCCEx_GetPeriphCLKFreq+0x112>
      frequency = RCCEx_GetI2CCLKFreq(LL_RCC_I2C2_CLKSOURCE);
34186e22:	4843      	ldr	r0, [pc, #268]	@ (34186f30 <HAL_RCCEx_GetPeriphCLKFreq+0x56c>)
34186e24:	f7fe f880 	bl	34184f28 <RCCEx_GetI2CCLKFreq>
      break;
34186e28:	e655      	b.n	34186ad6 <HAL_RCCEx_GetPeriphCLKFreq+0x112>
      frequency = RCCEx_GetI2CCLKFreq(LL_RCC_I2C3_CLKSOURCE);
34186e2a:	4842      	ldr	r0, [pc, #264]	@ (34186f34 <HAL_RCCEx_GetPeriphCLKFreq+0x570>)
34186e2c:	f7fe f87c 	bl	34184f28 <RCCEx_GetI2CCLKFreq>
      break;
34186e30:	e651      	b.n	34186ad6 <HAL_RCCEx_GetPeriphCLKFreq+0x112>
      frequency = RCCEx_GetI3CCLKFreq(LL_RCC_I3C1_CLKSOURCE);
34186e32:	4841      	ldr	r0, [pc, #260]	@ (34186f38 <HAL_RCCEx_GetPeriphCLKFreq+0x574>)
34186e34:	f7fe f986 	bl	34185144 <RCCEx_GetI3CCLKFreq>
      break;
34186e38:	e64d      	b.n	34186ad6 <HAL_RCCEx_GetPeriphCLKFreq+0x112>
      frequency = RCCEx_GetLPTIMCLKFreq(LL_RCC_LPTIM1_CLKSOURCE);
34186e3a:	4840      	ldr	r0, [pc, #256]	@ (34186f3c <HAL_RCCEx_GetPeriphCLKFreq+0x578>)
34186e3c:	f7fe fa4e 	bl	341852dc <RCCEx_GetLPTIMCLKFreq>
      break;
34186e40:	e649      	b.n	34186ad6 <HAL_RCCEx_GetPeriphCLKFreq+0x112>
      frequency = RCCEx_GetLPTIMCLKFreq(LL_RCC_LPTIM2_CLKSOURCE);
34186e42:	483f      	ldr	r0, [pc, #252]	@ (34186f40 <HAL_RCCEx_GetPeriphCLKFreq+0x57c>)
34186e44:	f7fe fa4a 	bl	341852dc <RCCEx_GetLPTIMCLKFreq>
      break;
34186e48:	e645      	b.n	34186ad6 <HAL_RCCEx_GetPeriphCLKFreq+0x112>
      frequency = RCCEx_GetLPTIMCLKFreq(LL_RCC_LPTIM3_CLKSOURCE);
34186e4a:	483e      	ldr	r0, [pc, #248]	@ (34186f44 <HAL_RCCEx_GetPeriphCLKFreq+0x580>)
34186e4c:	f7fe fa46 	bl	341852dc <RCCEx_GetLPTIMCLKFreq>
      break;
34186e50:	e641      	b.n	34186ad6 <HAL_RCCEx_GetPeriphCLKFreq+0x112>
      frequency = RCCEx_GetLPTIMCLKFreq(LL_RCC_LPTIM4_CLKSOURCE);
34186e52:	483d      	ldr	r0, [pc, #244]	@ (34186f48 <HAL_RCCEx_GetPeriphCLKFreq+0x584>)
34186e54:	f7fe fa42 	bl	341852dc <RCCEx_GetLPTIMCLKFreq>
      break;
34186e58:	e63d      	b.n	34186ad6 <HAL_RCCEx_GetPeriphCLKFreq+0x112>
      frequency = RCCEx_GetLPUARTCLKFreq(LL_RCC_LPUART1_CLKSOURCE);
34186e5a:	f44f 60e0 	mov.w	r0, #1792	@ 0x700
34186e5e:	f7fe fb43 	bl	341854e8 <RCCEx_GetLPUARTCLKFreq>
      break;
34186e62:	e638      	b.n	34186ad6 <HAL_RCCEx_GetPeriphCLKFreq+0x112>
      frequency = RCCEx_GetLTDCCLKFreq(LL_RCC_LTDC_CLKSOURCE);
34186e64:	f04f 7040 	mov.w	r0, #50331648	@ 0x3000000
34186e68:	f7fe fbee 	bl	34185648 <RCCEx_GetLTDCCLKFreq>
      break;
34186e6c:	e633      	b.n	34186ad6 <HAL_RCCEx_GetPeriphCLKFreq+0x112>
      frequency = RCCEx_GetPSSICLKFreq(LL_RCC_PSSI_CLKSOURCE);
34186e6e:	2030      	movs	r0, #48	@ 0x30
34186e70:	f7fe fd06 	bl	34185880 <RCCEx_GetPSSICLKFreq>
      break;
34186e74:	e62f      	b.n	34186ad6 <HAL_RCCEx_GetPeriphCLKFreq+0x112>
      frequency = RCCEx_GetRTCCLKFreq();
34186e76:	f7fb fce9 	bl	3418284c <RCCEx_GetRTCCLKFreq>
      break;
34186e7a:	e62c      	b.n	34186ad6 <HAL_RCCEx_GetPeriphCLKFreq+0x112>
      frequency = RCCEx_GetSAICLKFreq(LL_RCC_SAI2_CLKSOURCE);
34186e7c:	4833      	ldr	r0, [pc, #204]	@ (34186f4c <HAL_RCCEx_GetPeriphCLKFreq+0x588>)
34186e7e:	f7fe fe95 	bl	34185bac <RCCEx_GetSAICLKFreq>
      break;
34186e82:	e628      	b.n	34186ad6 <HAL_RCCEx_GetPeriphCLKFreq+0x112>
      frequency = RCCEx_GetSDMMCCLKFreq(LL_RCC_SDMMC2_CLKSOURCE);
34186e84:	4832      	ldr	r0, [pc, #200]	@ (34186f50 <HAL_RCCEx_GetPeriphCLKFreq+0x58c>)
34186e86:	f7fe fd57 	bl	34185938 <RCCEx_GetSDMMCCLKFreq>
      break;
34186e8a:	e624      	b.n	34186ad6 <HAL_RCCEx_GetPeriphCLKFreq+0x112>
      frequency = RCCEx_GetSPDIFRXCLKFreq(LL_RCC_SPDIFRX1_CLKSOURCE);
34186e8c:	2007      	movs	r0, #7
34186e8e:	f7fe fdf1 	bl	34185a74 <RCCEx_GetSPDIFRXCLKFreq>
      break;
34186e92:	e620      	b.n	34186ad6 <HAL_RCCEx_GetPeriphCLKFreq+0x112>
      frequency = RCCEx_GetSPICLKFreq(LL_RCC_SPI1_CLKSOURCE);
34186e94:	482f      	ldr	r0, [pc, #188]	@ (34186f54 <HAL_RCCEx_GetPeriphCLKFreq+0x590>)
34186e96:	f7fe ff73 	bl	34185d80 <RCCEx_GetSPICLKFreq>
      break;
34186e9a:	e61c      	b.n	34186ad6 <HAL_RCCEx_GetPeriphCLKFreq+0x112>
      frequency = RCCEx_GetSPICLKFreq(LL_RCC_SPI2_CLKSOURCE);
34186e9c:	482e      	ldr	r0, [pc, #184]	@ (34186f58 <HAL_RCCEx_GetPeriphCLKFreq+0x594>)
34186e9e:	f7fe ff6f 	bl	34185d80 <RCCEx_GetSPICLKFreq>
      break;
34186ea2:	e618      	b.n	34186ad6 <HAL_RCCEx_GetPeriphCLKFreq+0x112>
      frequency = RCCEx_GetSPICLKFreq(LL_RCC_SPI4_CLKSOURCE);
34186ea4:	482d      	ldr	r0, [pc, #180]	@ (34186f5c <HAL_RCCEx_GetPeriphCLKFreq+0x598>)
34186ea6:	f7fe ff6b 	bl	34185d80 <RCCEx_GetSPICLKFreq>
      break;
34186eaa:	e614      	b.n	34186ad6 <HAL_RCCEx_GetPeriphCLKFreq+0x112>
      frequency = RCCEx_GetSPICLKFreq(LL_RCC_SPI6_CLKSOURCE);
34186eac:	482c      	ldr	r0, [pc, #176]	@ (34186f60 <HAL_RCCEx_GetPeriphCLKFreq+0x59c>)
34186eae:	f7fe ff67 	bl	34185d80 <RCCEx_GetSPICLKFreq>
      break;
34186eb2:	e610      	b.n	34186ad6 <HAL_RCCEx_GetPeriphCLKFreq+0x112>
      frequency = RCCEx_GetUSARTCLKFreq(LL_RCC_USART1_CLKSOURCE);
34186eb4:	482b      	ldr	r0, [pc, #172]	@ (34186f64 <HAL_RCCEx_GetPeriphCLKFreq+0x5a0>)
34186eb6:	f7ff faab 	bl	34186410 <RCCEx_GetUSARTCLKFreq>
      break;
34186eba:	e60c      	b.n	34186ad6 <HAL_RCCEx_GetPeriphCLKFreq+0x112>
      frequency = RCCEx_GetUSARTCLKFreq(LL_RCC_USART2_CLKSOURCE);
34186ebc:	482a      	ldr	r0, [pc, #168]	@ (34186f68 <HAL_RCCEx_GetPeriphCLKFreq+0x5a4>)
34186ebe:	f7ff faa7 	bl	34186410 <RCCEx_GetUSARTCLKFreq>
      break;
34186ec2:	e608      	b.n	34186ad6 <HAL_RCCEx_GetPeriphCLKFreq+0x112>
      frequency = RCCEx_GetUSARTCLKFreq(LL_RCC_USART3_CLKSOURCE);
34186ec4:	4829      	ldr	r0, [pc, #164]	@ (34186f6c <HAL_RCCEx_GetPeriphCLKFreq+0x5a8>)
34186ec6:	f7ff faa3 	bl	34186410 <RCCEx_GetUSARTCLKFreq>
      break;
34186eca:	e604      	b.n	34186ad6 <HAL_RCCEx_GetPeriphCLKFreq+0x112>
      frequency = RCCEx_GetUARTCLKFreq(LL_RCC_UART5_CLKSOURCE);
34186ecc:	4828      	ldr	r0, [pc, #160]	@ (34186f70 <HAL_RCCEx_GetPeriphCLKFreq+0x5ac>)
34186ece:	f7ff f92d 	bl	3418612c <RCCEx_GetUARTCLKFreq>
      break;
34186ed2:	e600      	b.n	34186ad6 <HAL_RCCEx_GetPeriphCLKFreq+0x112>
      frequency = RCCEx_GetUARTCLKFreq(LL_RCC_UART7_CLKSOURCE);
34186ed4:	4827      	ldr	r0, [pc, #156]	@ (34186f74 <HAL_RCCEx_GetPeriphCLKFreq+0x5b0>)
34186ed6:	f7ff f929 	bl	3418612c <RCCEx_GetUARTCLKFreq>
      break;
34186eda:	e5fc      	b.n	34186ad6 <HAL_RCCEx_GetPeriphCLKFreq+0x112>
      frequency = RCCEx_GetUARTCLKFreq(LL_RCC_UART8_CLKSOURCE);
34186edc:	4826      	ldr	r0, [pc, #152]	@ (34186f78 <HAL_RCCEx_GetPeriphCLKFreq+0x5b4>)
34186ede:	f7ff f925 	bl	3418612c <RCCEx_GetUARTCLKFreq>
      break;
34186ee2:	e5f8      	b.n	34186ad6 <HAL_RCCEx_GetPeriphCLKFreq+0x112>
      frequency = RCCEx_GetUARTCLKFreq(LL_RCC_UART9_CLKSOURCE);
34186ee4:	4825      	ldr	r0, [pc, #148]	@ (34186f7c <HAL_RCCEx_GetPeriphCLKFreq+0x5b8>)
34186ee6:	f7ff f921 	bl	3418612c <RCCEx_GetUARTCLKFreq>
      break;
34186eea:	e5f4      	b.n	34186ad6 <HAL_RCCEx_GetPeriphCLKFreq+0x112>
      frequency = RCCEx_GetUSARTCLKFreq(LL_RCC_USART10_CLKSOURCE);
34186eec:	4824      	ldr	r0, [pc, #144]	@ (34186f80 <HAL_RCCEx_GetPeriphCLKFreq+0x5bc>)
34186eee:	f7ff fa8f 	bl	34186410 <RCCEx_GetUSARTCLKFreq>
      break;
34186ef2:	e5f0      	b.n	34186ad6 <HAL_RCCEx_GetPeriphCLKFreq+0x112>
      frequency = RCCEx_GetOTGPHYCKREFCLKFreq(LL_RCC_OTGPHY1CKREF_CLKSOURCE);
34186ef4:	4823      	ldr	r0, [pc, #140]	@ (34186f84 <HAL_RCCEx_GetPeriphCLKFreq+0x5c0>)
34186ef6:	f7ff fc79 	bl	341867ec <RCCEx_GetOTGPHYCKREFCLKFreq>
      break;
34186efa:	e5ec      	b.n	34186ad6 <HAL_RCCEx_GetPeriphCLKFreq+0x112>
      frequency = RCCEx_GetOTGPHYCLKFreq(LL_RCC_OTGPHY2_CLKSOURCE);
34186efc:	4822      	ldr	r0, [pc, #136]	@ (34186f88 <HAL_RCCEx_GetPeriphCLKFreq+0x5c4>)
34186efe:	f7ff fbf7 	bl	341866f0 <RCCEx_GetOTGPHYCLKFreq>
      break;
34186f02:	e5e8      	b.n	34186ad6 <HAL_RCCEx_GetPeriphCLKFreq+0x112>
      frequency = RCCEx_GetXSPICLKFreq(LL_RCC_XSPI1_CLKSOURCE);
34186f04:	4821      	ldr	r0, [pc, #132]	@ (34186f8c <HAL_RCCEx_GetPeriphCLKFreq+0x5c8>)
34186f06:	f7ff fcab 	bl	34186860 <RCCEx_GetXSPICLKFreq>
      break;
34186f0a:	e5e4      	b.n	34186ad6 <HAL_RCCEx_GetPeriphCLKFreq+0x112>
      frequency = RCCEx_GetXSPICLKFreq(LL_RCC_XSPI2_CLKSOURCE);
34186f0c:	4820      	ldr	r0, [pc, #128]	@ (34186f90 <HAL_RCCEx_GetPeriphCLKFreq+0x5cc>)
34186f0e:	f7ff fca7 	bl	34186860 <RCCEx_GetXSPICLKFreq>
      break;
34186f12:	e5e0      	b.n	34186ad6 <HAL_RCCEx_GetPeriphCLKFreq+0x112>
  switch (PeriphClk)
34186f14:	2000      	movs	r0, #0
34186f16:	e5de      	b.n	34186ad6 <HAL_RCCEx_GetPeriphCLKFreq+0x112>
34186f18:	2000      	movs	r0, #0
34186f1a:	e5dc      	b.n	34186ad6 <HAL_RCCEx_GetPeriphCLKFreq+0x112>
34186f1c:	07001430 	.word	0x07001430
34186f20:	03000c14 	.word	0x03000c14
34186f24:	01001814 	.word	0x01001814
34186f28:	03000814 	.word	0x03000814
34186f2c:	0700000c 	.word	0x0700000c
34186f30:	0700040c 	.word	0x0700040c
34186f34:	0700080c 	.word	0x0700080c
34186f38:	0700100c 	.word	0x0700100c
34186f3c:	0700082c 	.word	0x0700082c
34186f40:	07000c2c 	.word	0x07000c2c
34186f44:	0700102c 	.word	0x0700102c
34186f48:	0700142c 	.word	0x0700142c
34186f4c:	07001818 	.word	0x07001818
34186f50:	0300041c 	.word	0x0300041c
34186f54:	07000420 	.word	0x07000420
34186f58:	07000820 	.word	0x07000820
34186f5c:	07001020 	.word	0x07001020
34186f60:	07001820 	.word	0x07001820
34186f64:	07000030 	.word	0x07000030
34186f68:	07000430 	.word	0x07000430
34186f6c:	07000830 	.word	0x07000830
34186f70:	07001030 	.word	0x07001030
34186f74:	07001830 	.word	0x07001830
34186f78:	07001c30 	.word	0x07001c30
34186f7c:	07000034 	.word	0x07000034
34186f80:	07000434 	.word	0x07000434
34186f84:	01001014 	.word	0x01001014
34186f88:	03001414 	.word	0x03001414
34186f8c:	03000014 	.word	0x03000014
34186f90:	03000414 	.word	0x03000414

34186f94 <XSPI_ConfigCmd>:
  * @param  hxspi : XSPI handle
  * @param  pCmd   : structure that contains the command configuration information
  * @retval HAL status
  */
static HAL_StatusTypeDef XSPI_ConfigCmd(XSPI_HandleTypeDef *hxspi, const XSPI_RegularCmdTypeDef *pCmd)
{
34186f94:	b5f0      	push	{r4, r5, r6, r7, lr}
34186f96:	4603      	mov	r3, r0
  __IO uint32_t *tcr_reg;
  __IO uint32_t *ir_reg;
  __IO uint32_t *abr_reg;

  /* Re-initialize the value of the functional mode */
  MODIFY_REG(hxspi->Instance->CR, XSPI_CR_FMODE, 0U);
34186f98:	6800      	ldr	r0, [r0, #0]
34186f9a:	6802      	ldr	r2, [r0, #0]
34186f9c:	f022 5240 	bic.w	r2, r2, #805306368	@ 0x30000000
34186fa0:	6002      	str	r2, [r0, #0]

  if (hxspi->Init.MemoryMode == HAL_XSPI_SINGLE_MEM)
34186fa2:	689a      	ldr	r2, [r3, #8]
34186fa4:	b932      	cbnz	r2, 34186fb4 <XSPI_ConfigCmd+0x20>
  {
    assert_param(IS_XSPI_IO_SELECT(pCmd->IOSelect));
    MODIFY_REG(hxspi->Instance->CR, XSPI_CR_MSEL, pCmd->IOSelect);
34186fa6:	6818      	ldr	r0, [r3, #0]
34186fa8:	6802      	ldr	r2, [r0, #0]
34186faa:	f022 4240 	bic.w	r2, r2, #3221225472	@ 0xc0000000
34186fae:	684c      	ldr	r4, [r1, #4]
34186fb0:	4322      	orrs	r2, r4
34186fb2:	6002      	str	r2, [r0, #0]
  }

  if (pCmd->OperationType == HAL_XSPI_OPTYPE_WRITE_CFG)
34186fb4:	680a      	ldr	r2, [r1, #0]
34186fb6:	2a02      	cmp	r2, #2
34186fb8:	d05e      	beq.n	34187078 <XSPI_ConfigCmd+0xe4>
    ccr_reg = &(hxspi->Instance->WCCR);
    tcr_reg = &(hxspi->Instance->WTCR);
    ir_reg  = &(hxspi->Instance->WIR);
    abr_reg = &(hxspi->Instance->WABR);
  }
  else if (pCmd->OperationType == HAL_XSPI_OPTYPE_WRAP_CFG)
34186fba:	2a03      	cmp	r2, #3
34186fbc:	d066      	beq.n	3418708c <XSPI_ConfigCmd+0xf8>
    ir_reg  = &(hxspi->Instance->WPIR);
    abr_reg = &(hxspi->Instance->WPABR);
  }
  else
  {
    ccr_reg = &(hxspi->Instance->CCR);
34186fbe:	681a      	ldr	r2, [r3, #0]
34186fc0:	f502 7080 	add.w	r0, r2, #256	@ 0x100
    tcr_reg = &(hxspi->Instance->TCR);
34186fc4:	f502 7e84 	add.w	lr, r2, #264	@ 0x108
    ir_reg  = &(hxspi->Instance->IR);
34186fc8:	f502 7c88 	add.w	ip, r2, #272	@ 0x110
    abr_reg = &(hxspi->Instance->ABR);
34186fcc:	f502 7290 	add.w	r2, r2, #288	@ 0x120
  }

  /* Configure the CCR register with DQS mode */
  *ccr_reg = pCmd->DQSMode;
34186fd0:	6c8c      	ldr	r4, [r1, #72]	@ 0x48
34186fd2:	6004      	str	r4, [r0, #0]

  if (pCmd->AlternateBytesMode != HAL_XSPI_ALT_BYTES_NONE)
34186fd4:	6acc      	ldr	r4, [r1, #44]	@ 0x2c
34186fd6:	b15c      	cbz	r4, 34186ff0 <XSPI_ConfigCmd+0x5c>
  {
    /* Configure the ABR register with alternate bytes value */
    *abr_reg = pCmd->AlternateBytes;
34186fd8:	6a8c      	ldr	r4, [r1, #40]	@ 0x28
34186fda:	6014      	str	r4, [r2, #0]

    /* Configure the CCR register with alternate bytes communication parameters */
    MODIFY_REG((*ccr_reg), (XSPI_CCR_ABMODE | XSPI_CCR_ABDTR | XSPI_CCR_ABSIZE),
34186fdc:	6802      	ldr	r2, [r0, #0]
34186fde:	f422 127c 	bic.w	r2, r2, #4128768	@ 0x3f0000
34186fe2:	6b4c      	ldr	r4, [r1, #52]	@ 0x34
34186fe4:	6acd      	ldr	r5, [r1, #44]	@ 0x2c
34186fe6:	432c      	orrs	r4, r5
34186fe8:	6b0d      	ldr	r5, [r1, #48]	@ 0x30
34186fea:	432c      	orrs	r4, r5
34186fec:	4322      	orrs	r2, r4
34186fee:	6002      	str	r2, [r0, #0]
               (pCmd->AlternateBytesMode | pCmd->AlternateBytesDTRMode | pCmd->AlternateBytesWidth));
  }

  /* Configure the TCR register with the number of dummy cycles */
  MODIFY_REG((*tcr_reg), XSPI_TCR_DCYC, pCmd->DummyCycles);
34186ff0:	f8de 2000 	ldr.w	r2, [lr]
34186ff4:	f022 021f 	bic.w	r2, r2, #31
34186ff8:	6c4c      	ldr	r4, [r1, #68]	@ 0x44
34186ffa:	4322      	orrs	r2, r4
34186ffc:	f8ce 2000 	str.w	r2, [lr]

  if (pCmd->DataMode != HAL_XSPI_DATA_NONE)
34187000:	6b8a      	ldr	r2, [r1, #56]	@ 0x38
34187002:	b12a      	cbz	r2, 34187010 <XSPI_ConfigCmd+0x7c>
  {
    if (pCmd->OperationType == HAL_XSPI_OPTYPE_COMMON_CFG)
34187004:	680a      	ldr	r2, [r1, #0]
34187006:	b91a      	cbnz	r2, 34187010 <XSPI_ConfigCmd+0x7c>
    {
      /* Configure the DLR register with the number of data */
      hxspi->Instance->DLR = (pCmd->DataLength - 1U);
34187008:	6bca      	ldr	r2, [r1, #60]	@ 0x3c
3418700a:	681c      	ldr	r4, [r3, #0]
3418700c:	3a01      	subs	r2, #1
3418700e:	6422      	str	r2, [r4, #64]	@ 0x40
    }
  }

  /* Configure SSHIFT register to handle SDR/DTR data transfer */
  if (pCmd->DataMode != HAL_XSPI_DATA_NONE)
34187010:	6b8a      	ldr	r2, [r1, #56]	@ 0x38
34187012:	b13a      	cbz	r2, 34187024 <XSPI_ConfigCmd+0x90>
  {
    if (pCmd->DataDTRMode == HAL_XSPI_DATA_DTR_ENABLE)
34187014:	6c0a      	ldr	r2, [r1, #64]	@ 0x40
34187016:	f1b2 6f00 	cmp.w	r2, #134217728	@ 0x8000000
3418701a:	d041      	beq.n	341870a0 <XSPI_ConfigCmd+0x10c>
    {
      /* Deactivate sample shifting when receiving data in DTR mode (DDTR=1) */
      CLEAR_BIT(hxspi->Instance->TCR, XSPI_TCR_SSHIFT);
    }
    else if (hxspi->Init.SampleShifting == HAL_XSPI_SAMPLE_SHIFT_HALFCYCLE)
3418701c:	6a9a      	ldr	r2, [r3, #40]	@ 0x28
3418701e:	f1b2 4f80 	cmp.w	r2, #1073741824	@ 0x40000000
34187022:	d045      	beq.n	341870b0 <XSPI_ConfigCmd+0x11c>
    {
      /* Do nothing */
    }
  }

  if (pCmd->InstructionMode != HAL_XSPI_INSTRUCTION_NONE)
34187024:	68ca      	ldr	r2, [r1, #12]
34187026:	2a00      	cmp	r2, #0
34187028:	d07a      	beq.n	34187120 <XSPI_ConfigCmd+0x18c>
  {
    if (pCmd->AddressMode != HAL_XSPI_ADDRESS_NONE)
3418702a:	69cc      	ldr	r4, [r1, #28]
3418702c:	2c00      	cmp	r4, #0
3418702e:	d058      	beq.n	341870e2 <XSPI_ConfigCmd+0x14e>
    {
      if (pCmd->DataMode != HAL_XSPI_DATA_NONE)
34187030:	6b8d      	ldr	r5, [r1, #56]	@ 0x38
34187032:	2d00      	cmp	r5, #0
34187034:	d044      	beq.n	341870c0 <XSPI_ConfigCmd+0x12c>
      {
        /* ---- Command with instruction, address and data ---- */

        /* Configure the CCR register with all communication parameters */
        MODIFY_REG((*ccr_reg), (XSPI_CCR_IMODE  | XSPI_CCR_IDTR  | XSPI_CCR_ISIZE  |
34187036:	6807      	ldr	r7, [r0, #0]
34187038:	4e4c      	ldr	r6, [pc, #304]	@ (3418716c <XSPI_ConfigCmd+0x1d8>)
3418703a:	403e      	ands	r6, r7
3418703c:	694f      	ldr	r7, [r1, #20]
3418703e:	433a      	orrs	r2, r7
34187040:	690f      	ldr	r7, [r1, #16]
34187042:	433a      	orrs	r2, r7
34187044:	4322      	orrs	r2, r4
34187046:	6a4c      	ldr	r4, [r1, #36]	@ 0x24
34187048:	4322      	orrs	r2, r4
3418704a:	6a0c      	ldr	r4, [r1, #32]
3418704c:	4322      	orrs	r2, r4
3418704e:	4315      	orrs	r5, r2
34187050:	6c0a      	ldr	r2, [r1, #64]	@ 0x40
34187052:	4315      	orrs	r5, r2
34187054:	432e      	orrs	r6, r5
34187056:	6006      	str	r6, [r0, #0]
                                XSPI_CCR_ADMODE | XSPI_CCR_ADDTR | XSPI_CCR_ADSIZE),
                   (pCmd->InstructionMode | pCmd->InstructionDTRMode | pCmd->InstructionWidth |
                    pCmd->AddressMode     | pCmd->AddressDTRMode     | pCmd->AddressWidth));
      }
      /* Configure the IR register with the instruction value */
      *ir_reg = pCmd->Instruction;
34187058:	688a      	ldr	r2, [r1, #8]
3418705a:	f8cc 2000 	str.w	r2, [ip]

      /* Configure the AR register with the address value */
      hxspi->Instance->AR = pCmd->Address;
3418705e:	681a      	ldr	r2, [r3, #0]
34187060:	6988      	ldr	r0, [r1, #24]
34187062:	6490      	str	r0, [r2, #72]	@ 0x48
  HAL_StatusTypeDef status = HAL_OK;
34187064:	2000      	movs	r0, #0
      status = HAL_ERROR;
      hxspi->ErrorCode = HAL_XSPI_ERROR_INVALID_PARAM;
    }
  }

  if (pCmd->DataMode != HAL_XSPI_DATA_NONE)
34187066:	6b8a      	ldr	r2, [r1, #56]	@ 0x38
34187068:	b12a      	cbz	r2, 34187076 <XSPI_ConfigCmd+0xe2>
  {
    if (pCmd->OperationType == HAL_XSPI_OPTYPE_COMMON_CFG)
3418706a:	680a      	ldr	r2, [r1, #0]
3418706c:	b91a      	cbnz	r2, 34187076 <XSPI_ConfigCmd+0xe2>
    {
      /* Configure the DLR register with the number of data */
      hxspi->Instance->DLR = (pCmd->DataLength - 1U);
3418706e:	6bca      	ldr	r2, [r1, #60]	@ 0x3c
34187070:	6819      	ldr	r1, [r3, #0]
34187072:	3a01      	subs	r2, #1
34187074:	640a      	str	r2, [r1, #64]	@ 0x40
      assert_param(IS_XSPI_PROG_DATA(hxspi->Instance->DLR, (pCmd->DataLength - 1U)));
    }
  }

  return status;
}
34187076:	bdf0      	pop	{r4, r5, r6, r7, pc}
    ccr_reg = &(hxspi->Instance->WCCR);
34187078:	681a      	ldr	r2, [r3, #0]
3418707a:	f502 70c0 	add.w	r0, r2, #384	@ 0x180
    tcr_reg = &(hxspi->Instance->WTCR);
3418707e:	f502 7ec4 	add.w	lr, r2, #392	@ 0x188
    ir_reg  = &(hxspi->Instance->WIR);
34187082:	f502 7cc8 	add.w	ip, r2, #400	@ 0x190
    abr_reg = &(hxspi->Instance->WABR);
34187086:	f502 72d0 	add.w	r2, r2, #416	@ 0x1a0
3418708a:	e7a1      	b.n	34186fd0 <XSPI_ConfigCmd+0x3c>
    ccr_reg = &(hxspi->Instance->WPCCR);
3418708c:	681a      	ldr	r2, [r3, #0]
3418708e:	f502 70a0 	add.w	r0, r2, #320	@ 0x140
    tcr_reg = &(hxspi->Instance->WPTCR);
34187092:	f502 7ea4 	add.w	lr, r2, #328	@ 0x148
    ir_reg  = &(hxspi->Instance->WPIR);
34187096:	f502 7ca8 	add.w	ip, r2, #336	@ 0x150
    abr_reg = &(hxspi->Instance->WPABR);
3418709a:	f502 72b0 	add.w	r2, r2, #352	@ 0x160
3418709e:	e797      	b.n	34186fd0 <XSPI_ConfigCmd+0x3c>
      CLEAR_BIT(hxspi->Instance->TCR, XSPI_TCR_SSHIFT);
341870a0:	681c      	ldr	r4, [r3, #0]
341870a2:	f8d4 2108 	ldr.w	r2, [r4, #264]	@ 0x108
341870a6:	f022 4280 	bic.w	r2, r2, #1073741824	@ 0x40000000
341870aa:	f8c4 2108 	str.w	r2, [r4, #264]	@ 0x108
341870ae:	e7b9      	b.n	34187024 <XSPI_ConfigCmd+0x90>
      SET_BIT(hxspi->Instance->TCR, XSPI_TCR_SSHIFT);
341870b0:	681c      	ldr	r4, [r3, #0]
341870b2:	f8d4 2108 	ldr.w	r2, [r4, #264]	@ 0x108
341870b6:	f042 4280 	orr.w	r2, r2, #1073741824	@ 0x40000000
341870ba:	f8c4 2108 	str.w	r2, [r4, #264]	@ 0x108
341870be:	e7b1      	b.n	34187024 <XSPI_ConfigCmd+0x90>
        MODIFY_REG((*ccr_reg), (XSPI_CCR_IMODE  | XSPI_CCR_IDTR  | XSPI_CCR_ISIZE  |
341870c0:	6805      	ldr	r5, [r0, #0]
341870c2:	f425 557c 	bic.w	r5, r5, #16128	@ 0x3f00
341870c6:	f025 053f 	bic.w	r5, r5, #63	@ 0x3f
341870ca:	694e      	ldr	r6, [r1, #20]
341870cc:	4316      	orrs	r6, r2
341870ce:	690a      	ldr	r2, [r1, #16]
341870d0:	4316      	orrs	r6, r2
341870d2:	4334      	orrs	r4, r6
341870d4:	6a4a      	ldr	r2, [r1, #36]	@ 0x24
341870d6:	4314      	orrs	r4, r2
341870d8:	6a0a      	ldr	r2, [r1, #32]
341870da:	4314      	orrs	r4, r2
341870dc:	4325      	orrs	r5, r4
341870de:	6005      	str	r5, [r0, #0]
341870e0:	e7ba      	b.n	34187058 <XSPI_ConfigCmd+0xc4>
      if (pCmd->DataMode != HAL_XSPI_DATA_NONE)
341870e2:	6b8c      	ldr	r4, [r1, #56]	@ 0x38
341870e4:	b194      	cbz	r4, 3418710c <XSPI_ConfigCmd+0x178>
        MODIFY_REG((*ccr_reg), (XSPI_CCR_IMODE | XSPI_CCR_IDTR | XSPI_CCR_ISIZE |
341870e6:	6805      	ldr	r5, [r0, #0]
341870e8:	f025 6570 	bic.w	r5, r5, #251658240	@ 0xf000000
341870ec:	f025 053f 	bic.w	r5, r5, #63	@ 0x3f
341870f0:	694e      	ldr	r6, [r1, #20]
341870f2:	4316      	orrs	r6, r2
341870f4:	690a      	ldr	r2, [r1, #16]
341870f6:	4316      	orrs	r6, r2
341870f8:	4334      	orrs	r4, r6
341870fa:	6c0a      	ldr	r2, [r1, #64]	@ 0x40
341870fc:	4314      	orrs	r4, r2
341870fe:	4325      	orrs	r5, r4
34187100:	6005      	str	r5, [r0, #0]
      *ir_reg = pCmd->Instruction;
34187102:	688a      	ldr	r2, [r1, #8]
34187104:	f8cc 2000 	str.w	r2, [ip]
  HAL_StatusTypeDef status = HAL_OK;
34187108:	2000      	movs	r0, #0
3418710a:	e7ac      	b.n	34187066 <XSPI_ConfigCmd+0xd2>
        MODIFY_REG((*ccr_reg), (XSPI_CCR_IMODE | XSPI_CCR_IDTR | XSPI_CCR_ISIZE),
3418710c:	6804      	ldr	r4, [r0, #0]
3418710e:	f024 043f 	bic.w	r4, r4, #63	@ 0x3f
34187112:	694d      	ldr	r5, [r1, #20]
34187114:	432a      	orrs	r2, r5
34187116:	690d      	ldr	r5, [r1, #16]
34187118:	432a      	orrs	r2, r5
3418711a:	4322      	orrs	r2, r4
3418711c:	6002      	str	r2, [r0, #0]
3418711e:	e7f0      	b.n	34187102 <XSPI_ConfigCmd+0x16e>
    if (pCmd->AddressMode != HAL_XSPI_ADDRESS_NONE)
34187120:	69ca      	ldr	r2, [r1, #28]
34187122:	b1f2      	cbz	r2, 34187162 <XSPI_ConfigCmd+0x1ce>
      if (pCmd->DataMode != HAL_XSPI_DATA_NONE)
34187124:	6b8c      	ldr	r4, [r1, #56]	@ 0x38
34187126:	b194      	cbz	r4, 3418714e <XSPI_ConfigCmd+0x1ba>
        MODIFY_REG((*ccr_reg), (XSPI_CCR_ADMODE | XSPI_CCR_ADDTR | XSPI_CCR_ADSIZE |
34187128:	6805      	ldr	r5, [r0, #0]
3418712a:	f025 6570 	bic.w	r5, r5, #251658240	@ 0xf000000
3418712e:	f425 557c 	bic.w	r5, r5, #16128	@ 0x3f00
34187132:	6a4e      	ldr	r6, [r1, #36]	@ 0x24
34187134:	4332      	orrs	r2, r6
34187136:	6a0e      	ldr	r6, [r1, #32]
34187138:	4332      	orrs	r2, r6
3418713a:	4314      	orrs	r4, r2
3418713c:	6c0a      	ldr	r2, [r1, #64]	@ 0x40
3418713e:	4314      	orrs	r4, r2
34187140:	4325      	orrs	r5, r4
34187142:	6005      	str	r5, [r0, #0]
      hxspi->Instance->AR = pCmd->Address;
34187144:	681a      	ldr	r2, [r3, #0]
34187146:	6988      	ldr	r0, [r1, #24]
34187148:	6490      	str	r0, [r2, #72]	@ 0x48
  HAL_StatusTypeDef status = HAL_OK;
3418714a:	2000      	movs	r0, #0
3418714c:	e78b      	b.n	34187066 <XSPI_ConfigCmd+0xd2>
        MODIFY_REG((*ccr_reg), (XSPI_CCR_ADMODE | XSPI_CCR_ADDTR | XSPI_CCR_ADSIZE),
3418714e:	6804      	ldr	r4, [r0, #0]
34187150:	f424 547c 	bic.w	r4, r4, #16128	@ 0x3f00
34187154:	6a4d      	ldr	r5, [r1, #36]	@ 0x24
34187156:	432a      	orrs	r2, r5
34187158:	6a0d      	ldr	r5, [r1, #32]
3418715a:	432a      	orrs	r2, r5
3418715c:	4322      	orrs	r2, r4
3418715e:	6002      	str	r2, [r0, #0]
34187160:	e7f0      	b.n	34187144 <XSPI_ConfigCmd+0x1b0>
      hxspi->ErrorCode = HAL_XSPI_ERROR_INVALID_PARAM;
34187162:	2208      	movs	r2, #8
34187164:	65da      	str	r2, [r3, #92]	@ 0x5c
      status = HAL_ERROR;
34187166:	2001      	movs	r0, #1
34187168:	e77d      	b.n	34187066 <XSPI_ConfigCmd+0xd2>
3418716a:	bf00      	nop
3418716c:	f0ffc0c0 	.word	0xf0ffc0c0

34187170 <XSPI_WaitFlagStateUntilTimeout>:
{
34187170:	e92d 43f8 	stmdb	sp!, {r3, r4, r5, r6, r7, r8, r9, lr}
34187174:	4605      	mov	r5, r0
34187176:	460f      	mov	r7, r1
34187178:	4616      	mov	r6, r2
3418717a:	4699      	mov	r9, r3
3418717c:	f8dd 8020 	ldr.w	r8, [sp, #32]
  while ((HAL_XSPI_GET_FLAG(hxspi, Flag)) != State)
34187180:	682c      	ldr	r4, [r5, #0]
34187182:	6a24      	ldr	r4, [r4, #32]
34187184:	423c      	tst	r4, r7
34187186:	bf14      	ite	ne
34187188:	f04f 0c01 	movne.w	ip, #1
3418718c:	f04f 0c00 	moveq.w	ip, #0
34187190:	45b4      	cmp	ip, r6
34187192:	d013      	beq.n	341871bc <XSPI_WaitFlagStateUntilTimeout+0x4c>
    if (Timeout != HAL_MAX_DELAY)
34187194:	f1b8 3fff 	cmp.w	r8, #4294967295
34187198:	d0f2      	beq.n	34187180 <XSPI_WaitFlagStateUntilTimeout+0x10>
      if (((HAL_GetTick() - Tickstart) > Timeout) || (Timeout == 0U))
3418719a:	f000 fbef 	bl	3418797c <HAL_GetTick>
3418719e:	eba0 0009 	sub.w	r0, r0, r9
341871a2:	4540      	cmp	r0, r8
341871a4:	d802      	bhi.n	341871ac <XSPI_WaitFlagStateUntilTimeout+0x3c>
341871a6:	f1b8 0f00 	cmp.w	r8, #0
341871aa:	d1e9      	bne.n	34187180 <XSPI_WaitFlagStateUntilTimeout+0x10>
        hxspi->State     = HAL_XSPI_STATE_READY;
341871ac:	2302      	movs	r3, #2
341871ae:	65ab      	str	r3, [r5, #88]	@ 0x58
        hxspi->ErrorCode |= HAL_XSPI_ERROR_TIMEOUT;
341871b0:	6deb      	ldr	r3, [r5, #92]	@ 0x5c
341871b2:	f043 0301 	orr.w	r3, r3, #1
341871b6:	65eb      	str	r3, [r5, #92]	@ 0x5c
        return HAL_TIMEOUT;
341871b8:	2003      	movs	r0, #3
341871ba:	e000      	b.n	341871be <XSPI_WaitFlagStateUntilTimeout+0x4e>
  return HAL_OK;
341871bc:	2000      	movs	r0, #0
}
341871be:	e8bd 83f8 	ldmia.w	sp!, {r3, r4, r5, r6, r7, r8, r9, pc}

341871c2 <HAL_XSPI_Command>:
{
341871c2:	e92d 41f0 	stmdb	sp!, {r4, r5, r6, r7, r8, lr}
341871c6:	b082      	sub	sp, #8
341871c8:	4604      	mov	r4, r0
341871ca:	4688      	mov	r8, r1
341871cc:	4617      	mov	r7, r2
  uint32_t tickstart = HAL_GetTick();
341871ce:	f000 fbd5 	bl	3418797c <HAL_GetTick>
341871d2:	4606      	mov	r6, r0
  state = hxspi->State;
341871d4:	6da5      	ldr	r5, [r4, #88]	@ 0x58
  if (((state == HAL_XSPI_STATE_READY)         && (hxspi->Init.MemoryType != HAL_XSPI_MEMTYPE_HYPERBUS)) ||
341871d6:	2d02      	cmp	r5, #2
341871d8:	d009      	beq.n	341871ee <HAL_XSPI_Command+0x2c>
341871da:	2d14      	cmp	r5, #20
341871dc:	d015      	beq.n	3418720a <HAL_XSPI_Command+0x48>
                                                   (pCmd->OperationType == HAL_XSPI_OPTYPE_WRAP_CFG))) ||
341871de:	2d24      	cmp	r5, #36	@ 0x24
341871e0:	d019      	beq.n	34187216 <HAL_XSPI_Command+0x54>
    hxspi->ErrorCode = HAL_XSPI_ERROR_INVALID_SEQUENCE;
341871e2:	2310      	movs	r3, #16
341871e4:	65e3      	str	r3, [r4, #92]	@ 0x5c
    status = HAL_ERROR;
341871e6:	2001      	movs	r0, #1
}
341871e8:	b002      	add	sp, #8
341871ea:	e8bd 81f0 	ldmia.w	sp!, {r4, r5, r6, r7, r8, pc}
  if (((state == HAL_XSPI_STATE_READY)         && (hxspi->Init.MemoryType != HAL_XSPI_MEMTYPE_HYPERBUS)) ||
341871ee:	68e3      	ldr	r3, [r4, #12]
341871f0:	f1b3 6f80 	cmp.w	r3, #67108864	@ 0x4000000
341871f4:	d0f1      	beq.n	341871da <HAL_XSPI_Command+0x18>
    status = XSPI_WaitFlagStateUntilTimeout(hxspi, HAL_XSPI_FLAG_BUSY, RESET, tickstart, Timeout);
341871f6:	9700      	str	r7, [sp, #0]
341871f8:	4633      	mov	r3, r6
341871fa:	2200      	movs	r2, #0
341871fc:	2120      	movs	r1, #32
341871fe:	4620      	mov	r0, r4
34187200:	f7ff ffb6 	bl	34187170 <XSPI_WaitFlagStateUntilTimeout>
    if (status == HAL_OK)
34187204:	b170      	cbz	r0, 34187224 <HAL_XSPI_Command+0x62>
      status = HAL_BUSY;
34187206:	2002      	movs	r0, #2
34187208:	e7ee      	b.n	341871e8 <HAL_XSPI_Command+0x26>
      ((state == HAL_XSPI_STATE_READ_CMD_CFG)  && ((pCmd->OperationType == HAL_XSPI_OPTYPE_WRITE_CFG) ||
3418720a:	f8d8 3000 	ldr.w	r3, [r8]
3418720e:	3b02      	subs	r3, #2
34187210:	2b01      	cmp	r3, #1
34187212:	d8e4      	bhi.n	341871de <HAL_XSPI_Command+0x1c>
34187214:	e7ef      	b.n	341871f6 <HAL_XSPI_Command+0x34>
       ((pCmd->OperationType == HAL_XSPI_OPTYPE_READ_CFG)  ||
34187216:	f8d8 3000 	ldr.w	r3, [r8]
      ((state == HAL_XSPI_STATE_WRITE_CMD_CFG) &&
3418721a:	2b01      	cmp	r3, #1
3418721c:	d0eb      	beq.n	341871f6 <HAL_XSPI_Command+0x34>
       ((pCmd->OperationType == HAL_XSPI_OPTYPE_READ_CFG)  ||
3418721e:	2b03      	cmp	r3, #3
34187220:	d1df      	bne.n	341871e2 <HAL_XSPI_Command+0x20>
34187222:	e7e8      	b.n	341871f6 <HAL_XSPI_Command+0x34>
      hxspi->ErrorCode = HAL_XSPI_ERROR_NONE;
34187224:	2300      	movs	r3, #0
34187226:	65e3      	str	r3, [r4, #92]	@ 0x5c
      status = XSPI_ConfigCmd(hxspi, pCmd);
34187228:	4641      	mov	r1, r8
3418722a:	4620      	mov	r0, r4
3418722c:	f7ff feb2 	bl	34186f94 <XSPI_ConfigCmd>
      if (status == HAL_OK)
34187230:	2800      	cmp	r0, #0
34187232:	d1d9      	bne.n	341871e8 <HAL_XSPI_Command+0x26>
        if (pCmd->DataMode == HAL_XSPI_DATA_NONE)
34187234:	f8d8 3038 	ldr.w	r3, [r8, #56]	@ 0x38
34187238:	b12b      	cbz	r3, 34187246 <HAL_XSPI_Command+0x84>
          if (pCmd->OperationType == HAL_XSPI_OPTYPE_COMMON_CFG)
3418723a:	f8d8 3000 	ldr.w	r3, [r8]
3418723e:	b96b      	cbnz	r3, 3418725c <HAL_XSPI_Command+0x9a>
            hxspi->State = HAL_XSPI_STATE_CMD_CFG;
34187240:	2304      	movs	r3, #4
34187242:	65a3      	str	r3, [r4, #88]	@ 0x58
34187244:	e7d0      	b.n	341871e8 <HAL_XSPI_Command+0x26>
          status = XSPI_WaitFlagStateUntilTimeout(hxspi, HAL_XSPI_FLAG_BUSY, RESET, tickstart, Timeout);
34187246:	9700      	str	r7, [sp, #0]
34187248:	4633      	mov	r3, r6
3418724a:	2200      	movs	r2, #0
3418724c:	2120      	movs	r1, #32
3418724e:	4620      	mov	r0, r4
34187250:	f7ff ff8e 	bl	34187170 <XSPI_WaitFlagStateUntilTimeout>
          HAL_XSPI_CLEAR_FLAG(hxspi, HAL_XSPI_FLAG_TC);
34187254:	6823      	ldr	r3, [r4, #0]
34187256:	2202      	movs	r2, #2
34187258:	625a      	str	r2, [r3, #36]	@ 0x24
3418725a:	e7c5      	b.n	341871e8 <HAL_XSPI_Command+0x26>
          else if (pCmd->OperationType == HAL_XSPI_OPTYPE_READ_CFG)
3418725c:	2b01      	cmp	r3, #1
3418725e:	d007      	beq.n	34187270 <HAL_XSPI_Command+0xae>
          else if (pCmd->OperationType == HAL_XSPI_OPTYPE_WRITE_CFG)
34187260:	2b02      	cmp	r3, #2
34187262:	d1c1      	bne.n	341871e8 <HAL_XSPI_Command+0x26>
            if (hxspi->State == HAL_XSPI_STATE_READ_CMD_CFG)
34187264:	6da3      	ldr	r3, [r4, #88]	@ 0x58
34187266:	2b14      	cmp	r3, #20
34187268:	d00b      	beq.n	34187282 <HAL_XSPI_Command+0xc0>
              hxspi->State = HAL_XSPI_STATE_WRITE_CMD_CFG;
3418726a:	2324      	movs	r3, #36	@ 0x24
3418726c:	65a3      	str	r3, [r4, #88]	@ 0x58
3418726e:	e7bb      	b.n	341871e8 <HAL_XSPI_Command+0x26>
            if (hxspi->State == HAL_XSPI_STATE_WRITE_CMD_CFG)
34187270:	6da3      	ldr	r3, [r4, #88]	@ 0x58
34187272:	2b24      	cmp	r3, #36	@ 0x24
34187274:	d002      	beq.n	3418727c <HAL_XSPI_Command+0xba>
              hxspi->State = HAL_XSPI_STATE_READ_CMD_CFG;
34187276:	2314      	movs	r3, #20
34187278:	65a3      	str	r3, [r4, #88]	@ 0x58
3418727a:	e7b5      	b.n	341871e8 <HAL_XSPI_Command+0x26>
              hxspi->State = HAL_XSPI_STATE_CMD_CFG;
3418727c:	2304      	movs	r3, #4
3418727e:	65a3      	str	r3, [r4, #88]	@ 0x58
34187280:	e7b2      	b.n	341871e8 <HAL_XSPI_Command+0x26>
              hxspi->State = HAL_XSPI_STATE_CMD_CFG;
34187282:	2304      	movs	r3, #4
34187284:	65a3      	str	r3, [r4, #88]	@ 0x58
34187286:	e7af      	b.n	341871e8 <HAL_XSPI_Command+0x26>

34187288 <HAL_XSPI_Transmit>:
{
34187288:	e92d 41f0 	stmdb	sp!, {r4, r5, r6, r7, r8, lr}
3418728c:	b082      	sub	sp, #8
3418728e:	4604      	mov	r4, r0
34187290:	4688      	mov	r8, r1
34187292:	4616      	mov	r6, r2
  uint32_t tickstart = HAL_GetTick();
34187294:	f000 fb72 	bl	3418797c <HAL_GetTick>
  __IO uint32_t *data_reg = &hxspi->Instance->DR;
34187298:	6827      	ldr	r7, [r4, #0]
  if (pData == NULL)
3418729a:	f1b8 0f00 	cmp.w	r8, #0
3418729e:	d00a      	beq.n	341872b6 <HAL_XSPI_Transmit+0x2e>
341872a0:	4605      	mov	r5, r0
    if (hxspi->State == HAL_XSPI_STATE_CMD_CFG)
341872a2:	6da3      	ldr	r3, [r4, #88]	@ 0x58
341872a4:	2b04      	cmp	r3, #4
341872a6:	d00a      	beq.n	341872be <HAL_XSPI_Transmit+0x36>
      hxspi->ErrorCode = HAL_XSPI_ERROR_INVALID_SEQUENCE;
341872a8:	2310      	movs	r3, #16
341872aa:	65e3      	str	r3, [r4, #92]	@ 0x5c
      status = HAL_ERROR;
341872ac:	2301      	movs	r3, #1
}
341872ae:	4618      	mov	r0, r3
341872b0:	b002      	add	sp, #8
341872b2:	e8bd 81f0 	ldmia.w	sp!, {r4, r5, r6, r7, r8, pc}
    hxspi->ErrorCode = HAL_XSPI_ERROR_INVALID_PARAM;
341872b6:	2308      	movs	r3, #8
341872b8:	65e3      	str	r3, [r4, #92]	@ 0x5c
    status = HAL_ERROR;
341872ba:	2301      	movs	r3, #1
341872bc:	e7f7      	b.n	341872ae <HAL_XSPI_Transmit+0x26>
      hxspi->XferCount = READ_REG(hxspi->Instance->DLR) + 1U;
341872be:	6c3b      	ldr	r3, [r7, #64]	@ 0x40
341872c0:	3301      	adds	r3, #1
341872c2:	64e3      	str	r3, [r4, #76]	@ 0x4c
      hxspi->XferSize  = hxspi->XferCount;
341872c4:	6ce3      	ldr	r3, [r4, #76]	@ 0x4c
341872c6:	64a3      	str	r3, [r4, #72]	@ 0x48
      hxspi->pBuffPtr  = (uint8_t *)pData;
341872c8:	f8c4 8044 	str.w	r8, [r4, #68]	@ 0x44
      MODIFY_REG(hxspi->Instance->CR, XSPI_CR_FMODE, XSPI_FUNCTIONAL_MODE_INDIRECT_WRITE);
341872cc:	683b      	ldr	r3, [r7, #0]
341872ce:	f023 5340 	bic.w	r3, r3, #805306368	@ 0x30000000
341872d2:	603b      	str	r3, [r7, #0]
        status = XSPI_WaitFlagStateUntilTimeout(hxspi, HAL_XSPI_FLAG_FT, SET, tickstart, Timeout);
341872d4:	9600      	str	r6, [sp, #0]
341872d6:	462b      	mov	r3, r5
341872d8:	2201      	movs	r2, #1
341872da:	2104      	movs	r1, #4
341872dc:	4620      	mov	r0, r4
341872de:	f7ff ff47 	bl	34187170 <XSPI_WaitFlagStateUntilTimeout>
        if (status != HAL_OK)
341872e2:	4603      	mov	r3, r0
341872e4:	b960      	cbnz	r0, 34187300 <HAL_XSPI_Transmit+0x78>
        *((__IO uint8_t *)data_reg) = *hxspi->pBuffPtr;
341872e6:	6c62      	ldr	r2, [r4, #68]	@ 0x44
341872e8:	7812      	ldrb	r2, [r2, #0]
341872ea:	f887 2050 	strb.w	r2, [r7, #80]	@ 0x50
        hxspi->pBuffPtr++;
341872ee:	6c61      	ldr	r1, [r4, #68]	@ 0x44
341872f0:	3101      	adds	r1, #1
341872f2:	6461      	str	r1, [r4, #68]	@ 0x44
        hxspi->XferCount--;
341872f4:	6ce1      	ldr	r1, [r4, #76]	@ 0x4c
341872f6:	3901      	subs	r1, #1
341872f8:	64e1      	str	r1, [r4, #76]	@ 0x4c
      } while (hxspi->XferCount > 0U);
341872fa:	6ce2      	ldr	r2, [r4, #76]	@ 0x4c
341872fc:	2a00      	cmp	r2, #0
341872fe:	d1e9      	bne.n	341872d4 <HAL_XSPI_Transmit+0x4c>
      if (status == HAL_OK)
34187300:	2b00      	cmp	r3, #0
34187302:	d1d4      	bne.n	341872ae <HAL_XSPI_Transmit+0x26>
        status = XSPI_WaitFlagStateUntilTimeout(hxspi, HAL_XSPI_FLAG_TC, SET, tickstart, Timeout);
34187304:	9600      	str	r6, [sp, #0]
34187306:	462b      	mov	r3, r5
34187308:	2201      	movs	r2, #1
3418730a:	2102      	movs	r1, #2
3418730c:	4620      	mov	r0, r4
3418730e:	f7ff ff2f 	bl	34187170 <XSPI_WaitFlagStateUntilTimeout>
        if (status == HAL_OK)
34187312:	4603      	mov	r3, r0
34187314:	2800      	cmp	r0, #0
34187316:	d1ca      	bne.n	341872ae <HAL_XSPI_Transmit+0x26>
          HAL_XSPI_CLEAR_FLAG(hxspi, HAL_XSPI_FLAG_TC);
34187318:	6821      	ldr	r1, [r4, #0]
3418731a:	2202      	movs	r2, #2
3418731c:	624a      	str	r2, [r1, #36]	@ 0x24
          hxspi->State = HAL_XSPI_STATE_READY;
3418731e:	65a2      	str	r2, [r4, #88]	@ 0x58
34187320:	e7c5      	b.n	341872ae <HAL_XSPI_Transmit+0x26>

34187322 <HAL_XSPI_Receive>:
{
34187322:	e92d 41f0 	stmdb	sp!, {r4, r5, r6, r7, r8, lr}
34187326:	b082      	sub	sp, #8
34187328:	4604      	mov	r4, r0
3418732a:	4688      	mov	r8, r1
3418732c:	4617      	mov	r7, r2
  uint32_t tickstart = HAL_GetTick();
3418732e:	f000 fb25 	bl	3418797c <HAL_GetTick>
  __IO uint32_t *data_reg = &hxspi->Instance->DR;
34187332:	6825      	ldr	r5, [r4, #0]
  uint32_t addr_reg = hxspi->Instance->AR;
34187334:	6caa      	ldr	r2, [r5, #72]	@ 0x48
  uint32_t ir_reg = hxspi->Instance->IR;
34187336:	f8d5 1110 	ldr.w	r1, [r5, #272]	@ 0x110
  if (pData == NULL)
3418733a:	f1b8 0f00 	cmp.w	r8, #0
3418733e:	d00a      	beq.n	34187356 <HAL_XSPI_Receive+0x34>
34187340:	4606      	mov	r6, r0
    if (hxspi->State == HAL_XSPI_STATE_CMD_CFG)
34187342:	6da3      	ldr	r3, [r4, #88]	@ 0x58
34187344:	2b04      	cmp	r3, #4
34187346:	d00a      	beq.n	3418735e <HAL_XSPI_Receive+0x3c>
      hxspi->ErrorCode = HAL_XSPI_ERROR_INVALID_SEQUENCE;
34187348:	2310      	movs	r3, #16
3418734a:	65e3      	str	r3, [r4, #92]	@ 0x5c
      status = HAL_ERROR;
3418734c:	2301      	movs	r3, #1
}
3418734e:	4618      	mov	r0, r3
34187350:	b002      	add	sp, #8
34187352:	e8bd 81f0 	ldmia.w	sp!, {r4, r5, r6, r7, r8, pc}
    hxspi->ErrorCode = HAL_XSPI_ERROR_INVALID_PARAM;
34187356:	2308      	movs	r3, #8
34187358:	65e3      	str	r3, [r4, #92]	@ 0x5c
    status = HAL_ERROR;
3418735a:	2301      	movs	r3, #1
3418735c:	e7f7      	b.n	3418734e <HAL_XSPI_Receive+0x2c>
      hxspi->XferCount = READ_REG(hxspi->Instance->DLR) + 1U;
3418735e:	6c2b      	ldr	r3, [r5, #64]	@ 0x40
34187360:	3301      	adds	r3, #1
34187362:	64e3      	str	r3, [r4, #76]	@ 0x4c
      hxspi->XferSize  = hxspi->XferCount;
34187364:	6ce3      	ldr	r3, [r4, #76]	@ 0x4c
34187366:	64a3      	str	r3, [r4, #72]	@ 0x48
      hxspi->pBuffPtr  = pData;
34187368:	f8c4 8044 	str.w	r8, [r4, #68]	@ 0x44
      MODIFY_REG(hxspi->Instance->CR, XSPI_CR_FMODE, XSPI_FUNCTIONAL_MODE_INDIRECT_READ);
3418736c:	682b      	ldr	r3, [r5, #0]
3418736e:	f023 5340 	bic.w	r3, r3, #805306368	@ 0x30000000
34187372:	f043 5380 	orr.w	r3, r3, #268435456	@ 0x10000000
34187376:	602b      	str	r3, [r5, #0]
      if (hxspi->Init.MemoryType == HAL_XSPI_MEMTYPE_HYPERBUS)
34187378:	68e3      	ldr	r3, [r4, #12]
3418737a:	f1b3 6f80 	cmp.w	r3, #67108864	@ 0x4000000
3418737e:	d007      	beq.n	34187390 <HAL_XSPI_Receive+0x6e>
        if (READ_BIT(hxspi->Instance->CCR, XSPI_CCR_ADMODE) != HAL_XSPI_ADDRESS_NONE)
34187380:	6823      	ldr	r3, [r4, #0]
34187382:	f8d3 0100 	ldr.w	r0, [r3, #256]	@ 0x100
34187386:	f410 6fe0 	tst.w	r0, #1792	@ 0x700
3418738a:	d02a      	beq.n	341873e2 <HAL_XSPI_Receive+0xc0>
          WRITE_REG(hxspi->Instance->AR, addr_reg);
3418738c:	649a      	str	r2, [r3, #72]	@ 0x48
3418738e:	e001      	b.n	34187394 <HAL_XSPI_Receive+0x72>
        WRITE_REG(hxspi->Instance->AR, addr_reg);
34187390:	6823      	ldr	r3, [r4, #0]
34187392:	649a      	str	r2, [r3, #72]	@ 0x48
        status = XSPI_WaitFlagStateUntilTimeout(hxspi, (HAL_XSPI_FLAG_FT | HAL_XSPI_FLAG_TC), SET, tickstart, Timeout);
34187394:	9700      	str	r7, [sp, #0]
34187396:	4633      	mov	r3, r6
34187398:	2201      	movs	r2, #1
3418739a:	2106      	movs	r1, #6
3418739c:	4620      	mov	r0, r4
3418739e:	f7ff fee7 	bl	34187170 <XSPI_WaitFlagStateUntilTimeout>
        if (status != HAL_OK)
341873a2:	4603      	mov	r3, r0
341873a4:	b960      	cbnz	r0, 341873c0 <HAL_XSPI_Receive+0x9e>
        *hxspi->pBuffPtr = *((__IO uint8_t *)data_reg);
341873a6:	6c62      	ldr	r2, [r4, #68]	@ 0x44
341873a8:	f895 1050 	ldrb.w	r1, [r5, #80]	@ 0x50
341873ac:	7011      	strb	r1, [r2, #0]
        hxspi->pBuffPtr++;
341873ae:	6c61      	ldr	r1, [r4, #68]	@ 0x44
341873b0:	3101      	adds	r1, #1
341873b2:	6461      	str	r1, [r4, #68]	@ 0x44
        hxspi->XferCount--;
341873b4:	6ce1      	ldr	r1, [r4, #76]	@ 0x4c
341873b6:	3901      	subs	r1, #1
341873b8:	64e1      	str	r1, [r4, #76]	@ 0x4c
      } while (hxspi->XferCount > 0U);
341873ba:	6ce2      	ldr	r2, [r4, #76]	@ 0x4c
341873bc:	2a00      	cmp	r2, #0
341873be:	d1e9      	bne.n	34187394 <HAL_XSPI_Receive+0x72>
      if (status == HAL_OK)
341873c0:	2b00      	cmp	r3, #0
341873c2:	d1c4      	bne.n	3418734e <HAL_XSPI_Receive+0x2c>
        status = XSPI_WaitFlagStateUntilTimeout(hxspi, HAL_XSPI_FLAG_TC, SET, tickstart, Timeout);
341873c4:	9700      	str	r7, [sp, #0]
341873c6:	4633      	mov	r3, r6
341873c8:	2201      	movs	r2, #1
341873ca:	2102      	movs	r1, #2
341873cc:	4620      	mov	r0, r4
341873ce:	f7ff fecf 	bl	34187170 <XSPI_WaitFlagStateUntilTimeout>
        if (status == HAL_OK)
341873d2:	4603      	mov	r3, r0
341873d4:	2800      	cmp	r0, #0
341873d6:	d1ba      	bne.n	3418734e <HAL_XSPI_Receive+0x2c>
          HAL_XSPI_CLEAR_FLAG(hxspi, HAL_XSPI_FLAG_TC);
341873d8:	6821      	ldr	r1, [r4, #0]
341873da:	2202      	movs	r2, #2
341873dc:	624a      	str	r2, [r1, #36]	@ 0x24
          hxspi->State = HAL_XSPI_STATE_READY;
341873de:	65a2      	str	r2, [r4, #88]	@ 0x58
341873e0:	e7b5      	b.n	3418734e <HAL_XSPI_Receive+0x2c>
          WRITE_REG(hxspi->Instance->IR, ir_reg);
341873e2:	f8c3 1110 	str.w	r1, [r3, #272]	@ 0x110
341873e6:	e7d5      	b.n	34187394 <HAL_XSPI_Receive+0x72>

341873e8 <HAL_XSPI_AutoPolling>:
{
341873e8:	e92d 43f0 	stmdb	sp!, {r4, r5, r6, r7, r8, r9, lr}
341873ec:	b083      	sub	sp, #12
341873ee:	4604      	mov	r4, r0
341873f0:	460f      	mov	r7, r1
341873f2:	4616      	mov	r6, r2
  uint32_t tickstart = HAL_GetTick();
341873f4:	f000 fac2 	bl	3418797c <HAL_GetTick>
  uint32_t addr_reg = hxspi->Instance->AR;
341873f8:	6823      	ldr	r3, [r4, #0]
341873fa:	f8d3 8048 	ldr.w	r8, [r3, #72]	@ 0x48
  uint32_t ir_reg = hxspi->Instance->IR;
341873fe:	f8d3 5110 	ldr.w	r5, [r3, #272]	@ 0x110
  if ((hxspi->State == HAL_XSPI_STATE_CMD_CFG) && (pCfg->AutomaticStop == HAL_XSPI_AUTOMATIC_STOP_ENABLE))
34187402:	6da3      	ldr	r3, [r4, #88]	@ 0x58
34187404:	2b04      	cmp	r3, #4
34187406:	d005      	beq.n	34187414 <HAL_XSPI_AutoPolling+0x2c>
    hxspi->ErrorCode = HAL_XSPI_ERROR_INVALID_SEQUENCE;
34187408:	2310      	movs	r3, #16
3418740a:	65e3      	str	r3, [r4, #92]	@ 0x5c
    status = HAL_ERROR;
3418740c:	2001      	movs	r0, #1
}
3418740e:	b003      	add	sp, #12
34187410:	e8bd 83f0 	ldmia.w	sp!, {r4, r5, r6, r7, r8, r9, pc}
34187414:	4681      	mov	r9, r0
  if ((hxspi->State == HAL_XSPI_STATE_CMD_CFG) && (pCfg->AutomaticStop == HAL_XSPI_AUTOMATIC_STOP_ENABLE))
34187416:	68fb      	ldr	r3, [r7, #12]
34187418:	f5b3 0f80 	cmp.w	r3, #4194304	@ 0x400000
3418741c:	d1f4      	bne.n	34187408 <HAL_XSPI_AutoPolling+0x20>
    status = XSPI_WaitFlagStateUntilTimeout(hxspi, HAL_XSPI_FLAG_BUSY, RESET, tickstart, Timeout);
3418741e:	9600      	str	r6, [sp, #0]
34187420:	4603      	mov	r3, r0
34187422:	2200      	movs	r2, #0
34187424:	2120      	movs	r1, #32
34187426:	4620      	mov	r0, r4
34187428:	f7ff fea2 	bl	34187170 <XSPI_WaitFlagStateUntilTimeout>
    if (status == HAL_OK)
3418742c:	2800      	cmp	r0, #0
3418742e:	d138      	bne.n	341874a2 <HAL_XSPI_AutoPolling+0xba>
      WRITE_REG(hxspi->Instance->PSMAR, pCfg->MatchValue);
34187430:	6823      	ldr	r3, [r4, #0]
34187432:	683a      	ldr	r2, [r7, #0]
34187434:	f8c3 2088 	str.w	r2, [r3, #136]	@ 0x88
      WRITE_REG(hxspi->Instance->PSMKR, pCfg->MatchMask);
34187438:	6823      	ldr	r3, [r4, #0]
3418743a:	687a      	ldr	r2, [r7, #4]
3418743c:	f8c3 2080 	str.w	r2, [r3, #128]	@ 0x80
      WRITE_REG(hxspi->Instance->PIR,   pCfg->IntervalTime);
34187440:	6823      	ldr	r3, [r4, #0]
34187442:	693a      	ldr	r2, [r7, #16]
34187444:	f8c3 2090 	str.w	r2, [r3, #144]	@ 0x90
      MODIFY_REG(hxspi->Instance->CR, (XSPI_CR_PMM | XSPI_CR_APMS | XSPI_CR_FMODE),
34187448:	6821      	ldr	r1, [r4, #0]
3418744a:	680b      	ldr	r3, [r1, #0]
3418744c:	f023 5343 	bic.w	r3, r3, #817889280	@ 0x30c00000
34187450:	68ba      	ldr	r2, [r7, #8]
34187452:	68f8      	ldr	r0, [r7, #12]
34187454:	4302      	orrs	r2, r0
34187456:	4313      	orrs	r3, r2
34187458:	f043 5300 	orr.w	r3, r3, #536870912	@ 0x20000000
3418745c:	600b      	str	r3, [r1, #0]
      if (hxspi->Init.MemoryType == HAL_XSPI_MEMTYPE_HYPERBUS)
3418745e:	68e3      	ldr	r3, [r4, #12]
34187460:	f1b3 6f80 	cmp.w	r3, #67108864	@ 0x4000000
34187464:	d008      	beq.n	34187478 <HAL_XSPI_AutoPolling+0x90>
        if (READ_BIT(hxspi->Instance->CCR, XSPI_CCR_ADMODE) != HAL_XSPI_ADDRESS_NONE)
34187466:	6823      	ldr	r3, [r4, #0]
34187468:	f8d3 2100 	ldr.w	r2, [r3, #256]	@ 0x100
3418746c:	f412 6fe0 	tst.w	r2, #1792	@ 0x700
34187470:	d014      	beq.n	3418749c <HAL_XSPI_AutoPolling+0xb4>
          WRITE_REG(hxspi->Instance->AR, addr_reg);
34187472:	f8c3 8048 	str.w	r8, [r3, #72]	@ 0x48
34187476:	e002      	b.n	3418747e <HAL_XSPI_AutoPolling+0x96>
        WRITE_REG(hxspi->Instance->AR, addr_reg);
34187478:	6823      	ldr	r3, [r4, #0]
3418747a:	f8c3 8048 	str.w	r8, [r3, #72]	@ 0x48
      status = XSPI_WaitFlagStateUntilTimeout(hxspi, HAL_XSPI_FLAG_SM, SET, tickstart, Timeout);
3418747e:	9600      	str	r6, [sp, #0]
34187480:	464b      	mov	r3, r9
34187482:	2201      	movs	r2, #1
34187484:	2108      	movs	r1, #8
34187486:	4620      	mov	r0, r4
34187488:	f7ff fe72 	bl	34187170 <XSPI_WaitFlagStateUntilTimeout>
      if (status == HAL_OK)
3418748c:	2800      	cmp	r0, #0
3418748e:	d1be      	bne.n	3418740e <HAL_XSPI_AutoPolling+0x26>
        HAL_XSPI_CLEAR_FLAG(hxspi, HAL_XSPI_FLAG_SM);
34187490:	6823      	ldr	r3, [r4, #0]
34187492:	2208      	movs	r2, #8
34187494:	625a      	str	r2, [r3, #36]	@ 0x24
        hxspi->State = HAL_XSPI_STATE_READY;
34187496:	2302      	movs	r3, #2
34187498:	65a3      	str	r3, [r4, #88]	@ 0x58
3418749a:	e7b8      	b.n	3418740e <HAL_XSPI_AutoPolling+0x26>
          WRITE_REG(hxspi->Instance->IR, ir_reg);
3418749c:	f8c3 5110 	str.w	r5, [r3, #272]	@ 0x110
341874a0:	e7ed      	b.n	3418747e <HAL_XSPI_AutoPolling+0x96>
      status = HAL_BUSY;
341874a2:	2002      	movs	r0, #2
341874a4:	e7b3      	b.n	3418740e <HAL_XSPI_AutoPolling+0x26>

341874a6 <HAL_XSPI_MemoryMapped>:
{
341874a6:	b570      	push	{r4, r5, r6, lr}
341874a8:	b082      	sub	sp, #8
341874aa:	4604      	mov	r4, r0
341874ac:	460d      	mov	r5, r1
  uint32_t tickstart = HAL_GetTick();
341874ae:	f000 fa65 	bl	3418797c <HAL_GetTick>
  if (hxspi->State == HAL_XSPI_STATE_CMD_CFG)
341874b2:	6da3      	ldr	r3, [r4, #88]	@ 0x58
341874b4:	2b04      	cmp	r3, #4
341874b6:	d004      	beq.n	341874c2 <HAL_XSPI_MemoryMapped+0x1c>
    hxspi->ErrorCode = HAL_XSPI_ERROR_INVALID_SEQUENCE;
341874b8:	2310      	movs	r3, #16
341874ba:	65e3      	str	r3, [r4, #92]	@ 0x5c
    status = HAL_ERROR;
341874bc:	2001      	movs	r0, #1
}
341874be:	b002      	add	sp, #8
341874c0:	bd70      	pop	{r4, r5, r6, pc}
    status = XSPI_WaitFlagStateUntilTimeout(hxspi, HAL_XSPI_FLAG_BUSY, RESET, tickstart, hxspi->Timeout);
341874c2:	6e23      	ldr	r3, [r4, #96]	@ 0x60
341874c4:	9300      	str	r3, [sp, #0]
341874c6:	4603      	mov	r3, r0
341874c8:	2200      	movs	r2, #0
341874ca:	2120      	movs	r1, #32
341874cc:	4620      	mov	r0, r4
341874ce:	f7ff fe4f 	bl	34187170 <XSPI_WaitFlagStateUntilTimeout>
    if (status == HAL_OK)
341874d2:	2800      	cmp	r0, #0
341874d4:	d1f3      	bne.n	341874be <HAL_XSPI_MemoryMapped+0x18>
      hxspi->State = HAL_XSPI_STATE_BUSY_MEM_MAPPED;
341874d6:	2388      	movs	r3, #136	@ 0x88
341874d8:	65a3      	str	r3, [r4, #88]	@ 0x58
      if (pCfg->NoPrefetchData == HAL_XSPI_AUTOMATIC_PREFETCH_DISABLE)
341874da:	68ab      	ldr	r3, [r5, #8]
341874dc:	f1b3 7f00 	cmp.w	r3, #33554432	@ 0x2000000
341874e0:	d016      	beq.n	34187510 <HAL_XSPI_MemoryMapped+0x6a>
        MODIFY_REG(hxspi->Instance->CR, (XSPI_CR_NOPREF | XSPI_CR_NOPREF_AXI),
341874e2:	6821      	ldr	r1, [r4, #0]
341874e4:	680a      	ldr	r2, [r1, #0]
341874e6:	f022 62c0 	bic.w	r2, r2, #100663296	@ 0x6000000
341874ea:	68ee      	ldr	r6, [r5, #12]
341874ec:	4333      	orrs	r3, r6
341874ee:	4313      	orrs	r3, r2
341874f0:	600b      	str	r3, [r1, #0]
      if (pCfg->TimeOutActivation == HAL_XSPI_TIMEOUT_COUNTER_ENABLE)
341874f2:	682b      	ldr	r3, [r5, #0]
341874f4:	2b08      	cmp	r3, #8
341874f6:	d012      	beq.n	3418751e <HAL_XSPI_MemoryMapped+0x78>
      MODIFY_REG(hxspi->Instance->CR, (XSPI_CR_TCEN | XSPI_CR_FMODE),
341874f8:	6822      	ldr	r2, [r4, #0]
341874fa:	6813      	ldr	r3, [r2, #0]
341874fc:	f023 5340 	bic.w	r3, r3, #805306368	@ 0x30000000
34187500:	f023 0308 	bic.w	r3, r3, #8
34187504:	6829      	ldr	r1, [r5, #0]
34187506:	430b      	orrs	r3, r1
34187508:	f043 5340 	orr.w	r3, r3, #805306368	@ 0x30000000
3418750c:	6013      	str	r3, [r2, #0]
3418750e:	e7d6      	b.n	341874be <HAL_XSPI_MemoryMapped+0x18>
        MODIFY_REG(hxspi->Instance->CR, XSPI_CR_NOPREF, pCfg->NoPrefetchData);
34187510:	6821      	ldr	r1, [r4, #0]
34187512:	680a      	ldr	r2, [r1, #0]
34187514:	f022 7200 	bic.w	r2, r2, #33554432	@ 0x2000000
34187518:	4313      	orrs	r3, r2
3418751a:	600b      	str	r3, [r1, #0]
3418751c:	e7e9      	b.n	341874f2 <HAL_XSPI_MemoryMapped+0x4c>
        WRITE_REG(hxspi->Instance->LPTR, pCfg->TimeoutPeriodClock);
3418751e:	6823      	ldr	r3, [r4, #0]
34187520:	686a      	ldr	r2, [r5, #4]
34187522:	f8c3 2130 	str.w	r2, [r3, #304]	@ 0x130
        HAL_XSPI_CLEAR_FLAG(hxspi, HAL_XSPI_FLAG_TO);
34187526:	6823      	ldr	r3, [r4, #0]
34187528:	2210      	movs	r2, #16
3418752a:	625a      	str	r2, [r3, #36]	@ 0x24
        HAL_XSPI_ENABLE_IT(hxspi, HAL_XSPI_IT_TO);
3418752c:	6822      	ldr	r2, [r4, #0]
3418752e:	6813      	ldr	r3, [r2, #0]
34187530:	f443 1380 	orr.w	r3, r3, #1048576	@ 0x100000
34187534:	6013      	str	r3, [r2, #0]
34187536:	e7df      	b.n	341874f8 <HAL_XSPI_MemoryMapped+0x52>

34187538 <HAL_XSPI_Abort>:
{
34187538:	b530      	push	{r4, r5, lr}
3418753a:	b083      	sub	sp, #12
3418753c:	4604      	mov	r4, r0
  uint32_t tickstart = HAL_GetTick();
3418753e:	f000 fa1d 	bl	3418797c <HAL_GetTick>
  if (hxspi->State != HAL_XSPI_STATE_RESET)
34187542:	6da2      	ldr	r2, [r4, #88]	@ 0x58
34187544:	2a00      	cmp	r2, #0
34187546:	d045      	beq.n	341875d4 <HAL_XSPI_Abort+0x9c>
34187548:	4605      	mov	r5, r0
    if ((hxspi->Instance->CR & XSPI_CR_DMAEN) != 0U)
3418754a:	6823      	ldr	r3, [r4, #0]
3418754c:	681a      	ldr	r2, [r3, #0]
3418754e:	f012 0f04 	tst.w	r2, #4
34187552:	d10c      	bne.n	3418756e <HAL_XSPI_Abort+0x36>
  HAL_StatusTypeDef status = HAL_OK;
34187554:	2000      	movs	r0, #0
    if (HAL_XSPI_GET_FLAG(hxspi, HAL_XSPI_FLAG_BUSY) != RESET)
34187556:	6822      	ldr	r2, [r4, #0]
34187558:	6a13      	ldr	r3, [r2, #32]
3418755a:	f013 0f20 	tst.w	r3, #32
3418755e:	d118      	bne.n	34187592 <HAL_XSPI_Abort+0x5a>
      CLEAR_BIT(hxspi->Instance->CR, XSPI_CR_FMODE);
34187560:	6813      	ldr	r3, [r2, #0]
34187562:	f023 5340 	bic.w	r3, r3, #805306368	@ 0x30000000
34187566:	6013      	str	r3, [r2, #0]
      hxspi->State = HAL_XSPI_STATE_READY;
34187568:	2302      	movs	r3, #2
3418756a:	65a3      	str	r3, [r4, #88]	@ 0x58
3418756c:	e035      	b.n	341875da <HAL_XSPI_Abort+0xa2>
      CLEAR_BIT(hxspi->Instance->CR, XSPI_CR_DMAEN);
3418756e:	681a      	ldr	r2, [r3, #0]
34187570:	f022 0204 	bic.w	r2, r2, #4
34187574:	601a      	str	r2, [r3, #0]
      status = HAL_DMA_Abort(hxspi->hdmatx);
34187576:	6d20      	ldr	r0, [r4, #80]	@ 0x50
34187578:	f7f9 fee2 	bl	34181340 <HAL_DMA_Abort>
      if (status != HAL_OK)
3418757c:	b108      	cbz	r0, 34187582 <HAL_XSPI_Abort+0x4a>
        hxspi->ErrorCode = HAL_XSPI_ERROR_DMA;
3418757e:	2304      	movs	r3, #4
34187580:	65e3      	str	r3, [r4, #92]	@ 0x5c
      status = HAL_DMA_Abort(hxspi->hdmarx);
34187582:	6d60      	ldr	r0, [r4, #84]	@ 0x54
34187584:	f7f9 fedc 	bl	34181340 <HAL_DMA_Abort>
      if (status != HAL_OK)
34187588:	2800      	cmp	r0, #0
3418758a:	d0e4      	beq.n	34187556 <HAL_XSPI_Abort+0x1e>
        hxspi->ErrorCode = HAL_XSPI_ERROR_DMA;
3418758c:	2304      	movs	r3, #4
3418758e:	65e3      	str	r3, [r4, #92]	@ 0x5c
34187590:	e7e1      	b.n	34187556 <HAL_XSPI_Abort+0x1e>
      SET_BIT(hxspi->Instance->CR, XSPI_CR_ABORT);
34187592:	6813      	ldr	r3, [r2, #0]
34187594:	f043 0302 	orr.w	r3, r3, #2
34187598:	6013      	str	r3, [r2, #0]
      status = XSPI_WaitFlagStateUntilTimeout(hxspi, HAL_XSPI_FLAG_TC, SET, tickstart, hxspi->Timeout);
3418759a:	6e23      	ldr	r3, [r4, #96]	@ 0x60
3418759c:	9300      	str	r3, [sp, #0]
3418759e:	462b      	mov	r3, r5
341875a0:	2201      	movs	r2, #1
341875a2:	2102      	movs	r1, #2
341875a4:	4620      	mov	r0, r4
341875a6:	f7ff fde3 	bl	34187170 <XSPI_WaitFlagStateUntilTimeout>
      if (status == HAL_OK)
341875aa:	b9b0      	cbnz	r0, 341875da <HAL_XSPI_Abort+0xa2>
        HAL_XSPI_CLEAR_FLAG(hxspi, HAL_XSPI_FLAG_TC);
341875ac:	6823      	ldr	r3, [r4, #0]
341875ae:	2202      	movs	r2, #2
341875b0:	625a      	str	r2, [r3, #36]	@ 0x24
        status = XSPI_WaitFlagStateUntilTimeout(hxspi, HAL_XSPI_FLAG_BUSY, RESET, tickstart, hxspi->Timeout);
341875b2:	6e23      	ldr	r3, [r4, #96]	@ 0x60
341875b4:	9300      	str	r3, [sp, #0]
341875b6:	462b      	mov	r3, r5
341875b8:	2200      	movs	r2, #0
341875ba:	2120      	movs	r1, #32
341875bc:	4620      	mov	r0, r4
341875be:	f7ff fdd7 	bl	34187170 <XSPI_WaitFlagStateUntilTimeout>
        if (status == HAL_OK)
341875c2:	b950      	cbnz	r0, 341875da <HAL_XSPI_Abort+0xa2>
          CLEAR_BIT(hxspi->Instance->CR, XSPI_CR_FMODE);
341875c4:	6822      	ldr	r2, [r4, #0]
341875c6:	6813      	ldr	r3, [r2, #0]
341875c8:	f023 5340 	bic.w	r3, r3, #805306368	@ 0x30000000
341875cc:	6013      	str	r3, [r2, #0]
          hxspi->State = HAL_XSPI_STATE_READY;
341875ce:	2302      	movs	r3, #2
341875d0:	65a3      	str	r3, [r4, #88]	@ 0x58
341875d2:	e002      	b.n	341875da <HAL_XSPI_Abort+0xa2>
    hxspi->ErrorCode = HAL_XSPI_ERROR_INVALID_SEQUENCE;
341875d4:	2310      	movs	r3, #16
341875d6:	65e3      	str	r3, [r4, #92]	@ 0x5c
    status = HAL_ERROR;
341875d8:	2001      	movs	r0, #1
}
341875da:	b003      	add	sp, #12
341875dc:	bd30      	pop	{r4, r5, pc}

341875de <HAL_XSPI_SetTimeout>:
  hxspi->Timeout = Timeout;
341875de:	6601      	str	r1, [r0, #96]	@ 0x60
}
341875e0:	2000      	movs	r0, #0
341875e2:	4770      	bx	lr

341875e4 <HAL_XSPI_Init>:
{
341875e4:	b530      	push	{r4, r5, lr}
341875e6:	b083      	sub	sp, #12
341875e8:	4604      	mov	r4, r0
  uint32_t tickstart = HAL_GetTick();
341875ea:	f000 f9c7 	bl	3418797c <HAL_GetTick>
  if (hxspi == NULL)
341875ee:	2c00      	cmp	r4, #0
341875f0:	f000 80a9 	beq.w	34187746 <HAL_XSPI_Init+0x162>
341875f4:	4605      	mov	r5, r0
    hxspi->ErrorCode = HAL_XSPI_ERROR_NONE;
341875f6:	2300      	movs	r3, #0
341875f8:	65e3      	str	r3, [r4, #92]	@ 0x5c
    if (hxspi->State == HAL_XSPI_STATE_RESET)
341875fa:	6da3      	ldr	r3, [r4, #88]	@ 0x58
341875fc:	b113      	cbz	r3, 34187604 <HAL_XSPI_Init+0x20>
  HAL_StatusTypeDef status = HAL_OK;
341875fe:	2000      	movs	r0, #0
}
34187600:	b003      	add	sp, #12
34187602:	bd30      	pop	{r4, r5, pc}
      HAL_XSPI_MspInit(hxspi);
34187604:	4620      	mov	r0, r4
34187606:	f7f9 fb7b 	bl	34180d00 <HAL_XSPI_MspInit>
      (void)HAL_XSPI_SetTimeout(hxspi, HAL_XSPI_TIMEOUT_DEFAULT_VALUE);
3418760a:	f241 3188 	movw	r1, #5000	@ 0x1388
3418760e:	4620      	mov	r0, r4
34187610:	f7ff ffe5 	bl	341875de <HAL_XSPI_SetTimeout>
      MODIFY_REG(hxspi->Instance->DCR1,
34187614:	6820      	ldr	r0, [r4, #0]
34187616:	6883      	ldr	r3, [r0, #8]
34187618:	4a4c      	ldr	r2, [pc, #304]	@ (3418774c <HAL_XSPI_Init+0x168>)
3418761a:	401a      	ands	r2, r3
3418761c:	68e3      	ldr	r3, [r4, #12]
3418761e:	6921      	ldr	r1, [r4, #16]
34187620:	ea43 4301 	orr.w	r3, r3, r1, lsl #16
34187624:	6961      	ldr	r1, [r4, #20]
34187626:	3901      	subs	r1, #1
34187628:	ea43 2301 	orr.w	r3, r3, r1, lsl #8
3418762c:	69e1      	ldr	r1, [r4, #28]
3418762e:	430b      	orrs	r3, r1
34187630:	431a      	orrs	r2, r3
34187632:	6082      	str	r2, [r0, #8]
      MODIFY_REG(hxspi->Instance->DCR2, XSPI_DCR2_WRAPSIZE, hxspi->Init.WrapSize);
34187634:	6822      	ldr	r2, [r4, #0]
34187636:	68d3      	ldr	r3, [r2, #12]
34187638:	f423 23e0 	bic.w	r3, r3, #458752	@ 0x70000
3418763c:	6a21      	ldr	r1, [r4, #32]
3418763e:	430b      	orrs	r3, r1
34187640:	60d3      	str	r3, [r2, #12]
      MODIFY_REG(hxspi->Instance->DCR3, XSPI_DCR3_CSBOUND, (hxspi->Init.ChipSelectBoundary << XSPI_DCR3_CSBOUND_Pos));
34187642:	6822      	ldr	r2, [r4, #0]
34187644:	6913      	ldr	r3, [r2, #16]
34187646:	f423 13f8 	bic.w	r3, r3, #2031616	@ 0x1f0000
3418764a:	6b21      	ldr	r1, [r4, #48]	@ 0x30
3418764c:	ea43 4301 	orr.w	r3, r3, r1, lsl #16
34187650:	6113      	str	r3, [r2, #16]
      MODIFY_REG(hxspi->Instance->DCR3, XSPI_DCR3_MAXTRAN, \
34187652:	6822      	ldr	r2, [r4, #0]
34187654:	6913      	ldr	r3, [r2, #16]
34187656:	f023 03ff 	bic.w	r3, r3, #255	@ 0xff
3418765a:	6b61      	ldr	r1, [r4, #52]	@ 0x34
3418765c:	430b      	orrs	r3, r1
3418765e:	6113      	str	r3, [r2, #16]
      hxspi->Instance->DCR4 = hxspi->Init.Refresh;
34187660:	6823      	ldr	r3, [r4, #0]
34187662:	6ba2      	ldr	r2, [r4, #56]	@ 0x38
34187664:	615a      	str	r2, [r3, #20]
      MODIFY_REG(hxspi->Instance->CR, XSPI_CR_FTHRES, ((hxspi->Init.FifoThresholdByte - 1U) << XSPI_CR_FTHRES_Pos));
34187666:	6821      	ldr	r1, [r4, #0]
34187668:	680b      	ldr	r3, [r1, #0]
3418766a:	f423 537c 	bic.w	r3, r3, #16128	@ 0x3f00
3418766e:	6862      	ldr	r2, [r4, #4]
34187670:	3a01      	subs	r2, #1
34187672:	ea43 2302 	orr.w	r3, r3, r2, lsl #8
34187676:	600b      	str	r3, [r1, #0]
      status = XSPI_WaitFlagStateUntilTimeout(hxspi, HAL_XSPI_FLAG_BUSY, RESET, tickstart, hxspi->Timeout);
34187678:	6e23      	ldr	r3, [r4, #96]	@ 0x60
3418767a:	9300      	str	r3, [sp, #0]
3418767c:	462b      	mov	r3, r5
3418767e:	2200      	movs	r2, #0
34187680:	2120      	movs	r1, #32
34187682:	4620      	mov	r0, r4
34187684:	f7ff fd74 	bl	34187170 <XSPI_WaitFlagStateUntilTimeout>
      if (status == HAL_OK)
34187688:	2800      	cmp	r0, #0
3418768a:	d1b9      	bne.n	34187600 <HAL_XSPI_Init+0x1c>
        MODIFY_REG(hxspi->Instance->DCR2, XSPI_DCR2_PRESCALER,
3418768c:	6822      	ldr	r2, [r4, #0]
3418768e:	68d3      	ldr	r3, [r2, #12]
34187690:	f023 03ff 	bic.w	r3, r3, #255	@ 0xff
34187694:	6a61      	ldr	r1, [r4, #36]	@ 0x24
34187696:	430b      	orrs	r3, r1
34187698:	60d3      	str	r3, [r2, #12]
        if (IS_XSPI_ALL_INSTANCE(hxspi->Instance))
3418769a:	6823      	ldr	r3, [r4, #0]
3418769c:	4a2c      	ldr	r2, [pc, #176]	@ (34187750 <HAL_XSPI_Init+0x16c>)
3418769e:	4293      	cmp	r3, r2
341876a0:	d011      	beq.n	341876c6 <HAL_XSPI_Init+0xe2>
341876a2:	f102 4270 	add.w	r2, r2, #4026531840	@ 0xf0000000
341876a6:	4293      	cmp	r3, r2
341876a8:	d00d      	beq.n	341876c6 <HAL_XSPI_Init+0xe2>
341876aa:	4a2a      	ldr	r2, [pc, #168]	@ (34187754 <HAL_XSPI_Init+0x170>)
341876ac:	4293      	cmp	r3, r2
341876ae:	d00a      	beq.n	341876c6 <HAL_XSPI_Init+0xe2>
341876b0:	f102 4270 	add.w	r2, r2, #4026531840	@ 0xf0000000
341876b4:	4293      	cmp	r3, r2
341876b6:	d006      	beq.n	341876c6 <HAL_XSPI_Init+0xe2>
341876b8:	4a27      	ldr	r2, [pc, #156]	@ (34187758 <HAL_XSPI_Init+0x174>)
341876ba:	4293      	cmp	r3, r2
341876bc:	d003      	beq.n	341876c6 <HAL_XSPI_Init+0xe2>
341876be:	f102 4270 	add.w	r2, r2, #4026531840	@ 0xf0000000
341876c2:	4293      	cmp	r3, r2
341876c4:	d109      	bne.n	341876da <HAL_XSPI_Init+0xf6>
          status = XSPI_WaitFlagStateUntilTimeout(hxspi, HAL_XSPI_FLAG_BUSY, RESET, tickstart, hxspi->Timeout);
341876c6:	6e23      	ldr	r3, [r4, #96]	@ 0x60
341876c8:	9300      	str	r3, [sp, #0]
341876ca:	462b      	mov	r3, r5
341876cc:	2200      	movs	r2, #0
341876ce:	2120      	movs	r1, #32
341876d0:	4620      	mov	r0, r4
341876d2:	f7ff fd4d 	bl	34187170 <XSPI_WaitFlagStateUntilTimeout>
          if (status != HAL_OK)
341876d6:	2800      	cmp	r0, #0
341876d8:	d192      	bne.n	34187600 <HAL_XSPI_Init+0x1c>
        MODIFY_REG(hxspi->Instance->CR, (XSPI_CR_DMM | XSPI_CR_CSSEL),
341876da:	6821      	ldr	r1, [r4, #0]
341876dc:	680b      	ldr	r3, [r1, #0]
341876de:	f023 7380 	bic.w	r3, r3, #16777216	@ 0x1000000
341876e2:	f023 0340 	bic.w	r3, r3, #64	@ 0x40
341876e6:	68a2      	ldr	r2, [r4, #8]
341876e8:	6be5      	ldr	r5, [r4, #60]	@ 0x3c
341876ea:	432a      	orrs	r2, r5
341876ec:	4313      	orrs	r3, r2
341876ee:	600b      	str	r3, [r1, #0]
        MODIFY_REG(hxspi->Instance->TCR, (XSPI_TCR_SSHIFT), hxspi->Init.SampleShifting);
341876f0:	6822      	ldr	r2, [r4, #0]
341876f2:	f8d2 3108 	ldr.w	r3, [r2, #264]	@ 0x108
341876f6:	f023 4380 	bic.w	r3, r3, #1073741824	@ 0x40000000
341876fa:	6aa1      	ldr	r1, [r4, #40]	@ 0x28
341876fc:	430b      	orrs	r3, r1
341876fe:	f8c2 3108 	str.w	r3, [r2, #264]	@ 0x108
        HAL_XSPI_ENABLE(hxspi);
34187702:	6822      	ldr	r2, [r4, #0]
34187704:	6813      	ldr	r3, [r2, #0]
34187706:	f043 0301 	orr.w	r3, r3, #1
3418770a:	6013      	str	r3, [r2, #0]
        if (hxspi->Init.FreeRunningClock == HAL_XSPI_FREERUNCLK_ENABLE)
3418770c:	69a3      	ldr	r3, [r4, #24]
3418770e:	2b02      	cmp	r3, #2
34187710:	d00a      	beq.n	34187728 <HAL_XSPI_Init+0x144>
        if (hxspi->Init.MemoryExtended == HAL_XSPI_CSSEL_HW)
34187712:	6c23      	ldr	r3, [r4, #64]	@ 0x40
34187714:	f5b3 1f00 	cmp.w	r3, #2097152	@ 0x200000
34187718:	d00c      	beq.n	34187734 <HAL_XSPI_Init+0x150>
        if (hxspi->Init.MemoryType == HAL_XSPI_MEMTYPE_HYPERBUS)
3418771a:	68e3      	ldr	r3, [r4, #12]
3418771c:	f1b3 6f80 	cmp.w	r3, #67108864	@ 0x4000000
34187720:	d00e      	beq.n	34187740 <HAL_XSPI_Init+0x15c>
          hxspi->State = HAL_XSPI_STATE_READY;
34187722:	2302      	movs	r3, #2
34187724:	65a3      	str	r3, [r4, #88]	@ 0x58
34187726:	e76b      	b.n	34187600 <HAL_XSPI_Init+0x1c>
          SET_BIT(hxspi->Instance->DCR1, XSPI_DCR1_FRCK);
34187728:	6822      	ldr	r2, [r4, #0]
3418772a:	6893      	ldr	r3, [r2, #8]
3418772c:	f043 0302 	orr.w	r3, r3, #2
34187730:	6093      	str	r3, [r2, #8]
34187732:	e7ee      	b.n	34187712 <HAL_XSPI_Init+0x12e>
          SET_BIT(hxspi->Instance->DCR1, XSPI_DCR1_EXTENDMEM);
34187734:	6822      	ldr	r2, [r4, #0]
34187736:	6893      	ldr	r3, [r2, #8]
34187738:	f443 1300 	orr.w	r3, r3, #2097152	@ 0x200000
3418773c:	6093      	str	r3, [r2, #8]
3418773e:	e7ec      	b.n	3418771a <HAL_XSPI_Init+0x136>
          hxspi->State = HAL_XSPI_STATE_HYPERBUS_INIT;
34187740:	2301      	movs	r3, #1
34187742:	65a3      	str	r3, [r4, #88]	@ 0x58
34187744:	e75c      	b.n	34187600 <HAL_XSPI_Init+0x1c>
    status = HAL_ERROR;
34187746:	2001      	movs	r0, #1
34187748:	e75a      	b.n	34187600 <HAL_XSPI_Init+0x1c>
3418774a:	bf00      	nop
3418774c:	f8e0c0fc 	.word	0xf8e0c0fc
34187750:	58025000 	.word	0x58025000
34187754:	5802a000 	.word	0x5802a000
34187758:	5802d000 	.word	0x5802d000

3418775c <memory_write>:
  * @param   Size   : size of data
  * @param   buffer : pointer to data buffer
  * @retval  Operation status @ref MEM_MAPSTAT
  */
__weak MEM_STATUS memory_write(uint32_t Address, uint32_t Size, uint8_t* buffer)
{
3418775c:	b508      	push	{r3, lr}
3418775e:	460b      	mov	r3, r1
  MEM_STATUS retr = MEM_OK; /* No error returned */
  uint32_t addr = Address & 0x0FFFFFFFUL;

  if (EXTMEM_Write(STM32EXTLOADER_DEVICE_MEMORY_ID, addr, buffer, Size) != EXTMEM_OK)
34187760:	f020 4170 	bic.w	r1, r0, #4026531840	@ 0xf0000000
34187764:	2000      	movs	r0, #0
34187766:	f000 f93d 	bl	341879e4 <EXTMEM_Write>
3418776a:	b100      	cbz	r0, 3418776e <memory_write+0x12>
  {
    retr = MEM_FAIL;
3418776c:	2001      	movs	r0, #1
  }

  return retr;
}
3418776e:	bd08      	pop	{r3, pc}

34187770 <memory_masserase>:
/**
  * @brief    Full erase of the device
  * @retval  Operation status @ref MEM_MAPSTAT
  */
__weak MEM_STATUS memory_masserase(void)
{
34187770:	b508      	push	{r3, lr}
  MEM_STATUS retr = MEM_OK;
  if (EXTMEM_EraseAll(STM32EXTLOADER_DEVICE_MEMORY_ID) != EXTMEM_OK)
34187772:	2000      	movs	r0, #0
34187774:	f000 f9d8 	bl	34187b28 <EXTMEM_EraseAll>
34187778:	b100      	cbz	r0, 3418777c <memory_masserase+0xc>
  {
    retr = MEM_FAIL;
3418777a:	2001      	movs	r0, #1
  }

  return retr;
}
3418777c:	bd08      	pop	{r3, pc}

3418777e <memory_sectorerase>:
  * @param   EraseEndAddress   :  erase end address
  * @param   SectorSize        :  sector size
  * @retval  Operation status @ref MEM_MAPSTAT
  */
__weak MEM_STATUS memory_sectorerase(uint32_t EraseStartAddress, uint32_t EraseEndAddress, uint32_t SectorSize)
{
3418777e:	b5f8      	push	{r3, r4, r5, r6, r7, lr}
34187780:	4615      	mov	r5, r2
  uint32_t start_addr = EraseStartAddress & 0x0FFFFFFFUL;
34187782:	f020 4470 	bic.w	r4, r0, #4026531840	@ 0xf0000000
  uint32_t end_addr = (EraseEndAddress & 0x0FFFFFFFUL)+SectorSize;
34187786:	f021 4170 	bic.w	r1, r1, #4026531840	@ 0xf0000000
3418778a:	188f      	adds	r7, r1, r2
  MEM_STATUS retr = MEM_OK;
3418778c:	2600      	movs	r6, #0
3418778e:	e003      	b.n	34187798 <memory_sectorerase+0x1a>
  {
    if (EXTMEM_EraseSector(STM32EXTLOADER_DEVICE_MEMORY_ID, start_addr, SectorSize) != EXTMEM_OK)
    {
      retr = MEM_FAIL;
    }
    start_addr = start_addr + SectorSize;
34187790:	442c      	add	r4, r5
  }while ((end_addr > start_addr) && (retr == MEM_OK));
34187792:	42a7      	cmp	r7, r4
34187794:	d909      	bls.n	341877aa <memory_sectorerase+0x2c>
34187796:	b946      	cbnz	r6, 341877aa <memory_sectorerase+0x2c>
    if (EXTMEM_EraseSector(STM32EXTLOADER_DEVICE_MEMORY_ID, start_addr, SectorSize) != EXTMEM_OK)
34187798:	462a      	mov	r2, r5
3418779a:	4621      	mov	r1, r4
3418779c:	2000      	movs	r0, #0
3418779e:	f000 f93f 	bl	34187a20 <EXTMEM_EraseSector>
341877a2:	2800      	cmp	r0, #0
341877a4:	d0f4      	beq.n	34187790 <memory_sectorerase+0x12>
      retr = MEM_FAIL;
341877a6:	2601      	movs	r6, #1
341877a8:	e7f2      	b.n	34187790 <memory_sectorerase+0x12>

  return retr;
}
341877aa:	4630      	mov	r0, r6
341877ac:	bdf8      	pop	{r3, r4, r5, r6, r7, pc}

341877ae <memory_mapmode>:
  * @brief   enable/disable memory mapped mode.
  * @param   State @ref MEM_MAPSTAT
  * @retval  Operation status @ref MEM_MAPSTAT
  */
__weak MEM_STATUS memory_mapmode(MEM_MAPSTAT State)
{
341877ae:	b508      	push	{r3, lr}
  MEM_STATUS retr = MEM_OK;
  if (EXTMEM_MemoryMappedMode(STM32EXTLOADER_DEVICE_MEMORY_ID, State == MEM_MAPENABLE ? EXTMEM_ENABLE: EXTMEM_DISABLE) != EXTMEM_OK)
341877b0:	1e41      	subs	r1, r0, #1
341877b2:	bf18      	it	ne
341877b4:	2101      	movne	r1, #1
341877b6:	2000      	movs	r0, #0
341877b8:	f000 f9d4 	bl	34187b64 <EXTMEM_MemoryMappedMode>
341877bc:	b100      	cbz	r0, 341877c0 <memory_mapmode+0x12>
  {
    retr = MEM_FAIL;
341877be:	2001      	movs	r0, #1
  }
  return retr;
}
341877c0:	bd08      	pop	{r3, pc}
	...

341877c4 <Reset_Handler>:
uint32_t g_pfnVectors[] __attribute__((section(".isr_vector"))) = {
};
void __attribute__((used,optimize("Os"))) Reset_Handler(void)
{

  asm(
341877c4:	4803      	ldr	r0, [pc, #12]	@ (341877d4 <Reset_Handler+0x10>)
341877c6:	bf00      	nop
341877c8:	4685      	mov	sp, r0
      "ldr r0, =_estack\n"
      "nop\n"
      "mov     sp, r0\n");

  asm(
341877ca:	4803      	ldr	r0, [pc, #12]	@ (341877d8 <Reset_Handler+0x14>)
341877cc:	bf00      	nop
341877ce:	4687      	mov	pc, r0
      "ldr r0, =main\n"
      "nop\n"
      "mov     pc, r0\n");
}
341877d0:	4770      	bx	lr
341877d2:	0000      	.short	0x0000
341877d4:	341a0400 	.word	0x341a0400
341877d8:	341878b9 	.word	0x341878b9

341877dc <Init>:
/**
 * @brief  System initialization.
  * @retval  1: Operation succeeded or 0: Operation failed
 */
uint32_t Init(void)
{
341877dc:	b508      	push	{r3, lr}

  startadd = (uint8_t *)&Image$$PrgData$$ZI$$Base;
  size     = (uint32_t)&Image$$PrgData$$ZI$$Limit - (uint32_t)startadd;
#elif defined ( __GNUC__ )
  startadd = (uint8_t*)& __bss_start__;
  size     = (uint8_t*)& __bss_end__ - (uint8_t*)& __bss_start__;
341877de:	4809      	ldr	r0, [pc, #36]	@ (34187804 <Init+0x28>)
#else
#error "the compiler is not yet supported"
#endif /* __ICCARM__ */

  /*  Init variables to zero */
  memset(startadd, 0, size * sizeof(uint8_t));
341877e0:	4a09      	ldr	r2, [pc, #36]	@ (34187808 <Init+0x2c>)
341877e2:	1a12      	subs	r2, r2, r0
341877e4:	2100      	movs	r1, #0
341877e6:	f001 fffd 	bl	341897e4 <memset>

  extmemloader_Init();
341877ea:	f7f9 fa2f 	bl	34180c4c <extmemloader_Init>

  /* Enable default memory mapped mode */
  if (memory_mapmode(MEM_MAPENABLE)  != MEM_OK)
341877ee:	2001      	movs	r0, #1
341877f0:	f7ff ffdd 	bl	341877ae <memory_mapmode>
341877f4:	b920      	cbnz	r0, 34187800 <Init+0x24>
  uint32_t retr = 1;
341877f6:	2001      	movs	r0, #1
  {
    retr = 0;
  }

  MemoryMappedMode = MEM_MAPENABLE;
341877f8:	4b04      	ldr	r3, [pc, #16]	@ (3418780c <Init+0x30>)
341877fa:	2201      	movs	r2, #1
341877fc:	701a      	strb	r2, [r3, #0]

  return retr;
}
341877fe:	bd08      	pop	{r3, pc}
    retr = 0;
34187800:	2000      	movs	r0, #0
34187802:	e7f9      	b.n	341877f8 <Init+0x1c>
34187804:	34180700 	.word	0x34180700
34187808:	34180ab8 	.word	0x34180ab8
3418780c:	34180784 	.word	0x34180784

34187810 <Write>:
 * @param   buffer : pointer to data buffer
 * @retval  1      : Operation succeeded
 * @retval  0      : Operation failed
 */
KeepInCompilation uint32_t Write(uint32_t Address, uint32_t Size, uint8_t *buffer)
{
34187810:	b570      	push	{r4, r5, r6, lr}
34187812:	4606      	mov	r6, r0
34187814:	460d      	mov	r5, r1
34187816:	4614      	mov	r4, r2
  STM32_EXTMEMLOADER_TRACE("\n\nCall Function Write\n");

  /* Disable memory mapped mode if enabled */
  if (MemoryMappedMode == MEM_MAPENABLE)
34187818:	4b0b      	ldr	r3, [pc, #44]	@ (34187848 <Write+0x38>)
3418781a:	781b      	ldrb	r3, [r3, #0]
3418781c:	2b01      	cmp	r3, #1
3418781e:	d007      	beq.n	34187830 <Write+0x20>
      return 0;
    }
    MemoryMappedMode = MEM_MAPDISABLE;
  }

  if (memory_write(Address, Size, buffer) != MEM_OK)
34187820:	4622      	mov	r2, r4
34187822:	4629      	mov	r1, r5
34187824:	4630      	mov	r0, r6
34187826:	f7ff ff99 	bl	3418775c <memory_write>
3418782a:	b958      	cbnz	r0, 34187844 <Write+0x34>
  {
    return 0;
  }

  return 1;
3418782c:	2001      	movs	r0, #1
}
3418782e:	bd70      	pop	{r4, r5, r6, pc}
    if (memory_mapmode(MEM_MAPDISABLE)  != MEM_OK)
34187830:	2000      	movs	r0, #0
34187832:	f7ff ffbc 	bl	341877ae <memory_mapmode>
34187836:	b918      	cbnz	r0, 34187840 <Write+0x30>
    MemoryMappedMode = MEM_MAPDISABLE;
34187838:	4b03      	ldr	r3, [pc, #12]	@ (34187848 <Write+0x38>)
3418783a:	2200      	movs	r2, #0
3418783c:	701a      	strb	r2, [r3, #0]
3418783e:	e7ef      	b.n	34187820 <Write+0x10>
      return 0;
34187840:	2000      	movs	r0, #0
34187842:	e7f4      	b.n	3418782e <Write+0x1e>
    return 0;
34187844:	2000      	movs	r0, #0
34187846:	e7f2      	b.n	3418782e <Write+0x1e>
34187848:	34180784 	.word	0x34180784

3418784c <MassErase>:
 * @param 	 Parallelism : 0
 * @retval  1           : Operation succeeded
 * @retval  0           : Operation failed
 */
KeepInCompilation uint32_t MassErase(uint32_t Parallelism)
{
3418784c:	b508      	push	{r3, lr}
  STM32_EXTMEMLOADER_TRACE("\n\nCall Function MassErase\n");
  /* Disable memory mapped mode if enabled */
  if (MemoryMappedMode == MEM_MAPENABLE)
3418784e:	4b0a      	ldr	r3, [pc, #40]	@ (34187878 <MassErase+0x2c>)
34187850:	781b      	ldrb	r3, [r3, #0]
34187852:	2b01      	cmp	r3, #1
34187854:	d004      	beq.n	34187860 <MassErase+0x14>
      return 0;
    }
    MemoryMappedMode = MEM_MAPDISABLE;
  }

  if (memory_masserase() != MEM_OK)
34187856:	f7ff ff8b 	bl	34187770 <memory_masserase>
3418785a:	b958      	cbnz	r0, 34187874 <MassErase+0x28>
  {
    return 0;
  }

  return 1;
3418785c:	2001      	movs	r0, #1
}
3418785e:	bd08      	pop	{r3, pc}
    if (memory_mapmode(MEM_MAPDISABLE)  != MEM_OK)
34187860:	2000      	movs	r0, #0
34187862:	f7ff ffa4 	bl	341877ae <memory_mapmode>
34187866:	b918      	cbnz	r0, 34187870 <MassErase+0x24>
    MemoryMappedMode = MEM_MAPDISABLE;
34187868:	4b03      	ldr	r3, [pc, #12]	@ (34187878 <MassErase+0x2c>)
3418786a:	2200      	movs	r2, #0
3418786c:	701a      	strb	r2, [r3, #0]
3418786e:	e7f2      	b.n	34187856 <MassErase+0xa>
      return 0;
34187870:	2000      	movs	r0, #0
34187872:	e7f4      	b.n	3418785e <MassErase+0x12>
    return 0;
34187874:	2000      	movs	r0, #0
34187876:	e7f2      	b.n	3418785e <MassErase+0x12>
34187878:	34180784 	.word	0x34180784

3418787c <SectorErase>:
 * @param   EraseStartAddress :  erase start address
 * @param   EraseEndAddress   :  erase end address
 * @retval  None
 */
KeepInCompilation uint32_t SectorErase(uint32_t EraseStartAddress, uint32_t EraseEndAddress)
{
3418787c:	b538      	push	{r3, r4, r5, lr}
3418787e:	4604      	mov	r4, r0
34187880:	460d      	mov	r5, r1
  STM32_EXTMEMLOADER_TRACE("\n\nCall Function SectorErase\n");
  /* Disable memory mapped mode if enabled */
  if (MemoryMappedMode == MEM_MAPENABLE)
34187882:	4b0c      	ldr	r3, [pc, #48]	@ (341878b4 <SectorErase+0x38>)
34187884:	781b      	ldrb	r3, [r3, #0]
34187886:	2b01      	cmp	r3, #1
34187888:	d008      	beq.n	3418789c <SectorErase+0x20>
      return 0;
    }
    MemoryMappedMode = MEM_MAPDISABLE;
  }

  if (memory_sectorerase(EraseStartAddress, EraseEndAddress, STM32EXTLOADER_DEVICE_SECTOR_SIZE) != MEM_OK)
3418788a:	f44f 3280 	mov.w	r2, #65536	@ 0x10000
3418788e:	4629      	mov	r1, r5
34187890:	4620      	mov	r0, r4
34187892:	f7ff ff74 	bl	3418777e <memory_sectorerase>
34187896:	b958      	cbnz	r0, 341878b0 <SectorErase+0x34>
  {
    return 0;
  }

  return 1;
34187898:	2001      	movs	r0, #1
}
3418789a:	bd38      	pop	{r3, r4, r5, pc}
    if (memory_mapmode(MEM_MAPDISABLE)  != MEM_OK)
3418789c:	2000      	movs	r0, #0
3418789e:	f7ff ff86 	bl	341877ae <memory_mapmode>
341878a2:	b918      	cbnz	r0, 341878ac <SectorErase+0x30>
    MemoryMappedMode = MEM_MAPDISABLE;
341878a4:	4b03      	ldr	r3, [pc, #12]	@ (341878b4 <SectorErase+0x38>)
341878a6:	2200      	movs	r2, #0
341878a8:	701a      	strb	r2, [r3, #0]
341878aa:	e7ee      	b.n	3418788a <SectorErase+0xe>
      return 0;
341878ac:	2000      	movs	r0, #0
341878ae:	e7f4      	b.n	3418789a <SectorErase+0x1e>
    return 0;
341878b0:	2000      	movs	r0, #0
341878b2:	e7f2      	b.n	3418789a <SectorErase+0x1e>
341878b4:	34180784 	.word	0x34180784

341878b8 <main>:
{
341878b8:	b508      	push	{r3, lr}
  exec = DEBUG_STATE_INIT;
341878ba:	4b1e      	ldr	r3, [pc, #120]	@ (34187934 <main+0x7c>)
341878bc:	2201      	movs	r2, #1
341878be:	701a      	strb	r2, [r3, #0]
341878c0:	e008      	b.n	341878d4 <main+0x1c>
      Init();
341878c2:	f7ff ff8b 	bl	341877dc <Init>
      exec = DEBUG_STATE_WAIT;
341878c6:	4b1b      	ldr	r3, [pc, #108]	@ (34187934 <main+0x7c>)
341878c8:	2200      	movs	r2, #0
341878ca:	701a      	strb	r2, [r3, #0]
  } while (condition);
341878cc:	4b1a      	ldr	r3, [pc, #104]	@ (34187938 <main+0x80>)
341878ce:	681b      	ldr	r3, [r3, #0]
341878d0:	2b00      	cmp	r3, #0
341878d2:	d02c      	beq.n	3418792e <main+0x76>
    switch (exec)
341878d4:	4b17      	ldr	r3, [pc, #92]	@ (34187934 <main+0x7c>)
341878d6:	781b      	ldrb	r3, [r3, #0]
341878d8:	3b01      	subs	r3, #1
341878da:	2b03      	cmp	r3, #3
341878dc:	d8f6      	bhi.n	341878cc <main+0x14>
341878de:	a201      	add	r2, pc, #4	@ (adr r2, 341878e4 <main+0x2c>)
341878e0:	f852 f023 	ldr.w	pc, [r2, r3, lsl #2]
341878e4:	341878c3 	.word	0x341878c3
341878e8:	341878f5 	.word	0x341878f5
341878ec:	3418791b 	.word	0x3418791b
341878f0:	3418790d 	.word	0x3418790d
      Write (Address, Size, (uint8_t *)Buff_address);
341878f4:	4b11      	ldr	r3, [pc, #68]	@ (3418793c <main+0x84>)
341878f6:	681a      	ldr	r2, [r3, #0]
341878f8:	4b11      	ldr	r3, [pc, #68]	@ (34187940 <main+0x88>)
341878fa:	6819      	ldr	r1, [r3, #0]
341878fc:	4b11      	ldr	r3, [pc, #68]	@ (34187944 <main+0x8c>)
341878fe:	6818      	ldr	r0, [r3, #0]
34187900:	f7ff ff86 	bl	34187810 <Write>
      exec = DEBUG_STATE_INIT;
34187904:	4b0b      	ldr	r3, [pc, #44]	@ (34187934 <main+0x7c>)
34187906:	2201      	movs	r2, #1
34187908:	701a      	strb	r2, [r3, #0]
      break;
3418790a:	e7df      	b.n	341878cc <main+0x14>
      MassErase(0);
3418790c:	2000      	movs	r0, #0
3418790e:	f7ff ff9d 	bl	3418784c <MassErase>
      exec = DEBUG_STATE_INIT;
34187912:	4b08      	ldr	r3, [pc, #32]	@ (34187934 <main+0x7c>)
34187914:	2201      	movs	r2, #1
34187916:	701a      	strb	r2, [r3, #0]
      break;
34187918:	e7d8      	b.n	341878cc <main+0x14>
      SectorErase(Address,Size);
3418791a:	4b09      	ldr	r3, [pc, #36]	@ (34187940 <main+0x88>)
3418791c:	6819      	ldr	r1, [r3, #0]
3418791e:	4b09      	ldr	r3, [pc, #36]	@ (34187944 <main+0x8c>)
34187920:	6818      	ldr	r0, [r3, #0]
34187922:	f7ff ffab 	bl	3418787c <SectorErase>
      exec = DEBUG_STATE_INIT;
34187926:	4b03      	ldr	r3, [pc, #12]	@ (34187934 <main+0x7c>)
34187928:	2201      	movs	r2, #1
3418792a:	701a      	strb	r2, [r3, #0]
      break;
3418792c:	e7ce      	b.n	341878cc <main+0x14>
}
3418792e:	2000      	movs	r0, #0
34187930:	bd08      	pop	{r3, pc}
34187932:	bf00      	nop
34187934:	34180794 	.word	0x34180794
34187938:	341899ec 	.word	0x341899ec
3418793c:	34180790 	.word	0x34180790
34187940:	34180788 	.word	0x34180788
34187944:	3418078c 	.word	0x3418078c

34187948 <HAL_InitTick>:
  */
HAL_StatusTypeDef HAL_InitTick(uint32_t TickPriority)
{
  HAL_StatusTypeDef retr = HAL_ERROR;
  /* Check uwTickFreq for MisraC 2012 (even if uwTickFreq is a enum type that doesn't take the value zero)*/
  if ((uint32_t)uwTickFreq != 0U)
34187948:	4b0a      	ldr	r3, [pc, #40]	@ (34187974 <HAL_InitTick+0x2c>)
3418794a:	781a      	ldrb	r2, [r3, #0]
3418794c:	b182      	cbz	r2, 34187970 <HAL_InitTick+0x28>
  {
    uint32_t ticks = SystemCoreClock / (1000U / (uint32_t)uwTickFreq);
3418794e:	4b0a      	ldr	r3, [pc, #40]	@ (34187978 <HAL_InitTick+0x30>)
34187950:	681b      	ldr	r3, [r3, #0]
34187952:	f44f 717a 	mov.w	r1, #1000	@ 0x3e8
34187956:	fbb1 f2f2 	udiv	r2, r1, r2
3418795a:	fbb3 f3f2 	udiv	r3, r3, r2
    SysTick->LOAD  = (uint32_t)(ticks - 1UL);      /* Set reload register */
3418795e:	3b01      	subs	r3, #1
34187960:	f04f 22e0 	mov.w	r2, #3758153728	@ 0xe000e000
34187964:	6153      	str	r3, [r2, #20]
    SysTick->VAL   = 0UL;                          /* Load the SysTick Counter Value */
34187966:	2000      	movs	r0, #0
34187968:	6190      	str	r0, [r2, #24]
    SysTick->CTRL  = SysTick_CTRL_CLKSOURCE_Msk |  /* Set processor clock */
3418796a:	2305      	movs	r3, #5
3418796c:	6113      	str	r3, [r2, #16]
                     SysTick_CTRL_ENABLE_Msk;      /* Enable SysTick Timer */
    retr = HAL_OK;
3418796e:	4770      	bx	lr
  HAL_StatusTypeDef retr = HAL_ERROR;
34187970:	2001      	movs	r0, #1
  }
  return retr;
}
34187972:	4770      	bx	lr
34187974:	34180610 	.word	0x34180610
34187978:	3418060c 	.word	0x3418060c

3418797c <HAL_GetTick>:
  *       tick on a count flag event.
  * @retval tick value
  */
uint32_t HAL_GetTick(void)
{
  if ((SysTick->CTRL & SysTick_CTRL_COUNTFLAG_Msk) == SysTick_CTRL_COUNTFLAG_Msk)
3418797c:	f04f 23e0 	mov.w	r3, #3758153728	@ 0xe000e000
34187980:	691b      	ldr	r3, [r3, #16]
34187982:	f413 3f80 	tst.w	r3, #65536	@ 0x10000
34187986:	d003      	beq.n	34187990 <HAL_GetTick+0x14>
  {
    uwTick++;
34187988:	4a03      	ldr	r2, [pc, #12]	@ (34187998 <HAL_GetTick+0x1c>)
3418798a:	6813      	ldr	r3, [r2, #0]
3418798c:	3301      	adds	r3, #1
3418798e:	6013      	str	r3, [r2, #0]
  }
  return uwTick;
34187990:	4b01      	ldr	r3, [pc, #4]	@ (34187998 <HAL_GetTick+0x1c>)
34187992:	6818      	ldr	r0, [r3, #0]
}
34187994:	4770      	bx	lr
34187996:	bf00      	nop
34187998:	34180780 	.word	0x34180780

3418799c <EXTMEM_Init>:
{
  EXTMEM_StatusTypeDef retr = EXTMEM_ERROR_INVALID_ID;
  EXTMEM_FUNC_CALL();

  /* Check the memory ID */
  if (MemId < (sizeof(extmem_list_config) / sizeof(EXTMEM_DefinitionTypeDef)))
3418799c:	b9b8      	cbnz	r0, 341879ce <EXTMEM_Init+0x32>
3418799e:	460a      	mov	r2, r1
341879a0:	4603      	mov	r3, r0
  {
    retr = EXTMEM_OK;

    /* Check type of EXTMEM driver used to access memory */
    switch (extmem_list_config[MemId].MemType)
341879a2:	21ac      	movs	r1, #172	@ 0xac
341879a4:	fb00 f101 	mul.w	r1, r0, r1
341879a8:	480d      	ldr	r0, [pc, #52]	@ (341879e0 <EXTMEM_Init+0x44>)
341879aa:	5c41      	ldrb	r1, [r0, r1]
341879ac:	b991      	cbnz	r1, 341879d4 <EXTMEM_Init+0x38>
{
341879ae:	b510      	push	{r4, lr}
    {
#if EXTMEM_DRIVER_NOR_SFDP == 1
      case EXTMEM_NOR_SFDP:
      {
        /* Initialize the memory using NOR SFDP driver */
        if (EXTMEM_DRIVER_NOR_SFDP_OK != EXTMEM_DRIVER_NOR_SFDP_Init(extmem_list_config[MemId].Handle,
341879b0:	21ac      	movs	r1, #172	@ 0xac
341879b2:	fb01 f003 	mul.w	r0, r1, r3
341879b6:	f100 0308 	add.w	r3, r0, #8
341879ba:	4c09      	ldr	r4, [pc, #36]	@ (341879e0 <EXTMEM_Init+0x44>)
341879bc:	4423      	add	r3, r4
341879be:	4420      	add	r0, r4
341879c0:	3304      	adds	r3, #4
341879c2:	7a01      	ldrb	r1, [r0, #8]
341879c4:	6840      	ldr	r0, [r0, #4]
341879c6:	f001 fdb5 	bl	34189534 <EXTMEM_DRIVER_NOR_SFDP_Init>
341879ca:	b930      	cbnz	r0, 341879da <EXTMEM_Init+0x3e>
        break;
      }
    }
  }
  return retr;
}
341879cc:	bd10      	pop	{r4, pc}
  EXTMEM_StatusTypeDef retr = EXTMEM_ERROR_INVALID_ID;
341879ce:	f06f 0004 	mvn.w	r0, #4
341879d2:	4770      	bx	lr
        retr = EXTMEM_ERROR_UNKNOWNMEMORY;
341879d4:	f06f 0001 	mvn.w	r0, #1
}
341879d8:	4770      	bx	lr
          retr = EXTMEM_ERROR_DRIVER;
341879da:	f06f 0002 	mvn.w	r0, #2
341879de:	e7f5      	b.n	341879cc <EXTMEM_Init+0x30>
341879e0:	34180618 	.word	0x34180618

341879e4 <EXTMEM_Write>:
{
  EXTMEM_StatusTypeDef retr = EXTMEM_ERROR_INVALID_ID;
  EXTMEM_FUNC_CALL()

  /* Check the memory ID */
  if (MemId < (sizeof(extmem_list_config) / sizeof(EXTMEM_DefinitionTypeDef)))
341879e4:	b988      	cbnz	r0, 34187a0a <EXTMEM_Write+0x26>
{
341879e6:	b510      	push	{r4, lr}
341879e8:	4684      	mov	ip, r0
  {
    retr = EXTMEM_OK;

    /* Check type of EXTMEM driver used to access memory */
    switch (extmem_list_config[MemId].MemType)
341879ea:	20ac      	movs	r0, #172	@ 0xac
341879ec:	fb00 f00c 	mul.w	r0, r0, ip
341879f0:	4c0a      	ldr	r4, [pc, #40]	@ (34187a1c <EXTMEM_Write+0x38>)
341879f2:	5c20      	ldrb	r0, [r4, r0]
341879f4:	b960      	cbnz	r0, 34187a10 <EXTMEM_Write+0x2c>
    {
#if EXTMEM_DRIVER_NOR_SFDP == 1
      case EXTMEM_NOR_SFDP:
      {
        /* Perform the Write operation using the NOR SFDP driver */
        if (EXTMEM_DRIVER_NOR_SFDP_OK != EXTMEM_DRIVER_NOR_SFDP_Write(&extmem_list_config[MemId].NorSfdpObject,
341879f6:	20ac      	movs	r0, #172	@ 0xac
341879f8:	fb00 f00c 	mul.w	r0, r0, ip
341879fc:	3008      	adds	r0, #8
341879fe:	4420      	add	r0, r4
34187a00:	3004      	adds	r0, #4
34187a02:	f001 fe11 	bl	34189628 <EXTMEM_DRIVER_NOR_SFDP_Write>
34187a06:	b930      	cbnz	r0, 34187a16 <EXTMEM_Write+0x32>
        break;
      }
    }
  }
  return retr;
}
34187a08:	bd10      	pop	{r4, pc}
  EXTMEM_StatusTypeDef retr = EXTMEM_ERROR_INVALID_ID;
34187a0a:	f06f 0004 	mvn.w	r0, #4
}
34187a0e:	4770      	bx	lr
        retr = EXTMEM_ERROR_UNKNOWNMEMORY;
34187a10:	f06f 0001 	mvn.w	r0, #1
34187a14:	e7f8      	b.n	34187a08 <EXTMEM_Write+0x24>
          retr = EXTMEM_ERROR_DRIVER;
34187a16:	f06f 0002 	mvn.w	r0, #2
34187a1a:	e7f5      	b.n	34187a08 <EXTMEM_Write+0x24>
34187a1c:	34180618 	.word	0x34180618

34187a20 <EXTMEM_EraseSector>:
  * @param Address Address in memory to start erase operation.
  * @param Size Number of bytes to erase.
  * @retval EXTMEM_StatusTypeDef Status of the operation.
  */
EXTMEM_StatusTypeDef EXTMEM_EraseSector(uint32_t MemId, uint32_t Address, uint32_t Size)
{
34187a20:	e92d 43f8 	stmdb	sp!, {r3, r4, r5, r6, r7, r8, r9, lr}
  EXTMEM_StatusTypeDef retr = EXTMEM_ERROR_INVALID_ID;
  EXTMEM_FUNC_CALL()

  /* Check the memory ID */
  if (MemId < (sizeof(extmem_list_config) / sizeof(EXTMEM_DefinitionTypeDef)))
34187a24:	2800      	cmp	r0, #0
34187a26:	d175      	bne.n	34187b14 <EXTMEM_EraseSector+0xf4>
34187a28:	460f      	mov	r7, r1
34187a2a:	4615      	mov	r5, r2
34187a2c:	4606      	mov	r6, r0
  {
    retr = EXTMEM_OK;

    /* Check type of EXTMEM driver used to access memory */
    switch (extmem_list_config[MemId].MemType)
34187a2e:	23ac      	movs	r3, #172	@ 0xac
34187a30:	fb00 f303 	mul.w	r3, r0, r3
34187a34:	4a3b      	ldr	r2, [pc, #236]	@ (34187b24 <EXTMEM_EraseSector+0x104>)
34187a36:	f812 9003 	ldrb.w	r9, [r2, r3]
34187a3a:	f1b9 0f00 	cmp.w	r9, #0
34187a3e:	d16e      	bne.n	34187b1e <EXTMEM_EraseSector+0xfe>
        /* Perform the Sector Erase operation using the NOR SFDP driver */
        const EXTMEM_DRIVER_NOR_SFDP_ObjectTypeDef *const object = &extmem_list_config[MemId].NorSfdpObject;
        EXTMEM_DRIVER_NOR_SFDP_SectorTypeTypeDef sector_type = EXTMEM_DRIVER_NOR_SFDP_SECTOR_TYPE1;
        uint32_t local_address = Address;
        uint32_t local_size = Size;
        uint32_t sector_size = (uint32_t)1u << object->sfdp_private.DriverInfo.EraseType4Size;
34187a40:	4613      	mov	r3, r2
34187a42:	22ac      	movs	r2, #172	@ 0xac
34187a44:	fb02 3300 	mla	r3, r2, r0, r3
34187a48:	f893 3089 	ldrb.w	r3, [r3, #137]	@ 0x89
34187a4c:	2401      	movs	r4, #1
34187a4e:	409c      	lsls	r4, r3
    retr = EXTMEM_OK;
34187a50:	f04f 0800 	mov.w	r8, #0

        while (local_size != 0u)
34187a54:	e00e      	b.n	34187a74 <EXTMEM_EraseSector+0x54>
          /* if address is a modulo a sector size if sector  */
          if ((object->sfdp_private.DriverInfo.EraseType4Size != 0u)
              && (local_size >= sector_size)
              && ((local_address % sector_size) == 0u))
          {
            sector_type = EXTMEM_DRIVER_NOR_SFDP_SECTOR_TYPE4;
34187a56:	2203      	movs	r2, #3
34187a58:	e047      	b.n	34187aea <EXTMEM_EraseSector+0xca>
            sector_size = (uint32_t)1u << object->sfdp_private.DriverInfo.EraseType3Size;
            if ((object->sfdp_private.DriverInfo.EraseType3Size != 0u)
                && (local_size >= sector_size)
                && ((local_address % sector_size) == 0u))
            {
              sector_type = EXTMEM_DRIVER_NOR_SFDP_SECTOR_TYPE3;
34187a5a:	2202      	movs	r2, #2
34187a5c:	e045      	b.n	34187aea <EXTMEM_EraseSector+0xca>
              sector_size = (uint32_t)1u << object->sfdp_private.DriverInfo.EraseType2Size;
              if ((object->sfdp_private.DriverInfo.EraseType2Size != 0u)
                  && (local_size >= sector_size)
                  && ((local_address % sector_size) == 0u))
              {
                sector_type = EXTMEM_DRIVER_NOR_SFDP_SECTOR_TYPE2;
34187a5e:	2201      	movs	r2, #1
34187a60:	e043      	b.n	34187aea <EXTMEM_EraseSector+0xca>
                {
                  sector_type = EXTMEM_DRIVER_NOR_SFDP_SECTOR_TYPE1;
                }
                else
                {
                  retr = EXTMEM_ERROR_SECTOR_SIZE;
34187a62:	f06f 0803 	mvn.w	r8, #3
            {
              retr = EXTMEM_ERROR_DRIVER;
            }
          }

          if (retr != EXTMEM_OK)
34187a66:	f1b8 0f00 	cmp.w	r8, #0
34187a6a:	d155      	bne.n	34187b18 <EXTMEM_EraseSector+0xf8>
          {
            local_size = 0u;
          }
          else
          {
            local_address = local_address + sector_size;
34187a6c:	4427      	add	r7, r4
            if (sector_size > local_size)
34187a6e:	42a5      	cmp	r5, r4
34187a70:	d352      	bcc.n	34187b18 <EXTMEM_EraseSector+0xf8>
            {
              local_size = 0u;
            }
            else
            {
              local_size = local_size - sector_size;
34187a72:	1b2d      	subs	r5, r5, r4
        while (local_size != 0u)
34187a74:	2d00      	cmp	r5, #0
34187a76:	d04f      	beq.n	34187b18 <EXTMEM_EraseSector+0xf8>
          if ((object->sfdp_private.DriverInfo.EraseType4Size != 0u)
34187a78:	4b2a      	ldr	r3, [pc, #168]	@ (34187b24 <EXTMEM_EraseSector+0x104>)
34187a7a:	22ac      	movs	r2, #172	@ 0xac
34187a7c:	fb02 3306 	mla	r3, r2, r6, r3
34187a80:	f893 3089 	ldrb.w	r3, [r3, #137]	@ 0x89
34187a84:	b13b      	cbz	r3, 34187a96 <EXTMEM_EraseSector+0x76>
              && (local_size >= sector_size)
34187a86:	42a5      	cmp	r5, r4
34187a88:	d305      	bcc.n	34187a96 <EXTMEM_EraseSector+0x76>
              && ((local_address % sector_size) == 0u))
34187a8a:	fbb7 f3f4 	udiv	r3, r7, r4
34187a8e:	fb04 7313 	mls	r3, r4, r3, r7
34187a92:	2b00      	cmp	r3, #0
34187a94:	d0df      	beq.n	34187a56 <EXTMEM_EraseSector+0x36>
            sector_size = (uint32_t)1u << object->sfdp_private.DriverInfo.EraseType3Size;
34187a96:	4b23      	ldr	r3, [pc, #140]	@ (34187b24 <EXTMEM_EraseSector+0x104>)
34187a98:	22ac      	movs	r2, #172	@ 0xac
34187a9a:	fb02 3306 	mla	r3, r2, r6, r3
34187a9e:	f893 3087 	ldrb.w	r3, [r3, #135]	@ 0x87
34187aa2:	2401      	movs	r4, #1
34187aa4:	409c      	lsls	r4, r3
            if ((object->sfdp_private.DriverInfo.EraseType3Size != 0u)
34187aa6:	b123      	cbz	r3, 34187ab2 <EXTMEM_EraseSector+0x92>
                && (local_size >= sector_size)
34187aa8:	42a5      	cmp	r5, r4
34187aaa:	d302      	bcc.n	34187ab2 <EXTMEM_EraseSector+0x92>
                && ((local_address % sector_size) == 0u))
34187aac:	1e63      	subs	r3, r4, #1
34187aae:	423b      	tst	r3, r7
34187ab0:	d0d3      	beq.n	34187a5a <EXTMEM_EraseSector+0x3a>
              sector_size = (uint32_t)1u << object->sfdp_private.DriverInfo.EraseType2Size;
34187ab2:	4b1c      	ldr	r3, [pc, #112]	@ (34187b24 <EXTMEM_EraseSector+0x104>)
34187ab4:	22ac      	movs	r2, #172	@ 0xac
34187ab6:	fb02 3306 	mla	r3, r2, r6, r3
34187aba:	f893 3085 	ldrb.w	r3, [r3, #133]	@ 0x85
34187abe:	2401      	movs	r4, #1
34187ac0:	409c      	lsls	r4, r3
              if ((object->sfdp_private.DriverInfo.EraseType2Size != 0u)
34187ac2:	b123      	cbz	r3, 34187ace <EXTMEM_EraseSector+0xae>
                  && (local_size >= sector_size)
34187ac4:	42a5      	cmp	r5, r4
34187ac6:	d302      	bcc.n	34187ace <EXTMEM_EraseSector+0xae>
                  && ((local_address % sector_size) == 0u))
34187ac8:	1e63      	subs	r3, r4, #1
34187aca:	423b      	tst	r3, r7
34187acc:	d0c7      	beq.n	34187a5e <EXTMEM_EraseSector+0x3e>
                sector_size = (uint32_t)1u << object->sfdp_private.DriverInfo.EraseType1Size;
34187ace:	4b15      	ldr	r3, [pc, #84]	@ (34187b24 <EXTMEM_EraseSector+0x104>)
34187ad0:	22ac      	movs	r2, #172	@ 0xac
34187ad2:	fb02 3306 	mla	r3, r2, r6, r3
34187ad6:	f893 3083 	ldrb.w	r3, [r3, #131]	@ 0x83
34187ada:	2401      	movs	r4, #1
34187adc:	409c      	lsls	r4, r3
                if ((object->sfdp_private.DriverInfo.EraseType1Size != 0u)
34187ade:	2b00      	cmp	r3, #0
34187ae0:	d0bf      	beq.n	34187a62 <EXTMEM_EraseSector+0x42>
                    && ((local_address % sector_size) == 0u))
34187ae2:	1e63      	subs	r3, r4, #1
34187ae4:	423b      	tst	r3, r7
34187ae6:	d112      	bne.n	34187b0e <EXTMEM_EraseSector+0xee>
                  sector_type = EXTMEM_DRIVER_NOR_SFDP_SECTOR_TYPE1;
34187ae8:	464a      	mov	r2, r9
          if (retr == EXTMEM_OK)
34187aea:	f1b8 0f00 	cmp.w	r8, #0
34187aee:	d1ba      	bne.n	34187a66 <EXTMEM_EraseSector+0x46>
                EXTMEM_DRIVER_NOR_SFDP_SectorErase(&extmem_list_config[MemId].NorSfdpObject,
34187af0:	20ac      	movs	r0, #172	@ 0xac
34187af2:	fb06 f000 	mul.w	r0, r6, r0
34187af6:	3008      	adds	r0, #8
34187af8:	4b0a      	ldr	r3, [pc, #40]	@ (34187b24 <EXTMEM_EraseSector+0x104>)
34187afa:	4418      	add	r0, r3
34187afc:	4639      	mov	r1, r7
34187afe:	3004      	adds	r0, #4
34187b00:	f001 fe02 	bl	34189708 <EXTMEM_DRIVER_NOR_SFDP_SectorErase>
            if (EXTMEM_DRIVER_NOR_SFDP_OK !=
34187b04:	2800      	cmp	r0, #0
34187b06:	d0ae      	beq.n	34187a66 <EXTMEM_EraseSector+0x46>
              retr = EXTMEM_ERROR_DRIVER;
34187b08:	f06f 0802 	mvn.w	r8, #2
34187b0c:	e7ab      	b.n	34187a66 <EXTMEM_EraseSector+0x46>
                  retr = EXTMEM_ERROR_SECTOR_SIZE;
34187b0e:	f06f 0803 	mvn.w	r8, #3
34187b12:	e7a8      	b.n	34187a66 <EXTMEM_EraseSector+0x46>
  EXTMEM_StatusTypeDef retr = EXTMEM_ERROR_INVALID_ID;
34187b14:	f06f 0804 	mvn.w	r8, #4
        break;
      }
    }
  }
  return retr;
}
34187b18:	4640      	mov	r0, r8
34187b1a:	e8bd 83f8 	ldmia.w	sp!, {r3, r4, r5, r6, r7, r8, r9, pc}
        retr = EXTMEM_ERROR_UNKNOWNMEMORY;
34187b1e:	f06f 0801 	mvn.w	r8, #1
34187b22:	e7f9      	b.n	34187b18 <EXTMEM_EraseSector+0xf8>
34187b24:	34180618 	.word	0x34180618

34187b28 <EXTMEM_EraseAll>:
{
  EXTMEM_StatusTypeDef retr = EXTMEM_ERROR_INVALID_ID;
  EXTMEM_FUNC_CALL()

  /* Check the memory ID */
  if (MemId < (sizeof(extmem_list_config) / sizeof(EXTMEM_DefinitionTypeDef)))
34187b28:	b980      	cbnz	r0, 34187b4c <EXTMEM_EraseAll+0x24>
{
34187b2a:	b508      	push	{r3, lr}
  {
    retr = EXTMEM_OK;

    /* Check type of EXTMEM driver used to access memory */
    switch (extmem_list_config[MemId].MemType)
34187b2c:	22ac      	movs	r2, #172	@ 0xac
34187b2e:	fb00 f202 	mul.w	r2, r0, r2
34187b32:	490b      	ldr	r1, [pc, #44]	@ (34187b60 <EXTMEM_EraseAll+0x38>)
34187b34:	5c8a      	ldrb	r2, [r1, r2]
34187b36:	b962      	cbnz	r2, 34187b52 <EXTMEM_EraseAll+0x2a>
    {
#if EXTMEM_DRIVER_NOR_SFDP == 1
      case EXTMEM_NOR_SFDP:
      {
        /* Perform the Mass Erase operation using the NOR SFDP driver */
        if (EXTMEM_DRIVER_NOR_SFDP_OK != EXTMEM_DRIVER_NOR_SFDP_MassErase(&extmem_list_config[MemId].NorSfdpObject))
34187b38:	22ac      	movs	r2, #172	@ 0xac
34187b3a:	fb02 f000 	mul.w	r0, r2, r0
34187b3e:	3008      	adds	r0, #8
34187b40:	4408      	add	r0, r1
34187b42:	3004      	adds	r0, #4
34187b44:	f001 fdbe 	bl	341896c4 <EXTMEM_DRIVER_NOR_SFDP_MassErase>
34187b48:	b930      	cbnz	r0, 34187b58 <EXTMEM_EraseAll+0x30>
        break;
      }
    }
  }
  return retr;
}
34187b4a:	bd08      	pop	{r3, pc}
  EXTMEM_StatusTypeDef retr = EXTMEM_ERROR_INVALID_ID;
34187b4c:	f06f 0004 	mvn.w	r0, #4
}
34187b50:	4770      	bx	lr
        retr = EXTMEM_ERROR_UNKNOWNMEMORY;
34187b52:	f06f 0001 	mvn.w	r0, #1
34187b56:	e7f8      	b.n	34187b4a <EXTMEM_EraseAll+0x22>
          retr = EXTMEM_ERROR_DRIVER;
34187b58:	f06f 0002 	mvn.w	r0, #2
34187b5c:	e7f5      	b.n	34187b4a <EXTMEM_EraseAll+0x22>
34187b5e:	bf00      	nop
34187b60:	34180618 	.word	0x34180618

34187b64 <EXTMEM_MemoryMappedMode>:
{
  EXTMEM_StatusTypeDef retr = EXTMEM_ERROR_INVALID_ID;
  EXTMEM_FUNC_CALL();

  /* Check the memory ID */
  if (MemId < (sizeof(extmem_list_config) / sizeof(EXTMEM_DefinitionTypeDef)))
34187b64:	bb08      	cbnz	r0, 34187baa <EXTMEM_MemoryMappedMode+0x46>
{
34187b66:	b508      	push	{r3, lr}
34187b68:	4603      	mov	r3, r0
  {
    retr = EXTMEM_OK;

    /* Check type of EXTMEM driver used to access memory */
    switch (extmem_list_config[MemId].MemType)
34187b6a:	22ac      	movs	r2, #172	@ 0xac
34187b6c:	fb00 f202 	mul.w	r2, r0, r2
34187b70:	4812      	ldr	r0, [pc, #72]	@ (34187bbc <EXTMEM_MemoryMappedMode+0x58>)
34187b72:	5c82      	ldrb	r2, [r0, r2]
34187b74:	b9e2      	cbnz	r2, 34187bb0 <EXTMEM_MemoryMappedMode+0x4c>
    {
#if EXTMEM_DRIVER_NOR_SFDP == 1
      case EXTMEM_NOR_SFDP:
      {
        /* Perform the memory Map operation using the NOR SFDP driver */
        if (EXTMEM_ENABLE == State)
34187b76:	b951      	cbnz	r1, 34187b8e <EXTMEM_MemoryMappedMode+0x2a>
        {
          /* Start the memory mapped mode */
          if (EXTMEM_DRIVER_NOR_SFDP_OK !=
              EXTMEM_DRIVER_NOR_SFDP_Enable_MemoryMappedMode(&extmem_list_config[MemId].NorSfdpObject))
34187b78:	22ac      	movs	r2, #172	@ 0xac
34187b7a:	fb02 f003 	mul.w	r0, r2, r3
34187b7e:	3008      	adds	r0, #8
34187b80:	4b0e      	ldr	r3, [pc, #56]	@ (34187bbc <EXTMEM_MemoryMappedMode+0x58>)
34187b82:	4418      	add	r0, r3
34187b84:	3004      	adds	r0, #4
34187b86:	f001 fe10 	bl	341897aa <EXTMEM_DRIVER_NOR_SFDP_Enable_MemoryMappedMode>
          if (EXTMEM_DRIVER_NOR_SFDP_OK !=
34187b8a:	b9a0      	cbnz	r0, 34187bb6 <EXTMEM_MemoryMappedMode+0x52>
        break;
      }
    }
  }
  return retr;
}
34187b8c:	bd08      	pop	{r3, pc}
              EXTMEM_DRIVER_NOR_SFDP_Disable_MemoryMappedMode(&extmem_list_config[MemId].NorSfdpObject))
34187b8e:	22ac      	movs	r2, #172	@ 0xac
34187b90:	fb02 f003 	mul.w	r0, r2, r3
34187b94:	3008      	adds	r0, #8
34187b96:	4b09      	ldr	r3, [pc, #36]	@ (34187bbc <EXTMEM_MemoryMappedMode+0x58>)
34187b98:	4418      	add	r0, r3
34187b9a:	3004      	adds	r0, #4
34187b9c:	f001 fe19 	bl	341897d2 <EXTMEM_DRIVER_NOR_SFDP_Disable_MemoryMappedMode>
          if (EXTMEM_DRIVER_NOR_SFDP_OK !=
34187ba0:	2800      	cmp	r0, #0
34187ba2:	d0f3      	beq.n	34187b8c <EXTMEM_MemoryMappedMode+0x28>
            return EXTMEM_ERROR_DRIVER;
34187ba4:	f06f 0002 	mvn.w	r0, #2
34187ba8:	e7f0      	b.n	34187b8c <EXTMEM_MemoryMappedMode+0x28>
  EXTMEM_StatusTypeDef retr = EXTMEM_ERROR_INVALID_ID;
34187baa:	f06f 0004 	mvn.w	r0, #4
}
34187bae:	4770      	bx	lr
        retr = EXTMEM_ERROR_UNKNOWNMEMORY;
34187bb0:	f06f 0001 	mvn.w	r0, #1
34187bb4:	e7ea      	b.n	34187b8c <EXTMEM_MemoryMappedMode+0x28>
            return EXTMEM_ERROR_DRIVER;
34187bb6:	f06f 0002 	mvn.w	r0, #2
34187bba:	e7e7      	b.n	34187b8c <EXTMEM_MemoryMappedMode+0x28>
34187bbc:	34180618 	.word	0x34180618

34187bc0 <SAL_XSPI_SetClock>:
                                    uint32_t *ClockReal)
{
  HAL_StatusTypeDef retr = HAL_OK;
  uint32_t divider;

  if (ClockRequested == 0u)
34187bc0:	b1da      	cbz	r2, 34187bfa <SAL_XSPI_SetClock+0x3a>
{
34187bc2:	b410      	push	{r4}
34187bc4:	4694      	mov	ip, r2
  {
    retr = HAL_ERROR;
  }
  else
  {
    divider = (ClockIn / ClockRequested);
34187bc6:	fbb1 f2f2 	udiv	r2, r1, r2
    if (divider >= 1u)
34187bca:	458c      	cmp	ip, r1
34187bcc:	d805      	bhi.n	34187bda <SAL_XSPI_SetClock+0x1a>
    {
      *ClockReal = ClockIn / divider;
34187bce:	fbb1 f4f2 	udiv	r4, r1, r2
34187bd2:	601c      	str	r4, [r3, #0]
      if (*ClockReal <= ClockRequested)
34187bd4:	4564      	cmp	r4, ip
34187bd6:	d800      	bhi.n	34187bda <SAL_XSPI_SetClock+0x1a>
      {
        divider--;
34187bd8:	3a01      	subs	r2, #1
      }
    }

    /* Real clock calculation */
    *ClockReal = ClockIn / (divider + 1u);
34187bda:	f102 0c01 	add.w	ip, r2, #1
34187bde:	fbb1 f1fc 	udiv	r1, r1, ip
34187be2:	6019      	str	r1, [r3, #0]
    DEBUG_PARAM_END();
    DEBUG_PARAM_BEGIN();
    DEBUG_PARAM_DATA("::CLKFREQ::");
    DEBUG_PARAM_INTD(*ClockReal);
    DEBUG_PARAM_END();
    MODIFY_REG(SalXspi->hxspi->Instance->DCR2, XSPI_DCR2_PRESCALER, (uint32_t)divider << XSPI_DCR2_PRESCALER_Pos);
34187be4:	6803      	ldr	r3, [r0, #0]
34187be6:	6819      	ldr	r1, [r3, #0]
34187be8:	68cb      	ldr	r3, [r1, #12]
34187bea:	f023 03ff 	bic.w	r3, r3, #255	@ 0xff
34187bee:	4313      	orrs	r3, r2
34187bf0:	60cb      	str	r3, [r1, #12]
  HAL_StatusTypeDef retr = HAL_OK;
34187bf2:	2000      	movs	r0, #0
  }

  return retr;
}
34187bf4:	f85d 4b04 	ldr.w	r4, [sp], #4
34187bf8:	4770      	bx	lr
    retr = HAL_ERROR;
34187bfa:	2001      	movs	r0, #1
}
34187bfc:	4770      	bx	lr

34187bfe <SAL_XSPI_Init>:
  * @param SalXspi SAL XSPI handle
  * @param HALHandle HAl XSPI handle used for memory access
  * @return @ref HAL_StatusTypeDef
  **/
HAL_StatusTypeDef SAL_XSPI_Init(SAL_XSPI_ObjectTypeDef *SalXspi, void *HALHandle)
{
34187bfe:	b570      	push	{r4, r5, r6, lr}
34187c00:	b094      	sub	sp, #80	@ 0x50
34187c02:	4604      	mov	r4, r0
34187c04:	460d      	mov	r5, r1
  XSPI_RegularCmdTypeDef s_commandbase =
34187c06:	264c      	movs	r6, #76	@ 0x4c
34187c08:	4632      	mov	r2, r6
34187c0a:	2100      	movs	r1, #0
34187c0c:	a801      	add	r0, sp, #4
34187c0e:	f001 fde9 	bl	341897e4 <memset>
34187c12:	235a      	movs	r3, #90	@ 0x5a
34187c14:	9303      	str	r3, [sp, #12]
34187c16:	2301      	movs	r3, #1
34187c18:	9304      	str	r3, [sp, #16]
34187c1a:	f44f 7380 	mov.w	r3, #256	@ 0x100
34187c1e:	9308      	str	r3, [sp, #32]
34187c20:	f44f 5300 	mov.w	r3, #8192	@ 0x2000
34187c24:	9309      	str	r3, [sp, #36]	@ 0x24
34187c26:	f04f 7380 	mov.w	r3, #16777216	@ 0x1000000
34187c2a:	930f      	str	r3, [sp, #60]	@ 0x3c
34187c2c:	2308      	movs	r3, #8
34187c2e:	9312      	str	r3, [sp, #72]	@ 0x48
#if defined(XSPI_CCR_SIOO)
    .SIOOMode = HAL_XSPI_SIOO_INST_EVERY_CMD,
#endif /* XSPI_CCR_SIOO */
  };

  SalXspi->hxspi = (XSPI_HandleTypeDef *)HALHandle;
34187c30:	4620      	mov	r0, r4
34187c32:	f840 5b04 	str.w	r5, [r0], #4
  SalXspi->Commandbase = s_commandbase;
34187c36:	4632      	mov	r2, r6
34187c38:	a901      	add	r1, sp, #4
34187c3a:	f001 fddd 	bl	341897f8 <memcpy>
  SalXspi->CommandExtension = 0;
34187c3e:	2000      	movs	r0, #0
34187c40:	f884 0050 	strb.w	r0, [r4, #80]	@ 0x50
  SalXspi->PhyLink = PHY_LINK_1S1S1S;
34187c44:	f884 0052 	strb.w	r0, [r4, #82]	@ 0x52
  /* Set the error callback */
  HAL_XSPI_RegisterCallback(SalXspi->hxspi, HAL_XSPI_ERROR_CB_ID, SAL_XSPI_ErrorCallback);
#endif /* USE_HAL_XSPI_REGISTER_CALLBACKS */

  return HAL_OK;
}
34187c48:	b014      	add	sp, #80	@ 0x50
34187c4a:	bd70      	pop	{r4, r5, r6, pc}

34187c4c <SAL_XSPI_MemoryConfig>:
  * @param ParamVal Pointer on the parameter value
  * @return @ref HAL_StatusTypeDef
  **/
HAL_StatusTypeDef SAL_XSPI_MemoryConfig(SAL_XSPI_ObjectTypeDef *SalXspi, SAL_XSPI_MemParamTypeTypeDef ParametersType,
                                        void *ParamVal)
{
34187c4c:	b570      	push	{r4, r5, r6, lr}
34187c4e:	b094      	sub	sp, #80	@ 0x50
34187c50:	4606      	mov	r6, r0
34187c52:	460c      	mov	r4, r1
34187c54:	4615      	mov	r5, r2
  HAL_StatusTypeDef retr = HAL_OK;
  XSPI_RegularCmdTypeDef s_commandbase = SalXspi->Commandbase;
34187c56:	224c      	movs	r2, #76	@ 0x4c
34187c58:	1d01      	adds	r1, r0, #4
34187c5a:	a801      	add	r0, sp, #4
34187c5c:	f001 fdcc 	bl	341897f8 <memcpy>

  switch (ParametersType)
34187c60:	2c04      	cmp	r4, #4
34187c62:	f200 80f0 	bhi.w	34187e46 <SAL_XSPI_MemoryConfig+0x1fa>
34187c66:	e8df f014 	tbh	[pc, r4, lsl #1]
34187c6a:	0005      	.short	0x0005
34187c6c:	00d300ea 	.word	0x00d300ea
34187c70:	00df00ee 	.word	0x00df00ee
  {
    case PARAM_PHY_LINK:
    {
      SalXspi->PhyLink = *((SAL_XSPI_PhysicalLinkTypeDef *)ParamVal);
34187c74:	782b      	ldrb	r3, [r5, #0]
34187c76:	f886 3052 	strb.w	r3, [r6, #82]	@ 0x52
      DEBUG_PARAM_BEGIN();
      DEBUG_PARAM_DATA("::PARAM_PHY_LINK::");
      DEBUG_PARAM_DATA(STR_PHY_LINK(SalXspi->PhyLink));
      switch (SalXspi->PhyLink)
34187c7a:	2b0b      	cmp	r3, #11
34187c7c:	f200 80e5 	bhi.w	34187e4a <SAL_XSPI_MemoryConfig+0x1fe>
34187c80:	e8df f003 	tbb	[pc, r3]
34187c84:	06060606 	.word	0x06060606
34187c88:	472e1a1a 	.word	0x472e1a1a
34187c8c:	ab90755b 	.word	0xab90755b
        case PHY_LINK_1S1D1D:
        case PHY_LINK_1S2S2S:
        case PHY_LINK_1S1S2S:
        case PHY_LINK_1S1S1S:
        {
          s_commandbase.InstructionMode = HAL_XSPI_INSTRUCTION_1_LINE;
34187c90:	2301      	movs	r3, #1
34187c92:	9304      	str	r3, [sp, #16]
          s_commandbase.InstructionWidth = HAL_XSPI_INSTRUCTION_8_BITS;
34187c94:	2300      	movs	r3, #0
34187c96:	9305      	str	r3, [sp, #20]
          s_commandbase.InstructionDTRMode = HAL_XSPI_INSTRUCTION_DTR_DISABLE;
34187c98:	9306      	str	r3, [sp, #24]
          s_commandbase.AddressMode = HAL_XSPI_ADDRESS_1_LINE;
34187c9a:	f44f 7280 	mov.w	r2, #256	@ 0x100
34187c9e:	9208      	str	r2, [sp, #32]
          s_commandbase.AddressWidth = HAL_XSPI_ADDRESS_24_BITS;
34187ca0:	f44f 5200 	mov.w	r2, #8192	@ 0x2000
34187ca4:	9209      	str	r2, [sp, #36]	@ 0x24
          s_commandbase.AddressDTRMode = HAL_XSPI_ADDRESS_DTR_DISABLE;
34187ca6:	930a      	str	r3, [sp, #40]	@ 0x28
          s_commandbase.DataMode = HAL_XSPI_DATA_1_LINE;
34187ca8:	f04f 7280 	mov.w	r2, #16777216	@ 0x1000000
34187cac:	920f      	str	r2, [sp, #60]	@ 0x3c
          s_commandbase.DataDTRMode = HAL_XSPI_DATA_DTR_DISABLE;
34187cae:	9311      	str	r3, [sp, #68]	@ 0x44
          s_commandbase.DummyCycles = 8;
34187cb0:	2208      	movs	r2, #8
34187cb2:	9212      	str	r2, [sp, #72]	@ 0x48
          s_commandbase.DQSMode = HAL_XSPI_DQS_DISABLE;
34187cb4:	9313      	str	r3, [sp, #76]	@ 0x4c
          break;
34187cb6:	e0af      	b.n	34187e18 <SAL_XSPI_MemoryConfig+0x1cc>
        }

        case PHY_LINK_4S4D4D:
        case PHY_LINK_4S4S4S:
        {
          s_commandbase.InstructionMode = HAL_XSPI_INSTRUCTION_4_LINES;
34187cb8:	2303      	movs	r3, #3
34187cba:	9304      	str	r3, [sp, #16]
          s_commandbase.InstructionWidth = HAL_XSPI_INSTRUCTION_8_BITS;
34187cbc:	2300      	movs	r3, #0
34187cbe:	9305      	str	r3, [sp, #20]
          s_commandbase.InstructionDTRMode = HAL_XSPI_INSTRUCTION_DTR_DISABLE;
34187cc0:	9306      	str	r3, [sp, #24]
          s_commandbase.AddressMode = HAL_XSPI_ADDRESS_4_LINES;
34187cc2:	f44f 7240 	mov.w	r2, #768	@ 0x300
34187cc6:	9208      	str	r2, [sp, #32]
          s_commandbase.AddressDTRMode = HAL_XSPI_ADDRESS_DTR_DISABLE;
34187cc8:	930a      	str	r3, [sp, #40]	@ 0x28
          s_commandbase.AddressWidth = HAL_XSPI_ADDRESS_24_BITS;
34187cca:	f44f 5200 	mov.w	r2, #8192	@ 0x2000
34187cce:	9209      	str	r2, [sp, #36]	@ 0x24
          s_commandbase.DataMode = HAL_XSPI_DATA_4_LINES;
34187cd0:	f04f 7240 	mov.w	r2, #50331648	@ 0x3000000
34187cd4:	920f      	str	r2, [sp, #60]	@ 0x3c
          s_commandbase.DataDTRMode = HAL_XSPI_DATA_DTR_DISABLE;
34187cd6:	9311      	str	r3, [sp, #68]	@ 0x44
          s_commandbase.DummyCycles = 6;
34187cd8:	2206      	movs	r2, #6
34187cda:	9212      	str	r2, [sp, #72]	@ 0x48
          s_commandbase.DQSMode = HAL_XSPI_DQS_DISABLE;
34187cdc:	9313      	str	r3, [sp, #76]	@ 0x4c
          break;
34187cde:	e09b      	b.n	34187e18 <SAL_XSPI_MemoryConfig+0x1cc>
        }
        case PHY_LINK_4D4D4D:
        {
          s_commandbase.InstructionMode = HAL_XSPI_INSTRUCTION_4_LINES;
34187ce0:	2303      	movs	r3, #3
34187ce2:	9304      	str	r3, [sp, #16]
          s_commandbase.InstructionWidth = HAL_XSPI_INSTRUCTION_8_BITS;
34187ce4:	2300      	movs	r3, #0
34187ce6:	9305      	str	r3, [sp, #20]
          s_commandbase.InstructionDTRMode = HAL_XSPI_INSTRUCTION_DTR_ENABLE;
34187ce8:	2208      	movs	r2, #8
34187cea:	9206      	str	r2, [sp, #24]
          s_commandbase.AddressMode = HAL_XSPI_ADDRESS_4_LINES;
34187cec:	f44f 7240 	mov.w	r2, #768	@ 0x300
34187cf0:	9208      	str	r2, [sp, #32]
          s_commandbase.AddressWidth = HAL_XSPI_ADDRESS_24_BITS;
34187cf2:	f44f 5200 	mov.w	r2, #8192	@ 0x2000
34187cf6:	9209      	str	r2, [sp, #36]	@ 0x24
          s_commandbase.AddressDTRMode = HAL_XSPI_ADDRESS_DTR_ENABLE;
34187cf8:	f44f 6200 	mov.w	r2, #2048	@ 0x800
34187cfc:	920a      	str	r2, [sp, #40]	@ 0x28
          s_commandbase.DataMode = HAL_XSPI_DATA_4_LINES;
34187cfe:	f04f 7240 	mov.w	r2, #50331648	@ 0x3000000
34187d02:	920f      	str	r2, [sp, #60]	@ 0x3c
          s_commandbase.DataDTRMode = HAL_XSPI_DATA_DTR_ENABLE;
34187d04:	f04f 6200 	mov.w	r2, #134217728	@ 0x8000000
34187d08:	9211      	str	r2, [sp, #68]	@ 0x44
          s_commandbase.DummyCycles = 6;
34187d0a:	2206      	movs	r2, #6
34187d0c:	9212      	str	r2, [sp, #72]	@ 0x48
          s_commandbase.DQSMode = HAL_XSPI_DQS_DISABLE;
34187d0e:	9313      	str	r3, [sp, #76]	@ 0x4c
          break;
34187d10:	e082      	b.n	34187e18 <SAL_XSPI_MemoryConfig+0x1cc>
        }
        case PHY_LINK_1S8S8S:
        {
          s_commandbase.InstructionMode = HAL_XSPI_INSTRUCTION_1_LINE;
34187d12:	2301      	movs	r3, #1
34187d14:	9304      	str	r3, [sp, #16]
          s_commandbase.InstructionWidth = HAL_XSPI_INSTRUCTION_8_BITS;
34187d16:	2300      	movs	r3, #0
34187d18:	9305      	str	r3, [sp, #20]
          s_commandbase.InstructionDTRMode = HAL_XSPI_INSTRUCTION_DTR_DISABLE;
34187d1a:	9306      	str	r3, [sp, #24]
          s_commandbase.AddressMode = HAL_XSPI_ADDRESS_8_LINES;
34187d1c:	f44f 6280 	mov.w	r2, #1024	@ 0x400
34187d20:	9208      	str	r2, [sp, #32]
          s_commandbase.AddressWidth = HAL_XSPI_ADDRESS_32_BITS;
34187d22:	f44f 5240 	mov.w	r2, #12288	@ 0x3000
34187d26:	9209      	str	r2, [sp, #36]	@ 0x24
          s_commandbase.AddressDTRMode = HAL_XSPI_ADDRESS_DTR_DISABLE;
34187d28:	930a      	str	r3, [sp, #40]	@ 0x28
          s_commandbase.DataMode = HAL_XSPI_DATA_8_LINES;
34187d2a:	f04f 6280 	mov.w	r2, #67108864	@ 0x4000000
34187d2e:	920f      	str	r2, [sp, #60]	@ 0x3c
          s_commandbase.DataDTRMode = HAL_XSPI_DATA_DTR_DISABLE;
34187d30:	9311      	str	r3, [sp, #68]	@ 0x44
          s_commandbase.DummyCycles = 8;
34187d32:	2208      	movs	r2, #8
34187d34:	9212      	str	r2, [sp, #72]	@ 0x48
          s_commandbase.DQSMode = HAL_XSPI_DQS_DISABLE;
34187d36:	9313      	str	r3, [sp, #76]	@ 0x4c
          break;
34187d38:	e06e      	b.n	34187e18 <SAL_XSPI_MemoryConfig+0x1cc>
        }
        case PHY_LINK_8S8D8D:
        {
          s_commandbase.InstructionMode = HAL_XSPI_INSTRUCTION_8_LINES;
34187d3a:	2304      	movs	r3, #4
34187d3c:	9304      	str	r3, [sp, #16]
          s_commandbase.InstructionWidth = HAL_XSPI_INSTRUCTION_8_BITS;
34187d3e:	2300      	movs	r3, #0
34187d40:	9305      	str	r3, [sp, #20]
          s_commandbase.InstructionDTRMode = HAL_XSPI_INSTRUCTION_DTR_DISABLE;
34187d42:	9306      	str	r3, [sp, #24]
          s_commandbase.AddressMode = HAL_XSPI_ADDRESS_8_LINES;
34187d44:	f44f 6380 	mov.w	r3, #1024	@ 0x400
34187d48:	9308      	str	r3, [sp, #32]
          s_commandbase.AddressWidth = HAL_XSPI_ADDRESS_32_BITS;
34187d4a:	f44f 5340 	mov.w	r3, #12288	@ 0x3000
34187d4e:	9309      	str	r3, [sp, #36]	@ 0x24
          s_commandbase.AddressDTRMode = HAL_XSPI_ADDRESS_DTR_ENABLE;
34187d50:	f44f 6300 	mov.w	r3, #2048	@ 0x800
34187d54:	930a      	str	r3, [sp, #40]	@ 0x28
          s_commandbase.DataMode = HAL_XSPI_DATA_8_LINES;
34187d56:	f04f 6380 	mov.w	r3, #67108864	@ 0x4000000
34187d5a:	930f      	str	r3, [sp, #60]	@ 0x3c
          s_commandbase.DataDTRMode = HAL_XSPI_DATA_DTR_ENABLE;
34187d5c:	f04f 6300 	mov.w	r3, #134217728	@ 0x8000000
34187d60:	9311      	str	r3, [sp, #68]	@ 0x44
          s_commandbase.DummyCycles = 8;
34187d62:	2308      	movs	r3, #8
34187d64:	9312      	str	r3, [sp, #72]	@ 0x48
          s_commandbase.DQSMode = HAL_XSPI_DQS_ENABLE;
34187d66:	f04f 5300 	mov.w	r3, #536870912	@ 0x20000000
34187d6a:	9313      	str	r3, [sp, #76]	@ 0x4c
          break;
34187d6c:	e054      	b.n	34187e18 <SAL_XSPI_MemoryConfig+0x1cc>
        }

        case PHY_LINK_8D8D8D:
        {
          s_commandbase.InstructionMode = HAL_XSPI_INSTRUCTION_8_LINES;
34187d6e:	2304      	movs	r3, #4
34187d70:	9304      	str	r3, [sp, #16]
          s_commandbase.InstructionWidth = HAL_XSPI_INSTRUCTION_16_BITS;
34187d72:	2310      	movs	r3, #16
34187d74:	9305      	str	r3, [sp, #20]
          s_commandbase.InstructionDTRMode = HAL_XSPI_INSTRUCTION_DTR_ENABLE;
34187d76:	2308      	movs	r3, #8
34187d78:	9306      	str	r3, [sp, #24]
          s_commandbase.AddressMode = HAL_XSPI_ADDRESS_8_LINES;
34187d7a:	f44f 6380 	mov.w	r3, #1024	@ 0x400
34187d7e:	9308      	str	r3, [sp, #32]
          s_commandbase.AddressWidth = HAL_XSPI_ADDRESS_32_BITS;
34187d80:	f44f 5340 	mov.w	r3, #12288	@ 0x3000
34187d84:	9309      	str	r3, [sp, #36]	@ 0x24
          s_commandbase.AddressDTRMode = HAL_XSPI_ADDRESS_DTR_ENABLE;
34187d86:	f44f 6300 	mov.w	r3, #2048	@ 0x800
34187d8a:	930a      	str	r3, [sp, #40]	@ 0x28
          s_commandbase.DataMode = HAL_XSPI_DATA_8_LINES;
34187d8c:	f04f 6380 	mov.w	r3, #67108864	@ 0x4000000
34187d90:	930f      	str	r3, [sp, #60]	@ 0x3c
          s_commandbase.DataDTRMode = HAL_XSPI_DATA_DTR_ENABLE;
34187d92:	f04f 6300 	mov.w	r3, #134217728	@ 0x8000000
34187d96:	9311      	str	r3, [sp, #68]	@ 0x44
          s_commandbase.DummyCycles = 20;
34187d98:	2314      	movs	r3, #20
34187d9a:	9312      	str	r3, [sp, #72]	@ 0x48
          s_commandbase.DQSMode = HAL_XSPI_DQS_ENABLE;
34187d9c:	f04f 5300 	mov.w	r3, #536870912	@ 0x20000000
34187da0:	9313      	str	r3, [sp, #76]	@ 0x4c
          break;
34187da2:	e039      	b.n	34187e18 <SAL_XSPI_MemoryConfig+0x1cc>
        }
        case PHY_LINK_RAM8:
        {
          s_commandbase.InstructionMode    = HAL_XSPI_INSTRUCTION_8_LINES;
34187da4:	2304      	movs	r3, #4
34187da6:	9304      	str	r3, [sp, #16]
          s_commandbase.InstructionWidth   = HAL_XSPI_INSTRUCTION_8_BITS;
34187da8:	2300      	movs	r3, #0
34187daa:	9305      	str	r3, [sp, #20]
          s_commandbase.InstructionDTRMode = HAL_XSPI_INSTRUCTION_DTR_DISABLE;
34187dac:	9306      	str	r3, [sp, #24]
          s_commandbase.AddressMode        = HAL_XSPI_ADDRESS_8_LINES;
34187dae:	f44f 6280 	mov.w	r2, #1024	@ 0x400
34187db2:	9208      	str	r2, [sp, #32]
          s_commandbase.AddressWidth       = HAL_XSPI_ADDRESS_32_BITS;
34187db4:	f44f 5240 	mov.w	r2, #12288	@ 0x3000
34187db8:	9209      	str	r2, [sp, #36]	@ 0x24
          s_commandbase.AddressDTRMode     = HAL_XSPI_ADDRESS_DTR_ENABLE;
34187dba:	f44f 6200 	mov.w	r2, #2048	@ 0x800
34187dbe:	920a      	str	r2, [sp, #40]	@ 0x28
          s_commandbase.AlternateBytesMode = HAL_XSPI_ALT_BYTES_NONE;
34187dc0:	930c      	str	r3, [sp, #48]	@ 0x30
          s_commandbase.DataMode           = HAL_XSPI_DATA_8_LINES;
34187dc2:	f04f 6380 	mov.w	r3, #67108864	@ 0x4000000
34187dc6:	930f      	str	r3, [sp, #60]	@ 0x3c
          s_commandbase.DataDTRMode        = HAL_XSPI_DATA_DTR_ENABLE;
34187dc8:	f04f 6300 	mov.w	r3, #134217728	@ 0x8000000
34187dcc:	9311      	str	r3, [sp, #68]	@ 0x44
          s_commandbase.DummyCycles        = 10;
34187dce:	230a      	movs	r3, #10
34187dd0:	9312      	str	r3, [sp, #72]	@ 0x48
          s_commandbase.DQSMode            = HAL_XSPI_DQS_ENABLE;
34187dd2:	f04f 5300 	mov.w	r3, #536870912	@ 0x20000000
34187dd6:	9313      	str	r3, [sp, #76]	@ 0x4c
          break;
34187dd8:	e01e      	b.n	34187e18 <SAL_XSPI_MemoryConfig+0x1cc>
        }
#if defined(HAL_XSPI_DATA_16_LINES)
        case PHY_LINK_RAM16 :
        {
          s_commandbase.InstructionMode    = HAL_XSPI_INSTRUCTION_8_LINES;
34187dda:	2304      	movs	r3, #4
34187ddc:	9304      	str	r3, [sp, #16]
          s_commandbase.InstructionWidth   = HAL_XSPI_INSTRUCTION_8_BITS;
34187dde:	2300      	movs	r3, #0
34187de0:	9305      	str	r3, [sp, #20]
          s_commandbase.InstructionDTRMode = HAL_XSPI_INSTRUCTION_DTR_DISABLE;
34187de2:	9306      	str	r3, [sp, #24]
          s_commandbase.AddressMode        = HAL_XSPI_ADDRESS_8_LINES;
34187de4:	f44f 6280 	mov.w	r2, #1024	@ 0x400
34187de8:	9208      	str	r2, [sp, #32]
          s_commandbase.AddressWidth       = HAL_XSPI_ADDRESS_32_BITS;
34187dea:	f44f 5240 	mov.w	r2, #12288	@ 0x3000
34187dee:	9209      	str	r2, [sp, #36]	@ 0x24
          s_commandbase.AddressDTRMode     = HAL_XSPI_ADDRESS_DTR_ENABLE;
34187df0:	f44f 6200 	mov.w	r2, #2048	@ 0x800
34187df4:	920a      	str	r2, [sp, #40]	@ 0x28
          s_commandbase.AlternateBytesMode = HAL_XSPI_ALT_BYTES_NONE;
34187df6:	930c      	str	r3, [sp, #48]	@ 0x30
          s_commandbase.DataMode           = HAL_XSPI_DATA_16_LINES;
34187df8:	f04f 63a0 	mov.w	r3, #83886080	@ 0x5000000
34187dfc:	930f      	str	r3, [sp, #60]	@ 0x3c
          s_commandbase.DataDTRMode        = HAL_XSPI_DATA_DTR_ENABLE;
34187dfe:	f04f 6300 	mov.w	r3, #134217728	@ 0x8000000
34187e02:	9311      	str	r3, [sp, #68]	@ 0x44
          s_commandbase.DummyCycles        = 10;
34187e04:	230a      	movs	r3, #10
34187e06:	9312      	str	r3, [sp, #72]	@ 0x48
          s_commandbase.DQSMode            = HAL_XSPI_DQS_ENABLE;
34187e08:	f04f 5300 	mov.w	r3, #536870912	@ 0x20000000
34187e0c:	9313      	str	r3, [sp, #76]	@ 0x4c
          break;
34187e0e:	e003      	b.n	34187e18 <SAL_XSPI_MemoryConfig+0x1cc>
    case PARAM_ADDRESS_4BYTES:
    {
      DEBUG_PARAM_BEGIN();
      DEBUG_PARAM_DATA("::PARAM_ADDRESS_4BYTES");
      DEBUG_PARAM_END();
      s_commandbase.AddressWidth = HAL_XSPI_ADDRESS_32_BITS;
34187e10:	f44f 5340 	mov.w	r3, #12288	@ 0x3000
34187e14:	9309      	str	r3, [sp, #36]	@ 0x24
  HAL_StatusTypeDef retr = HAL_OK;
34187e16:	2400      	movs	r4, #0
      DEBUG_PARAM_DATA("::SAL_XSPI_MemoryConfig::ERROR");
      DEBUG_PARAM_END();
      retr = HAL_ERROR;
      break;
  }
  SalXspi->Commandbase = s_commandbase;
34187e18:	224c      	movs	r2, #76	@ 0x4c
34187e1a:	a901      	add	r1, sp, #4
34187e1c:	1d30      	adds	r0, r6, #4
34187e1e:	f001 fceb 	bl	341897f8 <memcpy>
  return retr;
}
34187e22:	4620      	mov	r0, r4
34187e24:	b014      	add	sp, #80	@ 0x50
34187e26:	bd70      	pop	{r4, r5, r6, pc}
      uint8_t valParam = *((uint8_t *)ParamVal);
34187e28:	7829      	ldrb	r1, [r5, #0]
      MODIFY_REG(SalXspi->hxspi->Instance->DCR1, XSPI_DCR1_DEVSIZE, ((uint32_t)valParam) << XSPI_DCR1_DEVSIZE_Pos);
34187e2a:	6833      	ldr	r3, [r6, #0]
34187e2c:	681a      	ldr	r2, [r3, #0]
34187e2e:	6893      	ldr	r3, [r2, #8]
34187e30:	f423 13f8 	bic.w	r3, r3, #2031616	@ 0x1f0000
34187e34:	ea43 4301 	orr.w	r3, r3, r1, lsl #16
34187e38:	6093      	str	r3, [r2, #8]
  HAL_StatusTypeDef retr = HAL_OK;
34187e3a:	2400      	movs	r4, #0
      break;
34187e3c:	e7ec      	b.n	34187e18 <SAL_XSPI_MemoryConfig+0x1cc>
      uint8_t valParam = *((uint8_t *)ParamVal);
34187e3e:	782b      	ldrb	r3, [r5, #0]
      s_commandbase.DummyCycles = valParam;
34187e40:	9312      	str	r3, [sp, #72]	@ 0x48
  HAL_StatusTypeDef retr = HAL_OK;
34187e42:	2400      	movs	r4, #0
      break;
34187e44:	e7e8      	b.n	34187e18 <SAL_XSPI_MemoryConfig+0x1cc>
  switch (ParametersType)
34187e46:	2401      	movs	r4, #1
34187e48:	e7e6      	b.n	34187e18 <SAL_XSPI_MemoryConfig+0x1cc>
      switch (SalXspi->PhyLink)
34187e4a:	2401      	movs	r4, #1
34187e4c:	e7e4      	b.n	34187e18 <SAL_XSPI_MemoryConfig+0x1cc>

34187e4e <SAL_XSPI_DisableMapMode>:
  * @brief This function disables the memory mapped mode
  * @param SalXspi SAL XSPI handle
  * @return @ref HAL_StatusTypeDef
  **/
HAL_StatusTypeDef SAL_XSPI_DisableMapMode(SAL_XSPI_ObjectTypeDef *SalXspi)
{
34187e4e:	b508      	push	{r3, lr}
  __ASM volatile ("dsb 0xF":::"memory");
34187e50:	f3bf 8f4f 	dsb	sy
  __DSB();
  return HAL_XSPI_Abort(SalXspi->hxspi);
34187e54:	6800      	ldr	r0, [r0, #0]
34187e56:	f7ff fb6f 	bl	34187538 <HAL_XSPI_Abort>
}
34187e5a:	bd08      	pop	{r3, pc}

34187e5c <SAL_XSPI_UpdateMemoryType>:
HAL_StatusTypeDef SAL_XSPI_UpdateMemoryType(SAL_XSPI_ObjectTypeDef *SalXspi, SAL_XSPI_DataOrderTypeDef DataOrder)
{
  HAL_StatusTypeDef retr = HAL_OK;

  /* Read the memory type value */
  uint32_t memorytype = READ_REG(SalXspi->hxspi->Instance->DCR1) & XSPI_DCR1_MTYP;
34187e5c:	6803      	ldr	r3, [r0, #0]
34187e5e:	681a      	ldr	r2, [r3, #0]
34187e60:	6893      	ldr	r3, [r2, #8]
34187e62:	f003 63e0 	and.w	r3, r3, #117440512	@ 0x7000000

  switch (DataOrder)
34187e66:	4608      	mov	r0, r1
34187e68:	b979      	cbnz	r1, 34187e8a <SAL_XSPI_UpdateMemoryType+0x2e>
  {
    case SAL_XSPI_ORDERINVERTED :
      if (memorytype == HAL_XSPI_MEMTYPE_MICRON)
34187e6a:	b133      	cbz	r3, 34187e7a <SAL_XSPI_UpdateMemoryType+0x1e>
      {
        memorytype = HAL_XSPI_MEMTYPE_MACRONIX;
      }
      else if (memorytype == HAL_XSPI_MEMTYPE_MACRONIX)
34187e6c:	f1b3 7f80 	cmp.w	r3, #16777216	@ 0x1000000
34187e70:	d001      	beq.n	34187e76 <SAL_XSPI_UpdateMemoryType+0x1a>
      {
        memorytype = HAL_XSPI_MEMTYPE_MICRON;
      }
      else
      {
        retr = HAL_ERROR;
34187e72:	2001      	movs	r0, #1
34187e74:	e003      	b.n	34187e7e <SAL_XSPI_UpdateMemoryType+0x22>
        memorytype = HAL_XSPI_MEMTYPE_MICRON;
34187e76:	2300      	movs	r3, #0
34187e78:	e001      	b.n	34187e7e <SAL_XSPI_UpdateMemoryType+0x22>
        memorytype = HAL_XSPI_MEMTYPE_MACRONIX;
34187e7a:	f04f 7380 	mov.w	r3, #16777216	@ 0x1000000
      }
      MODIFY_REG(SalXspi->hxspi->Instance->DCR1, XSPI_DCR1_MTYP, memorytype);
34187e7e:	6891      	ldr	r1, [r2, #8]
34187e80:	f021 61e0 	bic.w	r1, r1, #117440512	@ 0x7000000
34187e84:	430b      	orrs	r3, r1
34187e86:	6093      	str	r3, [r2, #8]

  DEBUG_PARAM_BEGIN();
  DEBUG_PARAM_DATA("::SAL_XSPI_UpdateMemoryType::");
  DEBUG_PARAM_INT(memorytype);
  DEBUG_PARAM_END();
  return retr;
34187e88:	4770      	bx	lr
      return HAL_ERROR;
34187e8a:	2001      	movs	r0, #1
}
34187e8c:	4770      	bx	lr

34187e8e <SAL_XSPI_Abort>:

HAL_StatusTypeDef SAL_XSPI_Abort(SAL_XSPI_ObjectTypeDef *SalXspi)
{
34187e8e:	b508      	push	{r3, lr}
  return HAL_XSPI_Abort(SalXspi->hxspi);
34187e90:	6800      	ldr	r0, [r0, #0]
34187e92:	f7ff fb51 	bl	34187538 <HAL_XSPI_Abort>
}
34187e96:	bd08      	pop	{r3, pc}

34187e98 <XSPI_FormatCommand>:
  * @return Formatted command
  */
uint16_t XSPI_FormatCommand(uint8_t CommandExtension, uint32_t InstructionWidth, uint8_t Command)
{
  uint16_t retr;
  if (InstructionWidth == HAL_XSPI_INSTRUCTION_16_BITS)
34187e98:	2910      	cmp	r1, #16
34187e9a:	d001      	beq.n	34187ea0 <XSPI_FormatCommand+0x8>
      retr |= (uint8_t)(Command & 0xFFu);
    }
  }
  else
  {
    retr = Command;
34187e9c:	4610      	mov	r0, r2
  }

  return retr;
}
34187e9e:	4770      	bx	lr
    retr = ((uint16_t)Command << 8u);
34187ea0:	0213      	lsls	r3, r2, #8
    if (CommandExtension == 1u)
34187ea2:	2801      	cmp	r0, #1
34187ea4:	d002      	beq.n	34187eac <XSPI_FormatCommand+0x14>
      retr |= (uint8_t)(Command & 0xFFu);
34187ea6:	ea42 0003 	orr.w	r0, r2, r3
34187eaa:	4770      	bx	lr
      retr |= (uint8_t)(~Command & 0xFFu);
34187eac:	43d2      	mvns	r2, r2
34187eae:	b2d2      	uxtb	r2, r2
34187eb0:	ea42 0003 	orr.w	r0, r2, r3
34187eb4:	4770      	bx	lr

34187eb6 <SAL_XSPI_GetSFDP>:
{
34187eb6:	b5f0      	push	{r4, r5, r6, r7, lr}
34187eb8:	b095      	sub	sp, #84	@ 0x54
34187eba:	4604      	mov	r4, r0
34187ebc:	460e      	mov	r6, r1
34187ebe:	4617      	mov	r7, r2
34187ec0:	461d      	mov	r5, r3
  XSPI_RegularCmdTypeDef s_command = SalXspi->Commandbase;
34187ec2:	224c      	movs	r2, #76	@ 0x4c
34187ec4:	1d01      	adds	r1, r0, #4
34187ec6:	a801      	add	r0, sp, #4
34187ec8:	f001 fc96 	bl	341897f8 <memcpy>
  s_command.Instruction = XSPI_FormatCommand(SalXspi->CommandExtension, s_command.InstructionWidth,
34187ecc:	225a      	movs	r2, #90	@ 0x5a
34187ece:	9905      	ldr	r1, [sp, #20]
34187ed0:	f894 0050 	ldrb.w	r0, [r4, #80]	@ 0x50
34187ed4:	f7ff ffe0 	bl	34187e98 <XSPI_FormatCommand>
34187ed8:	9003      	str	r0, [sp, #12]
  s_command.Address     = Address;
34187eda:	9607      	str	r6, [sp, #28]
  s_command.DataLength  = DataSize;
34187edc:	9510      	str	r5, [sp, #64]	@ 0x40
  s_command.DummyCycles = SalXspi->SFDPDummyCycle;
34187ede:	f894 3051 	ldrb.w	r3, [r4, #81]	@ 0x51
34187ee2:	9312      	str	r3, [sp, #72]	@ 0x48
  if ((s_command.AddressMode == HAL_XSPI_ADDRESS_1_LINE) || (s_command.AddressMode == HAL_XSPI_ADDRESS_4_LINES))
34187ee4:	9b08      	ldr	r3, [sp, #32]
34187ee6:	f5b3 7f80 	cmp.w	r3, #256	@ 0x100
34187eea:	d002      	beq.n	34187ef2 <SAL_XSPI_GetSFDP+0x3c>
34187eec:	f5b3 7f40 	cmp.w	r3, #768	@ 0x300
34187ef0:	d102      	bne.n	34187ef8 <SAL_XSPI_GetSFDP+0x42>
    s_command.AddressWidth = HAL_XSPI_ADDRESS_24_BITS;
34187ef2:	f44f 5300 	mov.w	r3, #8192	@ 0x2000
34187ef6:	9309      	str	r3, [sp, #36]	@ 0x24
  if (s_command.DataDTRMode == HAL_XSPI_DATA_DTR_ENABLE)
34187ef8:	9b11      	ldr	r3, [sp, #68]	@ 0x44
34187efa:	f1b3 6f00 	cmp.w	r3, #134217728	@ 0x8000000
34187efe:	d00e      	beq.n	34187f1e <SAL_XSPI_GetSFDP+0x68>
    s_command.DQSMode = HAL_XSPI_DQS_DISABLE;
34187f00:	2300      	movs	r3, #0
34187f02:	9313      	str	r3, [sp, #76]	@ 0x4c
  retr = HAL_XSPI_Command(SalXspi->hxspi, &s_command, SAL_XSPI_TIMEOUT_DEFAULT_VALUE);
34187f04:	2264      	movs	r2, #100	@ 0x64
34187f06:	a901      	add	r1, sp, #4
34187f08:	6820      	ldr	r0, [r4, #0]
34187f0a:	f7ff f95a 	bl	341871c2 <HAL_XSPI_Command>
  if (retr  != HAL_OK)
34187f0e:	4605      	mov	r5, r0
34187f10:	b148      	cbz	r0, 34187f26 <SAL_XSPI_GetSFDP+0x70>
    (void)HAL_XSPI_Abort(SalXspi->hxspi);
34187f12:	6820      	ldr	r0, [r4, #0]
34187f14:	f7ff fb10 	bl	34187538 <HAL_XSPI_Abort>
}
34187f18:	4628      	mov	r0, r5
34187f1a:	b015      	add	sp, #84	@ 0x54
34187f1c:	bdf0      	pop	{r4, r5, r6, r7, pc}
    s_command.DQSMode = HAL_XSPI_DQS_ENABLE;
34187f1e:	f04f 5300 	mov.w	r3, #536870912	@ 0x20000000
34187f22:	9313      	str	r3, [sp, #76]	@ 0x4c
34187f24:	e7ee      	b.n	34187f04 <SAL_XSPI_GetSFDP+0x4e>
  retr = HAL_XSPI_Receive(SalXspi->hxspi, Data, SAL_XSPI_TIMEOUT_DEFAULT_VALUE);
34187f26:	2264      	movs	r2, #100	@ 0x64
34187f28:	4639      	mov	r1, r7
34187f2a:	6820      	ldr	r0, [r4, #0]
34187f2c:	f7ff f9f9 	bl	34187322 <HAL_XSPI_Receive>
  if (retr != HAL_OK)
34187f30:	4605      	mov	r5, r0
34187f32:	2800      	cmp	r0, #0
34187f34:	d0f0      	beq.n	34187f18 <SAL_XSPI_GetSFDP+0x62>
34187f36:	e7ec      	b.n	34187f12 <SAL_XSPI_GetSFDP+0x5c>

34187f38 <SAL_XSPI_GetId>:
{
34187f38:	b570      	push	{r4, r5, r6, lr}
34187f3a:	b094      	sub	sp, #80	@ 0x50
34187f3c:	4604      	mov	r4, r0
34187f3e:	460e      	mov	r6, r1
34187f40:	4615      	mov	r5, r2
  XSPI_RegularCmdTypeDef s_command = SalXspi->Commandbase;
34187f42:	224c      	movs	r2, #76	@ 0x4c
34187f44:	1d01      	adds	r1, r0, #4
34187f46:	a801      	add	r0, sp, #4
34187f48:	f001 fc56 	bl	341897f8 <memcpy>
  s_command.Instruction = XSPI_FormatCommand(SalXspi->CommandExtension, s_command.InstructionWidth,
34187f4c:	229f      	movs	r2, #159	@ 0x9f
34187f4e:	9905      	ldr	r1, [sp, #20]
34187f50:	f894 0050 	ldrb.w	r0, [r4, #80]	@ 0x50
34187f54:	f7ff ffa0 	bl	34187e98 <XSPI_FormatCommand>
34187f58:	9003      	str	r0, [sp, #12]
  s_command.DataLength  = DataSize;
34187f5a:	9510      	str	r5, [sp, #64]	@ 0x40
  if (s_command.InstructionMode == HAL_XSPI_INSTRUCTION_1_LINE)
34187f5c:	9b04      	ldr	r3, [sp, #16]
34187f5e:	2b01      	cmp	r3, #1
34187f60:	d008      	beq.n	34187f74 <SAL_XSPI_GetId+0x3c>
  else if (s_command.InstructionMode == HAL_XSPI_INSTRUCTION_4_LINES)
34187f62:	2b03      	cmp	r3, #3
34187f64:	d019      	beq.n	34187f9a <SAL_XSPI_GetId+0x62>
  else if (s_command.InstructionMode == HAL_XSPI_INSTRUCTION_8_LINES)
34187f66:	2b04      	cmp	r3, #4
34187f68:	d01e      	beq.n	34187fa8 <SAL_XSPI_GetId+0x70>
    s_command.Address = 0;
34187f6a:	2300      	movs	r3, #0
34187f6c:	9307      	str	r3, [sp, #28]
    s_command.DummyCycles = 8;
34187f6e:	2308      	movs	r3, #8
34187f70:	9312      	str	r3, [sp, #72]	@ 0x48
34187f72:	e005      	b.n	34187f80 <SAL_XSPI_GetId+0x48>
    s_command.AddressMode       = HAL_XSPI_ADDRESS_NONE;
34187f74:	2300      	movs	r3, #0
34187f76:	9308      	str	r3, [sp, #32]
    s_command.DummyCycles       = 0;
34187f78:	9312      	str	r3, [sp, #72]	@ 0x48
    s_command.DataMode = HAL_XSPI_DATA_1_LINE;
34187f7a:	f04f 7380 	mov.w	r3, #16777216	@ 0x1000000
34187f7e:	930f      	str	r3, [sp, #60]	@ 0x3c
  retr = HAL_XSPI_Command(SalXspi->hxspi, &s_command, SAL_XSPI_TIMEOUT_DEFAULT_VALUE);
34187f80:	2264      	movs	r2, #100	@ 0x64
34187f82:	a901      	add	r1, sp, #4
34187f84:	6820      	ldr	r0, [r4, #0]
34187f86:	f7ff f91c 	bl	341871c2 <HAL_XSPI_Command>
  if (retr  != HAL_OK)
34187f8a:	4605      	mov	r5, r0
34187f8c:	b340      	cbz	r0, 34187fe0 <SAL_XSPI_GetId+0xa8>
    (void)HAL_XSPI_Abort(SalXspi->hxspi);
34187f8e:	6820      	ldr	r0, [r4, #0]
34187f90:	f7ff fad2 	bl	34187538 <HAL_XSPI_Abort>
}
34187f94:	4628      	mov	r0, r5
34187f96:	b014      	add	sp, #80	@ 0x50
34187f98:	bd70      	pop	{r4, r5, r6, pc}
    s_command.AddressMode       = HAL_XSPI_ADDRESS_NONE;
34187f9a:	2300      	movs	r3, #0
34187f9c:	9308      	str	r3, [sp, #32]
    s_command.DummyCycles       = 0;
34187f9e:	9312      	str	r3, [sp, #72]	@ 0x48
    s_command.DataMode          = HAL_XSPI_DATA_4_LINES;
34187fa0:	f04f 7340 	mov.w	r3, #50331648	@ 0x3000000
34187fa4:	930f      	str	r3, [sp, #60]	@ 0x3c
34187fa6:	e7eb      	b.n	34187f80 <SAL_XSPI_GetId+0x48>
    s_command.Address = 0;
34187fa8:	2300      	movs	r3, #0
34187faa:	9307      	str	r3, [sp, #28]
    if ((Data[0] == 0xC2) && (s_command.DataDTRMode == HAL_XSPI_DATA_DTR_ENABLE))
34187fac:	7833      	ldrb	r3, [r6, #0]
34187fae:	2bc2      	cmp	r3, #194	@ 0xc2
34187fb0:	d004      	beq.n	34187fbc <SAL_XSPI_GetId+0x84>
    else if ((Data[0] == 0xC8) && (s_command.DataDTRMode == HAL_XSPI_DATA_DTR_ENABLE))
34187fb2:	2bc8      	cmp	r3, #200	@ 0xc8
34187fb4:	d00b      	beq.n	34187fce <SAL_XSPI_GetId+0x96>
      s_command.DummyCycles = 8;
34187fb6:	2308      	movs	r3, #8
34187fb8:	9312      	str	r3, [sp, #72]	@ 0x48
34187fba:	e7e1      	b.n	34187f80 <SAL_XSPI_GetId+0x48>
    if ((Data[0] == 0xC2) && (s_command.DataDTRMode == HAL_XSPI_DATA_DTR_ENABLE))
34187fbc:	9a11      	ldr	r2, [sp, #68]	@ 0x44
34187fbe:	f1b2 6f00 	cmp.w	r2, #134217728	@ 0x8000000
34187fc2:	d1f6      	bne.n	34187fb2 <SAL_XSPI_GetId+0x7a>
      s_command.DummyCycles       = 4;
34187fc4:	2304      	movs	r3, #4
34187fc6:	9312      	str	r3, [sp, #72]	@ 0x48
      s_command.DataDTRMode       = HAL_XSPI_DATA_DTR_DISABLE;
34187fc8:	2300      	movs	r3, #0
34187fca:	9311      	str	r3, [sp, #68]	@ 0x44
34187fcc:	e7d8      	b.n	34187f80 <SAL_XSPI_GetId+0x48>
    else if ((Data[0] == 0xC8) && (s_command.DataDTRMode == HAL_XSPI_DATA_DTR_ENABLE))
34187fce:	9b11      	ldr	r3, [sp, #68]	@ 0x44
34187fd0:	f1b3 6f00 	cmp.w	r3, #134217728	@ 0x8000000
34187fd4:	d1ef      	bne.n	34187fb6 <SAL_XSPI_GetId+0x7e>
      s_command.DummyCycles       = 8;
34187fd6:	2308      	movs	r3, #8
34187fd8:	9312      	str	r3, [sp, #72]	@ 0x48
      s_command.AddressMode       = HAL_XSPI_ADDRESS_NONE;
34187fda:	2300      	movs	r3, #0
34187fdc:	9308      	str	r3, [sp, #32]
34187fde:	e7cf      	b.n	34187f80 <SAL_XSPI_GetId+0x48>
  retr = HAL_XSPI_Receive(SalXspi->hxspi, Data, SAL_XSPI_TIMEOUT_DEFAULT_VALUE);
34187fe0:	2264      	movs	r2, #100	@ 0x64
34187fe2:	4631      	mov	r1, r6
34187fe4:	6820      	ldr	r0, [r4, #0]
34187fe6:	f7ff f99c 	bl	34187322 <HAL_XSPI_Receive>
  if (retr != HAL_OK)
34187fea:	4605      	mov	r5, r0
34187fec:	2800      	cmp	r0, #0
34187fee:	d0d1      	beq.n	34187f94 <SAL_XSPI_GetId+0x5c>
34187ff0:	e7cd      	b.n	34187f8e <SAL_XSPI_GetId+0x56>

34187ff2 <SAL_XSPI_CommandSendAddress>:
{
34187ff2:	b570      	push	{r4, r5, r6, lr}
34187ff4:	b094      	sub	sp, #80	@ 0x50
34187ff6:	4604      	mov	r4, r0
34187ff8:	460e      	mov	r6, r1
34187ffa:	4615      	mov	r5, r2
  XSPI_RegularCmdTypeDef s_command = SalXspi->Commandbase;
34187ffc:	224c      	movs	r2, #76	@ 0x4c
34187ffe:	1d01      	adds	r1, r0, #4
34188000:	a801      	add	r0, sp, #4
34188002:	f001 fbf9 	bl	341897f8 <memcpy>
  s_command.Instruction = XSPI_FormatCommand(SalXspi->CommandExtension, s_command.InstructionWidth, Command);
34188006:	4632      	mov	r2, r6
34188008:	9905      	ldr	r1, [sp, #20]
3418800a:	f894 0050 	ldrb.w	r0, [r4, #80]	@ 0x50
3418800e:	f7ff ff43 	bl	34187e98 <XSPI_FormatCommand>
34188012:	9003      	str	r0, [sp, #12]
  if (s_command.InstructionMode == HAL_XSPI_INSTRUCTION_1_LINE)
34188014:	9b04      	ldr	r3, [sp, #16]
34188016:	2b01      	cmp	r3, #1
34188018:	d00e      	beq.n	34188038 <SAL_XSPI_CommandSendAddress+0x46>
  s_command.Address           = Address;
3418801a:	9507      	str	r5, [sp, #28]
  s_command.DummyCycles       = 0U;
3418801c:	2300      	movs	r3, #0
3418801e:	9312      	str	r3, [sp, #72]	@ 0x48
  s_command.DataMode          = HAL_XSPI_DATA_NONE;
34188020:	930f      	str	r3, [sp, #60]	@ 0x3c
  s_command.DQSMode           = HAL_XSPI_DQS_DISABLE;
34188022:	9313      	str	r3, [sp, #76]	@ 0x4c
  retr = HAL_XSPI_Command(SalXspi->hxspi, &s_command, SAL_XSPI_TIMEOUT_DEFAULT_VALUE);
34188024:	2264      	movs	r2, #100	@ 0x64
34188026:	a901      	add	r1, sp, #4
34188028:	6820      	ldr	r0, [r4, #0]
3418802a:	f7ff f8ca 	bl	341871c2 <HAL_XSPI_Command>
  if (retr != HAL_OK)
3418802e:	4605      	mov	r5, r0
34188030:	b930      	cbnz	r0, 34188040 <SAL_XSPI_CommandSendAddress+0x4e>
}
34188032:	4628      	mov	r0, r5
34188034:	b014      	add	sp, #80	@ 0x50
34188036:	bd70      	pop	{r4, r5, r6, pc}
    s_command.AddressMode = HAL_XSPI_ADDRESS_1_LINE;
34188038:	f44f 7380 	mov.w	r3, #256	@ 0x100
3418803c:	9308      	str	r3, [sp, #32]
3418803e:	e7ec      	b.n	3418801a <SAL_XSPI_CommandSendAddress+0x28>
    (void)HAL_XSPI_Abort(SalXspi->hxspi);
34188040:	6820      	ldr	r0, [r4, #0]
34188042:	f7ff fa79 	bl	34187538 <HAL_XSPI_Abort>
34188046:	e7f4      	b.n	34188032 <SAL_XSPI_CommandSendAddress+0x40>

34188048 <SAL_XSPI_CommandSendData>:
{
34188048:	b5f0      	push	{r4, r5, r6, r7, lr}
3418804a:	b095      	sub	sp, #84	@ 0x54
3418804c:	4604      	mov	r4, r0
3418804e:	460e      	mov	r6, r1
34188050:	4617      	mov	r7, r2
34188052:	461d      	mov	r5, r3
  XSPI_RegularCmdTypeDef   s_command = SalXspi->Commandbase;
34188054:	224c      	movs	r2, #76	@ 0x4c
34188056:	1d01      	adds	r1, r0, #4
34188058:	a801      	add	r0, sp, #4
3418805a:	f001 fbcd 	bl	341897f8 <memcpy>
  s_command.Instruction = XSPI_FormatCommand(SalXspi->CommandExtension, s_command.InstructionWidth, Command);
3418805e:	4632      	mov	r2, r6
34188060:	9905      	ldr	r1, [sp, #20]
34188062:	f894 0050 	ldrb.w	r0, [r4, #80]	@ 0x50
34188066:	f7ff ff17 	bl	34187e98 <XSPI_FormatCommand>
3418806a:	9003      	str	r0, [sp, #12]
  s_command.AddressMode        = HAL_XSPI_ADDRESS_NONE;
3418806c:	2300      	movs	r3, #0
3418806e:	9308      	str	r3, [sp, #32]
  s_command.DummyCycles        = 0U;
34188070:	9312      	str	r3, [sp, #72]	@ 0x48
  s_command.DataLength         = DataSize;
34188072:	9510      	str	r5, [sp, #64]	@ 0x40
  s_command.DQSMode            = HAL_XSPI_DQS_DISABLE;
34188074:	9313      	str	r3, [sp, #76]	@ 0x4c
  if (DataSize == 0u)
34188076:	b905      	cbnz	r5, 3418807a <SAL_XSPI_CommandSendData+0x32>
    s_command.DataMode         = HAL_XSPI_DATA_NONE;
34188078:	930f      	str	r3, [sp, #60]	@ 0x3c
  retr = HAL_XSPI_Command(SalXspi->hxspi, &s_command, SAL_XSPI_TIMEOUT_DEFAULT_VALUE);
3418807a:	2264      	movs	r2, #100	@ 0x64
3418807c:	a901      	add	r1, sp, #4
3418807e:	6820      	ldr	r0, [r4, #0]
34188080:	f7ff f89f 	bl	341871c2 <HAL_XSPI_Command>
  if ((retr == HAL_OK) && (DataSize != 0u))
34188084:	4606      	mov	r6, r0
34188086:	b908      	cbnz	r0, 3418808c <SAL_XSPI_CommandSendData+0x44>
34188088:	b935      	cbnz	r5, 34188098 <SAL_XSPI_CommandSendData+0x50>
  if (retr != HAL_OK)
3418808a:	b116      	cbz	r6, 34188092 <SAL_XSPI_CommandSendData+0x4a>
    (void)HAL_XSPI_Abort(SalXspi->hxspi);
3418808c:	6820      	ldr	r0, [r4, #0]
3418808e:	f7ff fa53 	bl	34187538 <HAL_XSPI_Abort>
}
34188092:	4630      	mov	r0, r6
34188094:	b015      	add	sp, #84	@ 0x54
34188096:	bdf0      	pop	{r4, r5, r6, r7, pc}
    retr = HAL_XSPI_Transmit(SalXspi->hxspi, Data, SAL_XSPI_TIMEOUT_DEFAULT_VALUE);
34188098:	2264      	movs	r2, #100	@ 0x64
3418809a:	4639      	mov	r1, r7
3418809c:	6820      	ldr	r0, [r4, #0]
3418809e:	f7ff f8f3 	bl	34187288 <HAL_XSPI_Transmit>
341880a2:	4606      	mov	r6, r0
341880a4:	e7f1      	b.n	3418808a <SAL_XSPI_CommandSendData+0x42>

341880a6 <SAL_XSPI_SendReadCommand>:
{
341880a6:	b5f0      	push	{r4, r5, r6, r7, lr}
341880a8:	b095      	sub	sp, #84	@ 0x54
341880aa:	4604      	mov	r4, r0
341880ac:	460e      	mov	r6, r1
341880ae:	4617      	mov	r7, r2
341880b0:	461d      	mov	r5, r3
  XSPI_RegularCmdTypeDef   s_command = SalXspi->Commandbase;
341880b2:	224c      	movs	r2, #76	@ 0x4c
341880b4:	1d01      	adds	r1, r0, #4
341880b6:	a801      	add	r0, sp, #4
341880b8:	f001 fb9e 	bl	341897f8 <memcpy>
  s_command.Instruction = XSPI_FormatCommand(SalXspi->CommandExtension, s_command.InstructionWidth, Command);
341880bc:	4632      	mov	r2, r6
341880be:	9905      	ldr	r1, [sp, #20]
341880c0:	f894 0050 	ldrb.w	r0, [r4, #80]	@ 0x50
341880c4:	f7ff fee8 	bl	34187e98 <XSPI_FormatCommand>
341880c8:	9003      	str	r0, [sp, #12]
  s_command.AddressMode        = HAL_XSPI_ADDRESS_NONE;
341880ca:	2300      	movs	r3, #0
341880cc:	9308      	str	r3, [sp, #32]
  s_command.DummyCycles        = 0u;
341880ce:	9312      	str	r3, [sp, #72]	@ 0x48
  s_command.DataLength         = DataSize;
341880d0:	9510      	str	r5, [sp, #64]	@ 0x40
  s_command.DQSMode            = HAL_XSPI_DQS_DISABLE;
341880d2:	9313      	str	r3, [sp, #76]	@ 0x4c
  if (DataSize == 0u)
341880d4:	b905      	cbnz	r5, 341880d8 <SAL_XSPI_SendReadCommand+0x32>
    s_command.DataMode         = HAL_XSPI_DATA_NONE;
341880d6:	930f      	str	r3, [sp, #60]	@ 0x3c
  retr = HAL_XSPI_Command(SalXspi->hxspi, &s_command, SAL_XSPI_TIMEOUT_DEFAULT_VALUE);
341880d8:	2264      	movs	r2, #100	@ 0x64
341880da:	a901      	add	r1, sp, #4
341880dc:	6820      	ldr	r0, [r4, #0]
341880de:	f7ff f870 	bl	341871c2 <HAL_XSPI_Command>
  if ((retr == HAL_OK) && (DataSize != 0u))
341880e2:	4606      	mov	r6, r0
341880e4:	b908      	cbnz	r0, 341880ea <SAL_XSPI_SendReadCommand+0x44>
341880e6:	b935      	cbnz	r5, 341880f6 <SAL_XSPI_SendReadCommand+0x50>
  if (retr != HAL_OK)
341880e8:	b116      	cbz	r6, 341880f0 <SAL_XSPI_SendReadCommand+0x4a>
    (void)HAL_XSPI_Abort(SalXspi->hxspi);
341880ea:	6820      	ldr	r0, [r4, #0]
341880ec:	f7ff fa24 	bl	34187538 <HAL_XSPI_Abort>
}
341880f0:	4630      	mov	r0, r6
341880f2:	b015      	add	sp, #84	@ 0x54
341880f4:	bdf0      	pop	{r4, r5, r6, r7, pc}
    retr = HAL_XSPI_Receive(SalXspi->hxspi, Data, SAL_XSPI_TIMEOUT_DEFAULT_VALUE);
341880f6:	2264      	movs	r2, #100	@ 0x64
341880f8:	4639      	mov	r1, r7
341880fa:	6820      	ldr	r0, [r4, #0]
341880fc:	f7ff f911 	bl	34187322 <HAL_XSPI_Receive>
34188100:	4606      	mov	r6, r0
34188102:	e7f1      	b.n	341880e8 <SAL_XSPI_SendReadCommand+0x42>

34188104 <SAL_XSPI_CommandSendReadAddress>:
{
34188104:	e92d 41f0 	stmdb	sp!, {r4, r5, r6, r7, r8, lr}
34188108:	b094      	sub	sp, #80	@ 0x50
3418810a:	4604      	mov	r4, r0
3418810c:	460e      	mov	r6, r1
3418810e:	4615      	mov	r5, r2
34188110:	461f      	mov	r7, r3
34188112:	f89d 806c 	ldrb.w	r8, [sp, #108]	@ 0x6c
  XSPI_RegularCmdTypeDef   s_command = SalXspi->Commandbase;
34188116:	224c      	movs	r2, #76	@ 0x4c
34188118:	1d01      	adds	r1, r0, #4
3418811a:	a801      	add	r0, sp, #4
3418811c:	f001 fb6c 	bl	341897f8 <memcpy>
  s_command.Instruction = XSPI_FormatCommand(SalXspi->CommandExtension, s_command.InstructionWidth, Command);
34188120:	4632      	mov	r2, r6
34188122:	9905      	ldr	r1, [sp, #20]
34188124:	f894 0050 	ldrb.w	r0, [r4, #80]	@ 0x50
34188128:	f7ff feb6 	bl	34187e98 <XSPI_FormatCommand>
3418812c:	9003      	str	r0, [sp, #12]
  s_command.Address            = Address;
3418812e:	9507      	str	r5, [sp, #28]
  s_command.DummyCycles        = SalXspi->SFDPDummyCycle;
34188130:	f894 3051 	ldrb.w	r3, [r4, #81]	@ 0x51
34188134:	9312      	str	r3, [sp, #72]	@ 0x48
  s_command.DataLength         = DataSize;
34188136:	f8bd 3068 	ldrh.w	r3, [sp, #104]	@ 0x68
3418813a:	9310      	str	r3, [sp, #64]	@ 0x40
  if ((ManuId == EXTMEM_MANUFACTURER_MACRONIX) && (s_command.DataDTRMode == HAL_XSPI_DATA_DTR_ENABLE))
3418813c:	f1b8 0fc2 	cmp.w	r8, #194	@ 0xc2
34188140:	d019      	beq.n	34188176 <SAL_XSPI_CommandSendReadAddress+0x72>
  else if ((ManuId == 0xC8) && (s_command.DataDTRMode == HAL_XSPI_DATA_DTR_ENABLE))
34188142:	f1b8 0fc8 	cmp.w	r8, #200	@ 0xc8
34188146:	d01d      	beq.n	34188184 <SAL_XSPI_CommandSendReadAddress+0x80>
    s_command.DQSMode          = HAL_XSPI_DQS_DISABLE;
34188148:	2300      	movs	r3, #0
3418814a:	9313      	str	r3, [sp, #76]	@ 0x4c
  retr = HAL_XSPI_Command(SalXspi->hxspi, &s_command, SAL_XSPI_TIMEOUT_DEFAULT_VALUE);
3418814c:	2264      	movs	r2, #100	@ 0x64
3418814e:	a901      	add	r1, sp, #4
34188150:	6820      	ldr	r0, [r4, #0]
34188152:	f7ff f836 	bl	341871c2 <HAL_XSPI_Command>
  if (retr == HAL_OK)
34188156:	4605      	mov	r5, r0
34188158:	b930      	cbnz	r0, 34188168 <SAL_XSPI_CommandSendReadAddress+0x64>
    retr = HAL_XSPI_Receive(SalXspi->hxspi, Data, SAL_XSPI_TIMEOUT_DEFAULT_VALUE);
3418815a:	2264      	movs	r2, #100	@ 0x64
3418815c:	4639      	mov	r1, r7
3418815e:	6820      	ldr	r0, [r4, #0]
34188160:	f7ff f8df 	bl	34187322 <HAL_XSPI_Receive>
  if (retr != HAL_OK)
34188164:	4605      	mov	r5, r0
34188166:	b110      	cbz	r0, 3418816e <SAL_XSPI_CommandSendReadAddress+0x6a>
    (void)HAL_XSPI_Abort(SalXspi->hxspi);
34188168:	6820      	ldr	r0, [r4, #0]
3418816a:	f7ff f9e5 	bl	34187538 <HAL_XSPI_Abort>
}
3418816e:	4628      	mov	r0, r5
34188170:	b014      	add	sp, #80	@ 0x50
34188172:	e8bd 81f0 	ldmia.w	sp!, {r4, r5, r6, r7, r8, pc}
  if ((ManuId == EXTMEM_MANUFACTURER_MACRONIX) && (s_command.DataDTRMode == HAL_XSPI_DATA_DTR_ENABLE))
34188176:	9b11      	ldr	r3, [sp, #68]	@ 0x44
34188178:	f1b3 6f00 	cmp.w	r3, #134217728	@ 0x8000000
3418817c:	d1e1      	bne.n	34188142 <SAL_XSPI_CommandSendReadAddress+0x3e>
    s_command.DataDTRMode      = HAL_XSPI_DATA_DTR_DISABLE;
3418817e:	2300      	movs	r3, #0
34188180:	9311      	str	r3, [sp, #68]	@ 0x44
34188182:	e7e3      	b.n	3418814c <SAL_XSPI_CommandSendReadAddress+0x48>
  else if ((ManuId == 0xC8) && (s_command.DataDTRMode == HAL_XSPI_DATA_DTR_ENABLE))
34188184:	9b11      	ldr	r3, [sp, #68]	@ 0x44
34188186:	f1b3 6f00 	cmp.w	r3, #134217728	@ 0x8000000
3418818a:	d1dd      	bne.n	34188148 <SAL_XSPI_CommandSendReadAddress+0x44>
    s_command.DataDTRMode      = HAL_XSPI_DATA_DTR_DISABLE;
3418818c:	2300      	movs	r3, #0
3418818e:	9311      	str	r3, [sp, #68]	@ 0x44
    s_command.DQSMode          = HAL_XSPI_DQS_DISABLE;
34188190:	9313      	str	r3, [sp, #76]	@ 0x4c
34188192:	e7db      	b.n	3418814c <SAL_XSPI_CommandSendReadAddress+0x48>

34188194 <SAL_XSPI_CheckStatusRegister>:
{
34188194:	b5f0      	push	{r4, r5, r6, r7, lr}
34188196:	b099      	sub	sp, #100	@ 0x64
34188198:	4604      	mov	r4, r0
3418819a:	460d      	mov	r5, r1
3418819c:	4617      	mov	r7, r2
3418819e:	461e      	mov	r6, r3
  XSPI_RegularCmdTypeDef s_command = SalXspi->Commandbase;
341881a0:	224c      	movs	r2, #76	@ 0x4c
341881a2:	1d01      	adds	r1, r0, #4
341881a4:	a805      	add	r0, sp, #20
341881a6:	f001 fb27 	bl	341897f8 <memcpy>
  XSPI_AutoPollingTypeDef  s_config =
341881aa:	9600      	str	r6, [sp, #0]
341881ac:	f89d 3078 	ldrb.w	r3, [sp, #120]	@ 0x78
341881b0:	9301      	str	r3, [sp, #4]
341881b2:	2600      	movs	r6, #0
341881b4:	9602      	str	r6, [sp, #8]
341881b6:	f44f 0380 	mov.w	r3, #4194304	@ 0x400000
341881ba:	9303      	str	r3, [sp, #12]
341881bc:	2310      	movs	r3, #16
341881be:	9304      	str	r3, [sp, #16]
  s_command.Instruction = XSPI_FormatCommand(SalXspi->CommandExtension, s_command.InstructionWidth, Command);
341881c0:	462a      	mov	r2, r5
341881c2:	9909      	ldr	r1, [sp, #36]	@ 0x24
341881c4:	f894 0050 	ldrb.w	r0, [r4, #80]	@ 0x50
341881c8:	f7ff fe66 	bl	34187e98 <XSPI_FormatCommand>
341881cc:	9007      	str	r0, [sp, #28]
  s_command.DataLength     = 1u;
341881ce:	2301      	movs	r3, #1
341881d0:	9314      	str	r3, [sp, #80]	@ 0x50
  s_command.DQSMode        = HAL_XSPI_DQS_DISABLE;
341881d2:	9617      	str	r6, [sp, #92]	@ 0x5c
  if (s_command.InstructionMode == HAL_XSPI_INSTRUCTION_1_LINE)
341881d4:	9b08      	ldr	r3, [sp, #32]
341881d6:	2b01      	cmp	r3, #1
341881d8:	d017      	beq.n	3418820a <SAL_XSPI_CheckStatusRegister+0x76>
  if (s_command.DataMode == HAL_XSPI_DATA_8_LINES)
341881da:	9b13      	ldr	r3, [sp, #76]	@ 0x4c
341881dc:	f1b3 6f80 	cmp.w	r3, #67108864	@ 0x4000000
341881e0:	d019      	beq.n	34188216 <SAL_XSPI_CheckStatusRegister+0x82>
  retr = HAL_XSPI_Command(SalXspi->hxspi, &s_command, SAL_XSPI_TIMEOUT_DEFAULT_VALUE);
341881e2:	2264      	movs	r2, #100	@ 0x64
341881e4:	a905      	add	r1, sp, #20
341881e6:	6820      	ldr	r0, [r4, #0]
341881e8:	f7fe ffeb 	bl	341871c2 <HAL_XSPI_Command>
  if (retr == HAL_OK)
341881ec:	4605      	mov	r5, r0
341881ee:	b930      	cbnz	r0, 341881fe <SAL_XSPI_CheckStatusRegister+0x6a>
    retr = HAL_XSPI_AutoPolling(SalXspi->hxspi, &s_config, Timeout);
341881f0:	9a20      	ldr	r2, [sp, #128]	@ 0x80
341881f2:	4669      	mov	r1, sp
341881f4:	6820      	ldr	r0, [r4, #0]
341881f6:	f7ff f8f7 	bl	341873e8 <HAL_XSPI_AutoPolling>
  if (retr != HAL_OK)
341881fa:	4605      	mov	r5, r0
341881fc:	b110      	cbz	r0, 34188204 <SAL_XSPI_CheckStatusRegister+0x70>
    (void)HAL_XSPI_Abort(SalXspi->hxspi);
341881fe:	6820      	ldr	r0, [r4, #0]
34188200:	f7ff f99a 	bl	34187538 <HAL_XSPI_Abort>
}
34188204:	4628      	mov	r0, r5
34188206:	b019      	add	sp, #100	@ 0x64
34188208:	bdf0      	pop	{r4, r5, r6, r7, pc}
    s_command.DataMode    = HAL_XSPI_DATA_1_LINE;
3418820a:	f04f 7380 	mov.w	r3, #16777216	@ 0x1000000
3418820e:	9313      	str	r3, [sp, #76]	@ 0x4c
    s_command.AddressMode = HAL_XSPI_DATA_NONE;
34188210:	960c      	str	r6, [sp, #48]	@ 0x30
    s_command.DummyCycles = 0u;
34188212:	9616      	str	r6, [sp, #88]	@ 0x58
34188214:	e7e1      	b.n	341881da <SAL_XSPI_CheckStatusRegister+0x46>
    if ((ManuId == EXTMEM_MANUFACTURER_MACRONIX) && (s_command.DataDTRMode == HAL_XSPI_DATA_DTR_ENABLE))
34188216:	f89d 307c 	ldrb.w	r3, [sp, #124]	@ 0x7c
3418821a:	2bc2      	cmp	r3, #194	@ 0xc2
3418821c:	d007      	beq.n	3418822e <SAL_XSPI_CheckStatusRegister+0x9a>
    s_command.AddressMode    = HAL_XSPI_ADDRESS_8_LINES;
3418821e:	f44f 6380 	mov.w	r3, #1024	@ 0x400
34188222:	930c      	str	r3, [sp, #48]	@ 0x30
    s_command.AddressWidth   = HAL_XSPI_ADDRESS_32_BITS;
34188224:	f44f 5340 	mov.w	r3, #12288	@ 0x3000
34188228:	930d      	str	r3, [sp, #52]	@ 0x34
    s_command.Address        = Address;
3418822a:	970b      	str	r7, [sp, #44]	@ 0x2c
3418822c:	e7d9      	b.n	341881e2 <SAL_XSPI_CheckStatusRegister+0x4e>
    if ((ManuId == EXTMEM_MANUFACTURER_MACRONIX) && (s_command.DataDTRMode == HAL_XSPI_DATA_DTR_ENABLE))
3418822e:	9b15      	ldr	r3, [sp, #84]	@ 0x54
34188230:	f1b3 6f00 	cmp.w	r3, #134217728	@ 0x8000000
34188234:	d1f3      	bne.n	3418821e <SAL_XSPI_CheckStatusRegister+0x8a>
      s_command.DQSMode        = HAL_XSPI_DQS_ENABLE;
34188236:	f04f 5300 	mov.w	r3, #536870912	@ 0x20000000
3418823a:	9317      	str	r3, [sp, #92]	@ 0x5c
      s_command.DataDTRMode    = HAL_XSPI_DATA_DTR_DISABLE;
3418823c:	2300      	movs	r3, #0
3418823e:	9315      	str	r3, [sp, #84]	@ 0x54
34188240:	e7ed      	b.n	3418821e <SAL_XSPI_CheckStatusRegister+0x8a>

34188242 <SAL_XSPI_EnableMapMode>:
{
34188242:	b5f0      	push	{r4, r5, r6, r7, lr}
34188244:	b099      	sub	sp, #100	@ 0x64
34188246:	4604      	mov	r4, r0
34188248:	460e      	mov	r6, r1
3418824a:	4615      	mov	r5, r2
3418824c:	461f      	mov	r7, r3
  XSPI_RegularCmdTypeDef s_command = SalXspi->Commandbase;
3418824e:	224c      	movs	r2, #76	@ 0x4c
34188250:	1d01      	adds	r1, r0, #4
34188252:	a805      	add	r0, sp, #20
34188254:	f001 fad0 	bl	341897f8 <memcpy>
  XSPI_MemoryMappedTypeDef sMemMappedCfg = {0};
34188258:	2000      	movs	r0, #0
3418825a:	9001      	str	r0, [sp, #4]
3418825c:	9002      	str	r0, [sp, #8]
3418825e:	9003      	str	r0, [sp, #12]
34188260:	9004      	str	r0, [sp, #16]
  s_command.OperationType = HAL_XSPI_OPTYPE_READ_CFG;
34188262:	2301      	movs	r3, #1
34188264:	9305      	str	r3, [sp, #20]
  s_command.Instruction = XSPI_FormatCommand(SalXspi->CommandExtension, s_command.InstructionWidth, CommandRead);
34188266:	4632      	mov	r2, r6
34188268:	9909      	ldr	r1, [sp, #36]	@ 0x24
3418826a:	f894 0050 	ldrb.w	r0, [r4, #80]	@ 0x50
3418826e:	f7ff fe13 	bl	34187e98 <XSPI_FormatCommand>
34188272:	9007      	str	r0, [sp, #28]
  s_command.DummyCycles = DummyRead;
34188274:	9516      	str	r5, [sp, #88]	@ 0x58
  retr = HAL_XSPI_Command(SalXspi->hxspi, &s_command, SAL_XSPI_TIMEOUT_DEFAULT_VALUE);
34188276:	2264      	movs	r2, #100	@ 0x64
34188278:	a905      	add	r1, sp, #20
3418827a:	6820      	ldr	r0, [r4, #0]
3418827c:	f7fe ffa1 	bl	341871c2 <HAL_XSPI_Command>
  if (retr  != HAL_OK)
34188280:	4605      	mov	r5, r0
34188282:	b128      	cbz	r0, 34188290 <SAL_XSPI_EnableMapMode+0x4e>
    (void)HAL_XSPI_Abort(SalXspi->hxspi);
34188284:	6820      	ldr	r0, [r4, #0]
34188286:	f7ff f957 	bl	34187538 <HAL_XSPI_Abort>
}
3418828a:	4628      	mov	r0, r5
3418828c:	b019      	add	sp, #100	@ 0x64
3418828e:	bdf0      	pop	{r4, r5, r6, r7, pc}
  s_command.OperationType     = HAL_XSPI_OPTYPE_WRITE_CFG;
34188290:	2302      	movs	r3, #2
34188292:	9305      	str	r3, [sp, #20]
  s_command.Instruction = XSPI_FormatCommand(SalXspi->CommandExtension, s_command.InstructionWidth, CommandWrite);
34188294:	463a      	mov	r2, r7
34188296:	9909      	ldr	r1, [sp, #36]	@ 0x24
34188298:	f894 0050 	ldrb.w	r0, [r4, #80]	@ 0x50
3418829c:	f7ff fdfc 	bl	34187e98 <XSPI_FormatCommand>
341882a0:	9007      	str	r0, [sp, #28]
  s_command.DummyCycles = DummyWrite;
341882a2:	f89d 3078 	ldrb.w	r3, [sp, #120]	@ 0x78
341882a6:	9316      	str	r3, [sp, #88]	@ 0x58
  retr = HAL_XSPI_Command(SalXspi->hxspi, &s_command, SAL_XSPI_TIMEOUT_DEFAULT_VALUE);
341882a8:	2264      	movs	r2, #100	@ 0x64
341882aa:	a905      	add	r1, sp, #20
341882ac:	6820      	ldr	r0, [r4, #0]
341882ae:	f7fe ff88 	bl	341871c2 <HAL_XSPI_Command>
  if (retr  != HAL_OK)
341882b2:	4605      	mov	r5, r0
341882b4:	2800      	cmp	r0, #0
341882b6:	d1e5      	bne.n	34188284 <SAL_XSPI_EnableMapMode+0x42>
  sMemMappedCfg.TimeOutActivation  = HAL_XSPI_TIMEOUT_COUNTER_DISABLE;
341882b8:	2300      	movs	r3, #0
341882ba:	9301      	str	r3, [sp, #4]
  sMemMappedCfg.TimeoutPeriodClock = 0x50;
341882bc:	2350      	movs	r3, #80	@ 0x50
341882be:	9302      	str	r3, [sp, #8]
  retr = HAL_XSPI_MemoryMapped(SalXspi->hxspi, &sMemMappedCfg);
341882c0:	a901      	add	r1, sp, #4
341882c2:	6820      	ldr	r0, [r4, #0]
341882c4:	f7ff f8ef 	bl	341874a6 <HAL_XSPI_MemoryMapped>
  if (retr != HAL_OK)
341882c8:	4605      	mov	r5, r0
341882ca:	2800      	cmp	r0, #0
341882cc:	d0dd      	beq.n	3418828a <SAL_XSPI_EnableMapMode+0x48>
341882ce:	e7d9      	b.n	34188284 <SAL_XSPI_EnableMapMode+0x42>

341882d0 <XSPI_Transmit>:
  * @param SalXspi SAL XSPI Handle
  * @param Data Data pointer
  * @return Status of the command execution
  */
HAL_StatusTypeDef XSPI_Transmit(SAL_XSPI_ObjectTypeDef *SalXspi, const uint8_t *Data)
{
341882d0:	b508      	push	{r3, lr}
#if defined (USE_HAL_XSPI_REGISTER_CALLBACKS) && (USE_HAL_XSPI_REGISTER_CALLBACKS == 1U)
  if (SalXspi->hxspi->hdmatx == NULL)
#endif /* USE_HAL_XSPI_REGISTER_CALLBACKS */
  {
    /* Transmit data */
    retr = HAL_XSPI_Transmit(SalXspi->hxspi, Data, SAL_XSPI_TIMEOUT_DEFAULT_VALUE);
341882d2:	2264      	movs	r2, #100	@ 0x64
341882d4:	6800      	ldr	r0, [r0, #0]
341882d6:	f7fe ffd7 	bl	34187288 <HAL_XSPI_Transmit>
    }
  }
#endif /* USE_HAL_XSPI_REGISTER_CALLBACKS */

  return retr;
}
341882da:	bd08      	pop	{r3, pc}

341882dc <SAL_XSPI_Write>:
{
341882dc:	b5f0      	push	{r4, r5, r6, r7, lr}
341882de:	b095      	sub	sp, #84	@ 0x54
341882e0:	4604      	mov	r4, r0
341882e2:	460e      	mov	r6, r1
341882e4:	4615      	mov	r5, r2
341882e6:	461f      	mov	r7, r3
  XSPI_RegularCmdTypeDef s_command = SalXspi->Commandbase;
341882e8:	224c      	movs	r2, #76	@ 0x4c
341882ea:	1d01      	adds	r1, r0, #4
341882ec:	a801      	add	r0, sp, #4
341882ee:	f001 fa83 	bl	341897f8 <memcpy>
  s_command.Instruction = XSPI_FormatCommand(SalXspi->CommandExtension, s_command.InstructionWidth, Command);
341882f2:	4632      	mov	r2, r6
341882f4:	9905      	ldr	r1, [sp, #20]
341882f6:	f894 0050 	ldrb.w	r0, [r4, #80]	@ 0x50
341882fa:	f7ff fdcd 	bl	34187e98 <XSPI_FormatCommand>
341882fe:	9003      	str	r0, [sp, #12]
  s_command.Address           = Address;
34188300:	9507      	str	r5, [sp, #28]
  s_command.DataLength        = DataSize;
34188302:	9b1a      	ldr	r3, [sp, #104]	@ 0x68
34188304:	9310      	str	r3, [sp, #64]	@ 0x40
  s_command.DummyCycles       = 0u;
34188306:	2300      	movs	r3, #0
34188308:	9312      	str	r3, [sp, #72]	@ 0x48
  s_command.DQSMode           = HAL_XSPI_DQS_DISABLE;
3418830a:	9313      	str	r3, [sp, #76]	@ 0x4c
  retr = HAL_XSPI_Command(SalXspi->hxspi, &s_command, SAL_XSPI_TIMEOUT_DEFAULT_VALUE);
3418830c:	2264      	movs	r2, #100	@ 0x64
3418830e:	a901      	add	r1, sp, #4
34188310:	6820      	ldr	r0, [r4, #0]
34188312:	f7fe ff56 	bl	341871c2 <HAL_XSPI_Command>
  if (HAL_OK != retr)
34188316:	4605      	mov	r5, r0
34188318:	b128      	cbz	r0, 34188326 <SAL_XSPI_Write+0x4a>
    (void)HAL_XSPI_Abort(SalXspi->hxspi);
3418831a:	6820      	ldr	r0, [r4, #0]
3418831c:	f7ff f90c 	bl	34187538 <HAL_XSPI_Abort>
}
34188320:	4628      	mov	r0, r5
34188322:	b015      	add	sp, #84	@ 0x54
34188324:	bdf0      	pop	{r4, r5, r6, r7, pc}
  retr = XSPI_Transmit(SalXspi, Data);
34188326:	4639      	mov	r1, r7
34188328:	4620      	mov	r0, r4
3418832a:	f7ff ffd1 	bl	341882d0 <XSPI_Transmit>
  if (retr != HAL_OK)
3418832e:	4605      	mov	r5, r0
34188330:	2800      	cmp	r0, #0
34188332:	d0f5      	beq.n	34188320 <SAL_XSPI_Write+0x44>
34188334:	e7f1      	b.n	3418831a <SAL_XSPI_Write+0x3e>

34188336 <driver_check_FlagBUSY>:
  * @retval EXTMEM_DRIVER_NOR_SFDP_StatusTypeDef Status of the operation: EXTMEM_DRIVER_NOR_SFDP_OK if not busy,
  *         error code otherwise.
  */
EXTMEM_DRIVER_NOR_SFDP_StatusTypeDef driver_check_FlagBUSY(EXTMEM_DRIVER_NOR_SFDP_ObjectTypeDef *SFDPObject,
                                                           uint32_t Timeout)
{
34188336:	b510      	push	{r4, lr}
34188338:	b084      	sub	sp, #16
3418833a:	460c      	mov	r4, r1
  EXTMEM_DRIVER_NOR_SFDP_StatusTypeDef retr = EXTMEM_DRIVER_NOR_SFDP_ERROR_BUSY;
  SFDP_DEBUG_STR((uint8_t *)__func__)
  if (0u != SFDPObject->sfdp_private.DriverInfo.ReadWIPCommand)
3418833c:	f890 106c 	ldrb.w	r1, [r0, #108]	@ 0x6c
34188340:	b1d9      	cbz	r1, 3418837a <driver_check_FlagBUSY+0x44>
  {
    /* check that the WIP flag is not set */
    if (HAL_OK == SAL_XSPI_CheckStatusRegister(&SFDPObject->sfdp_private.SALObject,
                                               SFDPObject->sfdp_private.DriverInfo.ReadWIPCommand,
                                               SFDPObject->sfdp_private.DriverInfo.WIPAddress,
                                               SFDPObject->sfdp_private.DriverInfo.WIPBusyPolarity
34188342:	f890 306e 	ldrb.w	r3, [r0, #110]	@ 0x6e
                                               << SFDPObject->sfdp_private.DriverInfo.WIPPosition,
34188346:	f890 c06d 	ldrb.w	ip, [r0, #109]	@ 0x6d
3418834a:	fa03 f30c 	lsl.w	r3, r3, ip
                                               1u << SFDPObject->sfdp_private.DriverInfo.WIPPosition,
3418834e:	2201      	movs	r2, #1
34188350:	fa02 f20c 	lsl.w	r2, r2, ip
    if (HAL_OK == SAL_XSPI_CheckStatusRegister(&SFDPObject->sfdp_private.SALObject,
34188354:	9402      	str	r4, [sp, #8]
34188356:	f890 405d 	ldrb.w	r4, [r0, #93]	@ 0x5d
3418835a:	9401      	str	r4, [sp, #4]
3418835c:	b2d2      	uxtb	r2, r2
3418835e:	9200      	str	r2, [sp, #0]
34188360:	b2db      	uxtb	r3, r3
34188362:	f890 206f 	ldrb.w	r2, [r0, #111]	@ 0x6f
34188366:	3008      	adds	r0, #8
34188368:	f7ff ff14 	bl	34188194 <SAL_XSPI_CheckStatusRegister>
3418836c:	b910      	cbnz	r0, 34188374 <driver_check_FlagBUSY+0x3e>
                                               SFDPObject->sfdp_private.ManuID, Timeout))
    {
      retr = EXTMEM_DRIVER_NOR_SFDP_OK;
3418836e:	2000      	movs	r0, #0
    }
  }
  return retr;
}
34188370:	b004      	add	sp, #16
34188372:	bd10      	pop	{r4, pc}
  EXTMEM_DRIVER_NOR_SFDP_StatusTypeDef retr = EXTMEM_DRIVER_NOR_SFDP_ERROR_BUSY;
34188374:	f06f 0004 	mvn.w	r0, #4
34188378:	e7fa      	b.n	34188370 <driver_check_FlagBUSY+0x3a>
3418837a:	f06f 0004 	mvn.w	r0, #4
3418837e:	e7f7      	b.n	34188370 <driver_check_FlagBUSY+0x3a>

34188380 <sfdp_getfrequencevalue>:
  * @brief Returns the frequency value in Hz corresponding to a bit field.
  * @param BitField Bit field value from SFDP table.
  * @return Frequency value in Hz, or 0 if unknown.
  */
uint32_t sfdp_getfrequencevalue(uint32_t BitField)
{
34188380:	b510      	push	{r4, lr}
34188382:	b088      	sub	sp, #32
34188384:	4686      	mov	lr, r0
  const uint16_t freqMhz_table[] = { 0x0, 33, 50, 66, 80, 100, 133, 166, 200, 250, 266, 333, 400 };
34188386:	f10d 0c04 	add.w	ip, sp, #4
3418838a:	4c0c      	ldr	r4, [pc, #48]	@ (341883bc <sfdp_getfrequencevalue+0x3c>)
3418838c:	cc0f      	ldmia	r4!, {r0, r1, r2, r3}
3418838e:	e8ac 000f 	stmia.w	ip!, {r0, r1, r2, r3}
34188392:	e894 0007 	ldmia.w	r4, {r0, r1, r2}
34188396:	e8ac 0003 	stmia.w	ip!, {r0, r1}
3418839a:	f8ac 2000 	strh.w	r2, [ip]
  SFDP_DEBUG_STR(__func__);

  if (BitField < 0b1010u)
3418839e:	f1be 0f09 	cmp.w	lr, #9
341883a2:	d902      	bls.n	341883aa <sfdp_getfrequencevalue+0x2a>
  {
    return (uint32_t)freqMhz_table[BitField] * 1000000u;
  }
  return 0; /* the max frequency is unknown */
341883a4:	2000      	movs	r0, #0
}
341883a6:	b008      	add	sp, #32
341883a8:	bd10      	pop	{r4, pc}
    return (uint32_t)freqMhz_table[BitField] * 1000000u;
341883aa:	ab08      	add	r3, sp, #32
341883ac:	eb03 0e4e 	add.w	lr, r3, lr, lsl #1
341883b0:	f83e 0c1c 	ldrh.w	r0, [lr, #-28]
341883b4:	4b02      	ldr	r3, [pc, #8]	@ (341883c0 <sfdp_getfrequencevalue+0x40>)
341883b6:	fb03 f000 	mul.w	r0, r3, r0
341883ba:	e7f4      	b.n	341883a6 <sfdp_getfrequencevalue+0x26>
341883bc:	341899c0 	.word	0x341899c0
341883c0:	000f4240 	.word	0x000f4240

341883c4 <sfdp_get_paraminfo>:
  * @param Param_info Pointer to the parameter info structure to be filled.
  * @return SFDP_StatusTypeDef: EXTMEM_SFDP_OK if successful, error code otherwise.
  */
SFDP_StatusTypeDef sfdp_get_paraminfo(EXTMEM_DRIVER_NOR_SFDP_ObjectTypeDef *Object, uint32_t sfdp_address,
                                      SFDP_ParameterTable_t *Param_info)
{
341883c4:	b510      	push	{r4, lr}
341883c6:	b082      	sub	sp, #8
341883c8:	4614      	mov	r4, r2
  SFDP_StatusTypeDef retr = EXTMEM_SFDP_OK;
  SFDP_ParameterHeader_t sfdp_param_header = {0};
341883ca:	2300      	movs	r3, #0
341883cc:	9300      	str	r3, [sp, #0]
341883ce:	9301      	str	r3, [sp, #4]
  SFDP_DEBUG_STR(__func__);

  /* send the SFDP command to read the header */
  if (HAL_OK != SAL_XSPI_GetSFDP(&Object->sfdp_private.SALObject, sfdp_address,
341883d0:	2308      	movs	r3, #8
341883d2:	466a      	mov	r2, sp
341883d4:	4418      	add	r0, r3
341883d6:	f7ff fd6e 	bl	34187eb6 <SAL_XSPI_GetSFDP>
341883da:	2800      	cmp	r0, #0
341883dc:	f040 80bb 	bne.w	34188556 <sfdp_get_paraminfo+0x192>
  {
    retr = EXTMEM_SFDP_ERROR_SFDPREAD;
    goto error;
  }

  Param_info->type = SFDP_PARAMID_UNKNOWN;
341883e0:	6020      	str	r0, [r4, #0]
  Param_info->size = sfdp_param_header.Length ;
341883e2:	f89d 3003 	ldrb.w	r3, [sp, #3]
341883e6:	7223      	strb	r3, [r4, #8]
  Param_info->address = (((uint32_t)sfdp_param_header.TableAddressPointer[2u] << 16u)
341883e8:	f89d 2006 	ldrb.w	r2, [sp, #6]
                         | ((uint32_t)sfdp_param_header.TableAddressPointer[1u] << 8u)
341883ec:	f89d 3005 	ldrb.w	r3, [sp, #5]
341883f0:	021b      	lsls	r3, r3, #8
341883f2:	ea43 4302 	orr.w	r3, r3, r2, lsl #16
                         | ((uint32_t)sfdp_param_header.TableAddressPointer[0u]));
341883f6:	f89d 2004 	ldrb.w	r2, [sp, #4]
341883fa:	4313      	orrs	r3, r2
  Param_info->address = (((uint32_t)sfdp_param_header.TableAddressPointer[2u] << 16u)
341883fc:	6063      	str	r3, [r4, #4]

  if ((sfdp_param_header.ID_msb > 0x00u) && (sfdp_param_header.ID_msb < 0x80u))
341883fe:	f99d 3007 	ldrsb.w	r3, [sp, #7]
34188402:	2b00      	cmp	r3, #0
34188404:	dd0c      	ble.n	34188420 <sfdp_get_paraminfo+0x5c>
  {
    if ((sfdp_param_header.ID_lsb & 0x01u) == 0x01u)
34188406:	f89d 3000 	ldrb.w	r3, [sp]
3418840a:	f013 0301 	ands.w	r3, r3, #1
3418840e:	d003      	beq.n	34188418 <sfdp_get_paraminfo+0x54>
    {
      Param_info->type = SFDP_PARAMID_VENDOR;
34188410:	2301      	movs	r3, #1
34188412:	6023      	str	r3, [r4, #0]
    goto error;
  }

error:
  return retr;
}
34188414:	b002      	add	sp, #8
34188416:	bd10      	pop	{r4, pc}
      Param_info->type = SFDP_PARAMID_FUNCTION_VENDOR;
34188418:	2202      	movs	r2, #2
3418841a:	6022      	str	r2, [r4, #0]
  SFDP_StatusTypeDef retr = EXTMEM_SFDP_OK;
3418841c:	4618      	mov	r0, r3
3418841e:	e7f9      	b.n	34188414 <sfdp_get_paraminfo+0x50>
  else if (sfdp_param_header.ID_msb >= 0x80u)
34188420:	2b00      	cmp	r3, #0
34188422:	f280 809a 	bge.w	3418855a <sfdp_get_paraminfo+0x196>
    if ((sfdp_param_header.ID_lsb & 0x01u) == 0x00u)
34188426:	f89d 3000 	ldrb.w	r3, [sp]
3418842a:	f013 0f01 	tst.w	r3, #1
3418842e:	d101      	bne.n	34188434 <sfdp_get_paraminfo+0x70>
      Param_info->type = SFDP_PARAMID_FUNCTION_JEDEC;
34188430:	2304      	movs	r3, #4
34188432:	6023      	str	r3, [r4, #0]
    if (sfdp_param_header.ID_msb == SFDP_BASIC_PARAMETER_TABLE_MSB)
34188434:	f89d 3007 	ldrb.w	r3, [sp, #7]
34188438:	2bff      	cmp	r3, #255	@ 0xff
3418843a:	d1eb      	bne.n	34188414 <sfdp_get_paraminfo+0x50>
      switch (sfdp_param_header.ID_lsb)
3418843c:	f89d 3000 	ldrb.w	r3, [sp]
34188440:	2b0f      	cmp	r3, #15
34188442:	d825      	bhi.n	34188490 <sfdp_get_paraminfo+0xcc>
34188444:	2b0f      	cmp	r3, #15
34188446:	d8e5      	bhi.n	34188414 <sfdp_get_paraminfo+0x50>
34188448:	a201      	add	r2, pc, #4	@ (adr r2, 34188450 <sfdp_get_paraminfo+0x8c>)
3418844a:	f852 f023 	ldr.w	pc, [r2, r3, lsl #2]
3418844e:	bf00      	nop
34188450:	341884dd 	.word	0x341884dd
34188454:	34188415 	.word	0x34188415
34188458:	34188415 	.word	0x34188415
3418845c:	341884f5 	.word	0x341884f5
34188460:	34188415 	.word	0x34188415
34188464:	34188501 	.word	0x34188501
34188468:	34188507 	.word	0x34188507
3418846c:	34188415 	.word	0x34188415
34188470:	34188415 	.word	0x34188415
34188474:	3418851f 	.word	0x3418851f
34188478:	34188527 	.word	0x34188527
3418847c:	34188415 	.word	0x34188415
34188480:	34188537 	.word	0x34188537
34188484:	34188415 	.word	0x34188415
34188488:	34188415 	.word	0x34188415
3418848c:	3418854f 	.word	0x3418854f
34188490:	2b8e      	cmp	r3, #142	@ 0x8e
34188492:	d8bf      	bhi.n	34188414 <sfdp_get_paraminfo+0x50>
34188494:	2b81      	cmp	r3, #129	@ 0x81
34188496:	d3bd      	bcc.n	34188414 <sfdp_get_paraminfo+0x50>
34188498:	3b81      	subs	r3, #129	@ 0x81
3418849a:	2b0d      	cmp	r3, #13
3418849c:	d8ba      	bhi.n	34188414 <sfdp_get_paraminfo+0x50>
3418849e:	a201      	add	r2, pc, #4	@ (adr r2, 341884a4 <sfdp_get_paraminfo+0xe0>)
341884a0:	f852 f023 	ldr.w	pc, [r2, r3, lsl #2]
341884a4:	341884ef 	.word	0x341884ef
341884a8:	34188415 	.word	0x34188415
341884ac:	34188415 	.word	0x34188415
341884b0:	341884fb 	.word	0x341884fb
341884b4:	34188415 	.word	0x34188415
341884b8:	34188415 	.word	0x34188415
341884bc:	3418850f 	.word	0x3418850f
341884c0:	34188517 	.word	0x34188517
341884c4:	34188415 	.word	0x34188415
341884c8:	34188415 	.word	0x34188415
341884cc:	3418852f 	.word	0x3418852f
341884d0:	34188415 	.word	0x34188415
341884d4:	3418853f 	.word	0x3418853f
341884d8:	34188547 	.word	0x34188547
          Param_info->type = SFDP_PARAMID_BASIC_SPIPROTOCOL;
341884dc:	2308      	movs	r3, #8
341884de:	6023      	str	r3, [r4, #0]
          Param_info->size = ((sfdp_param_header.Length) < SFDP_PARAMS_BASIC_TABLE_DEFAULTSIZE)
341884e0:	f89d 3003 	ldrb.w	r3, [sp, #3]
                             ? sfdp_param_header.Length : SFDP_PARAMS_BASIC_TABLE_DEFAULTSIZE;
341884e4:	2b17      	cmp	r3, #23
341884e6:	bf28      	it	cs
341884e8:	2317      	movcs	r3, #23
          Param_info->size = ((sfdp_param_header.Length) < SFDP_PARAMS_BASIC_TABLE_DEFAULTSIZE)
341884ea:	7223      	strb	r3, [r4, #8]
          break;
341884ec:	e792      	b.n	34188414 <sfdp_get_paraminfo+0x50>
          Param_info->type = SFDP_PARAMID_SECTORMAP;
341884ee:	2310      	movs	r3, #16
341884f0:	6023      	str	r3, [r4, #0]
          break;
341884f2:	e78f      	b.n	34188414 <sfdp_get_paraminfo+0x50>
          Param_info->type = SFDP_PARAMID_RPMC;
341884f4:	2320      	movs	r3, #32
341884f6:	6023      	str	r3, [r4, #0]
          break;
341884f8:	e78c      	b.n	34188414 <sfdp_get_paraminfo+0x50>
          Param_info->type = SFDP_PARAMID_4BYTE_ADDRESS_INSTRUCTION;
341884fa:	2340      	movs	r3, #64	@ 0x40
341884fc:	6023      	str	r3, [r4, #0]
          break;
341884fe:	e789      	b.n	34188414 <sfdp_get_paraminfo+0x50>
          Param_info->type = SFDP_PARAMID_XSPI_V1_0;
34188500:	2380      	movs	r3, #128	@ 0x80
34188502:	6023      	str	r3, [r4, #0]
          break;
34188504:	e786      	b.n	34188414 <sfdp_get_paraminfo+0x50>
          Param_info->type = SFDP_PARAMID_XSPI_V2_0;
34188506:	f44f 7380 	mov.w	r3, #256	@ 0x100
3418850a:	6023      	str	r3, [r4, #0]
          break;
3418850c:	e782      	b.n	34188414 <sfdp_get_paraminfo+0x50>
          Param_info->type = SFDP_PARAMID_STATUS_CONTROL_CONFIG_REGISTER_MAP;
3418850e:	f44f 7300 	mov.w	r3, #512	@ 0x200
34188512:	6023      	str	r3, [r4, #0]
          break;
34188514:	e77e      	b.n	34188414 <sfdp_get_paraminfo+0x50>
          Param_info->type = SFDP_PARAMID_STATUS_CONTROL_CONFIG_REGISTER_MAP_MULTICHIP;
34188516:	f44f 6380 	mov.w	r3, #1024	@ 0x400
3418851a:	6023      	str	r3, [r4, #0]
          break;
3418851c:	e77a      	b.n	34188414 <sfdp_get_paraminfo+0x50>
          Param_info->type = SFDP_PARAMID_STATUS_CONTROL_CONFIG_XSPI_V2_0;
3418851e:	f44f 6300 	mov.w	r3, #2048	@ 0x800
34188522:	6023      	str	r3, [r4, #0]
          break;
34188524:	e776      	b.n	34188414 <sfdp_get_paraminfo+0x50>
          Param_info->type = SFDP_PARAMID_OCTAL_DDR;
34188526:	f44f 5380 	mov.w	r3, #4096	@ 0x1000
3418852a:	6023      	str	r3, [r4, #0]
          break;
3418852c:	e772      	b.n	34188414 <sfdp_get_paraminfo+0x50>
          Param_info->type = SFDP_PARAMID_MSPT;
3418852e:	f44f 5300 	mov.w	r3, #8192	@ 0x2000
34188532:	6023      	str	r3, [r4, #0]
          break;
34188534:	e76e      	b.n	34188414 <sfdp_get_paraminfo+0x50>
          Param_info->type = SFDP_PARAMID_X4QUAD_DS;
34188536:	f44f 4380 	mov.w	r3, #16384	@ 0x4000
3418853a:	6023      	str	r3, [r4, #0]
          break;
3418853c:	e76a      	b.n	34188414 <sfdp_get_paraminfo+0x50>
          Param_info->type = SFDP_PARAMID_QUAD_DDR;
3418853e:	f44f 4300 	mov.w	r3, #32768	@ 0x8000
34188542:	6023      	str	r3, [r4, #0]
          break;
34188544:	e766      	b.n	34188414 <sfdp_get_paraminfo+0x50>
          Param_info->type = SFDP_PARAMID_SECURE_PACKET_READ_WRITE;
34188546:	f44f 3380 	mov.w	r3, #65536	@ 0x10000
3418854a:	6023      	str	r3, [r4, #0]
          break;
3418854c:	e762      	b.n	34188414 <sfdp_get_paraminfo+0x50>
          Param_info->type = SFDP_PARAMID_RESERVED;
3418854e:	f44f 3300 	mov.w	r3, #131072	@ 0x20000
34188552:	6023      	str	r3, [r4, #0]
          break;
34188554:	e75e      	b.n	34188414 <sfdp_get_paraminfo+0x50>
    retr = EXTMEM_SFDP_ERROR_SFDPREAD;
34188556:	2003      	movs	r0, #3
34188558:	e75c      	b.n	34188414 <sfdp_get_paraminfo+0x50>
    retr = EXTMEM_SFDP_ERROR_SFDPREAD;
3418855a:	2003      	movs	r0, #3
3418855c:	e75a      	b.n	34188414 <sfdp_get_paraminfo+0x50>
3418855e:	bf00      	nop

34188560 <SFDP_CollectData>:
{
34188560:	b5f8      	push	{r3, r4, r5, r6, r7, lr}
34188562:	4605      	mov	r5, r0
  Object->sfdp_private.Sfdp_table_mask = 0;
34188564:	2700      	movs	r7, #0
34188566:	f8c0 7094 	str.w	r7, [r0, #148]	@ 0x94
  (void)memset(sfdp_param_info, 0x0, sizeof(sfdp_param_info));
3418856a:	2278      	movs	r2, #120	@ 0x78
3418856c:	4639      	mov	r1, r7
3418856e:	4836      	ldr	r0, [pc, #216]	@ (34188648 <SFDP_CollectData+0xe8>)
34188570:	f001 f938 	bl	341897e4 <memset>
  for (uint8_t index = 0u; index < (Object->sfdp_private.Sfdp_param_number + 1u); index++)
34188574:	463c      	mov	r4, r7
  uint32_t sfdp_address = SFDP_HEADER_SIZE;
34188576:	2608      	movs	r6, #8
  for (uint8_t index = 0u; index < (Object->sfdp_private.Sfdp_param_number + 1u); index++)
34188578:	e00c      	b.n	34188594 <SFDP_CollectData+0x34>
    Object->sfdp_private.Sfdp_table_mask |= (uint32_t)sfdp_param_info[index].type;
3418857a:	f8d5 3094 	ldr.w	r3, [r5, #148]	@ 0x94
3418857e:	eb04 0144 	add.w	r1, r4, r4, lsl #1
34188582:	4a31      	ldr	r2, [pc, #196]	@ (34188648 <SFDP_CollectData+0xe8>)
34188584:	f852 2021 	ldr.w	r2, [r2, r1, lsl #2]
34188588:	4313      	orrs	r3, r2
3418858a:	f8c5 3094 	str.w	r3, [r5, #148]	@ 0x94
    sfdp_address += SFDP_PARAM_HEADER_SIZE;
3418858e:	3608      	adds	r6, #8
  for (uint8_t index = 0u; index < (Object->sfdp_private.Sfdp_param_number + 1u); index++)
34188590:	3401      	adds	r4, #1
34188592:	b2e4      	uxtb	r4, r4
34188594:	f895 309c 	ldrb.w	r3, [r5, #156]	@ 0x9c
34188598:	3301      	adds	r3, #1
3418859a:	429c      	cmp	r4, r3
3418859c:	d20d      	bcs.n	341885ba <SFDP_CollectData+0x5a>
    CHECK_FUNCTION_CALL(sfdp_get_paraminfo(Object, sfdp_address, &sfdp_param_info[index]))
3418859e:	eb04 0244 	add.w	r2, r4, r4, lsl #1
341885a2:	4b29      	ldr	r3, [pc, #164]	@ (34188648 <SFDP_CollectData+0xe8>)
341885a4:	eb03 0282 	add.w	r2, r3, r2, lsl #2
341885a8:	4631      	mov	r1, r6
341885aa:	4628      	mov	r0, r5
341885ac:	f7ff ff0a 	bl	341883c4 <sfdp_get_paraminfo>
341885b0:	4607      	mov	r7, r0
341885b2:	2800      	cmp	r0, #0
341885b4:	d0e1      	beq.n	3418857a <SFDP_CollectData+0x1a>
}
341885b6:	4638      	mov	r0, r7
341885b8:	bdf8      	pop	{r3, r4, r5, r6, r7, pc}
  for (uint8_t index = 0u; sfdp_param_info[index].type != SFDP_PARAMID_UNKNOWN; index++)
341885ba:	2400      	movs	r4, #0
341885bc:	e021      	b.n	34188602 <SFDP_CollectData+0xa2>
    switch (sfdp_param_info[index].type)
341885be:	2a08      	cmp	r2, #8
341885c0:	d003      	beq.n	341885ca <SFDP_CollectData+0x6a>
341885c2:	2a40      	cmp	r2, #64	@ 0x40
341885c4:	d114      	bne.n	341885f0 <SFDP_CollectData+0x90>
341885c6:	4a21      	ldr	r2, [pc, #132]	@ (3418864c <SFDP_CollectData+0xec>)
341885c8:	e006      	b.n	341885d8 <SFDP_CollectData+0x78>
        JEDEC_Basic.size = sfdp_param_info[index].size;
341885ca:	4a21      	ldr	r2, [pc, #132]	@ (34188650 <SFDP_CollectData+0xf0>)
341885cc:	f842 3b04 	str.w	r3, [r2], #4
    if (ptr != NULL)
341885d0:	e002      	b.n	341885d8 <SFDP_CollectData+0x78>
        ptr = JEDEC_XSPI10.data_BYTE;
341885d2:	4a20      	ldr	r2, [pc, #128]	@ (34188654 <SFDP_CollectData+0xf4>)
341885d4:	e000      	b.n	341885d8 <SFDP_CollectData+0x78>
        ptr = JEDEC_SCCR_Map.data_b;
341885d6:	4a20      	ldr	r2, [pc, #128]	@ (34188658 <SFDP_CollectData+0xf8>)
      if (HAL_OK != SAL_XSPI_GetSFDP(&Object->sfdp_private.SALObject,
341885d8:	eb06 0046 	add.w	r0, r6, r6, lsl #1
341885dc:	491a      	ldr	r1, [pc, #104]	@ (34188648 <SFDP_CollectData+0xe8>)
341885de:	eb01 0180 	add.w	r1, r1, r0, lsl #2
341885e2:	009b      	lsls	r3, r3, #2
341885e4:	6849      	ldr	r1, [r1, #4]
341885e6:	f105 0008 	add.w	r0, r5, #8
341885ea:	f7ff fc64 	bl	34187eb6 <SAL_XSPI_GetSFDP>
341885ee:	bb48      	cbnz	r0, 34188644 <SFDP_CollectData+0xe4>
    if (SFDP_PARAMID_BASIC_SPIPROTOCOL == sfdp_param_info[index].type)
341885f0:	eb06 0646 	add.w	r6, r6, r6, lsl #1
341885f4:	4b14      	ldr	r3, [pc, #80]	@ (34188648 <SFDP_CollectData+0xe8>)
341885f6:	f853 3026 	ldr.w	r3, [r3, r6, lsl #2]
341885fa:	2b08      	cmp	r3, #8
341885fc:	d01a      	beq.n	34188634 <SFDP_CollectData+0xd4>
  for (uint8_t index = 0u; sfdp_param_info[index].type != SFDP_PARAMID_UNKNOWN; index++)
341885fe:	3401      	adds	r4, #1
34188600:	b2e4      	uxtb	r4, r4
34188602:	4626      	mov	r6, r4
34188604:	eb04 0344 	add.w	r3, r4, r4, lsl #1
34188608:	4a0f      	ldr	r2, [pc, #60]	@ (34188648 <SFDP_CollectData+0xe8>)
3418860a:	f852 2023 	ldr.w	r2, [r2, r3, lsl #2]
3418860e:	2a00      	cmp	r2, #0
34188610:	d0d1      	beq.n	341885b6 <SFDP_CollectData+0x56>
    uint32_t size = sfdp_param_info[index].size;
34188612:	eb04 0144 	add.w	r1, r4, r4, lsl #1
34188616:	4b0c      	ldr	r3, [pc, #48]	@ (34188648 <SFDP_CollectData+0xe8>)
34188618:	eb03 0381 	add.w	r3, r3, r1, lsl #2
3418861c:	7a1b      	ldrb	r3, [r3, #8]
    switch (sfdp_param_info[index].type)
3418861e:	2a80      	cmp	r2, #128	@ 0x80
34188620:	d0d7      	beq.n	341885d2 <SFDP_CollectData+0x72>
34188622:	d9cc      	bls.n	341885be <SFDP_CollectData+0x5e>
34188624:	f5b2 7f00 	cmp.w	r2, #512	@ 0x200
34188628:	d0d5      	beq.n	341885d6 <SFDP_CollectData+0x76>
3418862a:	f5b2 5f80 	cmp.w	r2, #4096	@ 0x1000
3418862e:	d1df      	bne.n	341885f0 <SFDP_CollectData+0x90>
        ptr = JEDEC_OctalDdr.data_BYTE;
34188630:	4a0a      	ldr	r2, [pc, #40]	@ (3418865c <SFDP_CollectData+0xfc>)
34188632:	e7d1      	b.n	341885d8 <SFDP_CollectData+0x78>
      Object->sfdp_private.Reset_info = JEDEC_Basic.Params.Param_DWORD.D16.SoftResetRescueSequence_Support;
34188634:	4b06      	ldr	r3, [pc, #24]	@ (34188650 <SFDP_CollectData+0xf0>)
34188636:	f893 3041 	ldrb.w	r3, [r3, #65]	@ 0x41
3418863a:	f003 033f 	and.w	r3, r3, #63	@ 0x3f
3418863e:	f8c5 3098 	str.w	r3, [r5, #152]	@ 0x98
34188642:	e7dc      	b.n	341885fe <SFDP_CollectData+0x9e>
        retr = EXTMEM_SFDP_ERROR_DRIVER;
34188644:	270c      	movs	r7, #12
34188646:	e7b6      	b.n	341885b6 <SFDP_CollectData+0x56>
34188648:	341808a8 	.word	0x341808a8
3418864c:	34180840 	.word	0x34180840
34188650:	34180848 	.word	0x34180848
34188654:	34180828 	.word	0x34180828
34188658:	341807b8 	.word	0x341807b8
3418865c:	34180798 	.word	0x34180798

34188660 <SFDP_MemoryReset>:
{
34188660:	e92d 41f0 	stmdb	sp!, {r4, r5, r6, r7, r8, lr}
34188664:	4606      	mov	r6, r0
  for (uint8_t index = 0u; index < (Object->sfdp_private.Sfdp_param_number + 1u); index++)
34188666:	2400      	movs	r4, #0
  uint8_t find = 0u;
34188668:	46a0      	mov	r8, r4
  uint32_t sfdp_address = SFDP_HEADER_SIZE;
3418866a:	2508      	movs	r5, #8
  SFDP_StatusTypeDef retr = EXTMEM_SFDP_ERROR_NO_PARAMTABLE_BASIC;
3418866c:	2707      	movs	r7, #7
  for (uint8_t index = 0u; index < (Object->sfdp_private.Sfdp_param_number + 1u); index++)
3418866e:	e005      	b.n	3418867c <SFDP_MemoryReset+0x1c>
    if ((EXTMEM_SFDP_OK != retr) || (1u == find))
34188670:	f1b8 0f00 	cmp.w	r8, #0
34188674:	d120      	bne.n	341886b8 <SFDP_MemoryReset+0x58>
    sfdp_address += SFDP_PARAM_HEADER_SIZE;
34188676:	3508      	adds	r5, #8
  for (uint8_t index = 0u; index < (Object->sfdp_private.Sfdp_param_number + 1u); index++)
34188678:	3401      	adds	r4, #1
3418867a:	b2e4      	uxtb	r4, r4
3418867c:	f896 309c 	ldrb.w	r3, [r6, #156]	@ 0x9c
34188680:	3301      	adds	r3, #1
34188682:	429c      	cmp	r4, r3
34188684:	d218      	bcs.n	341886b8 <SFDP_MemoryReset+0x58>
    retr = sfdp_get_paraminfo(Object, sfdp_address, &sfdp_param_info[0]);
34188686:	4a2c      	ldr	r2, [pc, #176]	@ (34188738 <SFDP_MemoryReset+0xd8>)
34188688:	4629      	mov	r1, r5
3418868a:	4630      	mov	r0, r6
3418868c:	f7ff fe9a 	bl	341883c4 <sfdp_get_paraminfo>
    if (EXTMEM_SFDP_OK == retr)
34188690:	4607      	mov	r7, r0
34188692:	b988      	cbnz	r0, 341886b8 <SFDP_MemoryReset+0x58>
      if (SFDP_PARAMID_BASIC_SPIPROTOCOL == sfdp_param_info[0].type)
34188694:	4b28      	ldr	r3, [pc, #160]	@ (34188738 <SFDP_MemoryReset+0xd8>)
34188696:	681b      	ldr	r3, [r3, #0]
34188698:	2b08      	cmp	r3, #8
3418869a:	d1e9      	bne.n	34188670 <SFDP_MemoryReset+0x10>
                                       ((uint32_t)sfdp_param_info[0].size) * 4u))
3418869c:	4926      	ldr	r1, [pc, #152]	@ (34188738 <SFDP_MemoryReset+0xd8>)
3418869e:	7a0b      	ldrb	r3, [r1, #8]
        if (HAL_OK != SAL_XSPI_GetSFDP(&Object->sfdp_private.SALObject,
341886a0:	009b      	lsls	r3, r3, #2
341886a2:	4a26      	ldr	r2, [pc, #152]	@ (3418873c <SFDP_MemoryReset+0xdc>)
341886a4:	6849      	ldr	r1, [r1, #4]
341886a6:	f106 0008 	add.w	r0, r6, #8
341886aa:	f7ff fc04 	bl	34187eb6 <SAL_XSPI_GetSFDP>
341886ae:	b910      	cbnz	r0, 341886b6 <SFDP_MemoryReset+0x56>
          find = 1u;
341886b0:	f04f 0801 	mov.w	r8, #1
341886b4:	e7dc      	b.n	34188670 <SFDP_MemoryReset+0x10>
          retr = EXTMEM_SFDP_ERROR_DRIVER;
341886b6:	270c      	movs	r7, #12
  if ((EXTMEM_SFDP_OK != retr) || (0u == find))
341886b8:	bb77      	cbnz	r7, 34188718 <SFDP_MemoryReset+0xb8>
341886ba:	f1b8 0f00 	cmp.w	r8, #0
341886be:	d02f      	beq.n	34188720 <SFDP_MemoryReset+0xc0>
  if (0x0u == JEDEC_Basic.Params.Param_DWORD.D16.SoftResetRescueSequence_Support)
341886c0:	4b1f      	ldr	r3, [pc, #124]	@ (34188740 <SFDP_MemoryReset+0xe0>)
341886c2:	f893 3041 	ldrb.w	r3, [r3, #65]	@ 0x41
341886c6:	f013 0f3f 	tst.w	r3, #63	@ 0x3f
341886ca:	d026      	beq.n	3418871a <SFDP_MemoryReset+0xba>
  else if (0x1u == (0x1u & JEDEC_Basic.Params.Param_DWORD.D16.SoftResetRescueSequence_Support))
341886cc:	4b1c      	ldr	r3, [pc, #112]	@ (34188740 <SFDP_MemoryReset+0xe0>)
341886ce:	f893 3041 	ldrb.w	r3, [r3, #65]	@ 0x41
341886d2:	f003 023f 	and.w	r2, r3, #63	@ 0x3f
341886d6:	f013 0f01 	tst.w	r3, #1
341886da:	d123      	bne.n	34188724 <SFDP_MemoryReset+0xc4>
  else if (0x2u == (0x2u & JEDEC_Basic.Params.Param_DWORD.D16.SoftResetRescueSequence_Support))
341886dc:	f012 0f02 	tst.w	r2, #2
341886e0:	d122      	bne.n	34188728 <SFDP_MemoryReset+0xc8>
  else if (0x4u == (0x4u & JEDEC_Basic.Params.Param_DWORD.D16.SoftResetRescueSequence_Support))
341886e2:	f012 0f04 	tst.w	r2, #4
341886e6:	d121      	bne.n	3418872c <SFDP_MemoryReset+0xcc>
  else if (0x8u == (0x8u & JEDEC_Basic.Params.Param_DWORD.D16.SoftResetRescueSequence_Support))
341886e8:	f012 0f08 	tst.w	r2, #8
341886ec:	d120      	bne.n	34188730 <SFDP_MemoryReset+0xd0>
  else if (0x10u == (0x10u & JEDEC_Basic.Params.Param_DWORD.D16.SoftResetRescueSequence_Support))
341886ee:	f012 0f10 	tst.w	r2, #16
341886f2:	d103      	bne.n	341886fc <SFDP_MemoryReset+0x9c>
  else if (0x20u == (0x20u & JEDEC_Basic.Params.Param_DWORD.D16.SoftResetRescueSequence_Support))
341886f4:	2a1f      	cmp	r2, #31
341886f6:	d91d      	bls.n	34188734 <SFDP_MemoryReset+0xd4>
    retr = EXTMEM_SFDP_ERROR_NOTYETHANDLED;
341886f8:	270f      	movs	r7, #15
341886fa:	e00e      	b.n	3418871a <SFDP_MemoryReset+0xba>
      (void)SAL_XSPI_CommandSendData(&Object->sfdp_private.SALObject, 0x66, NULL, 0);
341886fc:	3608      	adds	r6, #8
341886fe:	2300      	movs	r3, #0
34188700:	461a      	mov	r2, r3
34188702:	2166      	movs	r1, #102	@ 0x66
34188704:	4630      	mov	r0, r6
34188706:	f7ff fc9f 	bl	34188048 <SAL_XSPI_CommandSendData>
      (void)SAL_XSPI_CommandSendData(&Object->sfdp_private.SALObject, 0x99, NULL, 0);
3418870a:	2300      	movs	r3, #0
3418870c:	461a      	mov	r2, r3
3418870e:	2199      	movs	r1, #153	@ 0x99
34188710:	4630      	mov	r0, r6
34188712:	f7ff fc99 	bl	34188048 <SAL_XSPI_CommandSendData>
      break;
34188716:	e000      	b.n	3418871a <SFDP_MemoryReset+0xba>
    retr = EXTMEM_SFDP_ERROR_DRIVER;
34188718:	270c      	movs	r7, #12
}
3418871a:	4638      	mov	r0, r7
3418871c:	e8bd 81f0 	ldmia.w	sp!, {r4, r5, r6, r7, r8, pc}
    retr = EXTMEM_SFDP_ERROR_DRIVER;
34188720:	270c      	movs	r7, #12
34188722:	e7fa      	b.n	3418871a <SFDP_MemoryReset+0xba>
      retr = EXTMEM_SFDP_ERROR_NOTYETHANDLED;
34188724:	270f      	movs	r7, #15
34188726:	e7f8      	b.n	3418871a <SFDP_MemoryReset+0xba>
34188728:	270f      	movs	r7, #15
3418872a:	e7f6      	b.n	3418871a <SFDP_MemoryReset+0xba>
3418872c:	270f      	movs	r7, #15
3418872e:	e7f4      	b.n	3418871a <SFDP_MemoryReset+0xba>
34188730:	270f      	movs	r7, #15
34188732:	e7f2      	b.n	3418871a <SFDP_MemoryReset+0xba>
    retr = EXTMEM_SFDP_ERROR_DRIVER;
34188734:	270c      	movs	r7, #12
34188736:	e7f0      	b.n	3418871a <SFDP_MemoryReset+0xba>
34188738:	341808a8 	.word	0x341808a8
3418873c:	3418084c 	.word	0x3418084c
34188740:	34180848 	.word	0x34180848

34188744 <sfdp_enter_octal_mode>:
  * @brief Executes the octal DDR table to enter octal DDR mode.
  * @param Object Pointer to the NOR SFDP memory instance object descriptor.
  * @return SFDP_StatusTypeDef: EXTMEM_SFDP_OK if successful, error code otherwise.
  */
SFDP_StatusTypeDef sfdp_enter_octal_mode(EXTMEM_DRIVER_NOR_SFDP_ObjectTypeDef *Object)
{
34188744:	b510      	push	{r4, lr}
34188746:	b082      	sub	sp, #8
34188748:	4604      	mov	r4, r0
  SFDP_StatusTypeDef retr = EXTMEM_SFDP_OK;
  uint8_t data[7];
  SFDP_DEBUG_STR(__func__);
  /* D1-D2 command */
  if (0u != JEDEC_OctalDdr.Param_DWORD.D1.LengthCommand)
3418874a:	4b5e      	ldr	r3, [pc, #376]	@ (341888c4 <sfdp_enter_octal_mode+0x180>)
3418874c:	78db      	ldrb	r3, [r3, #3]
3418874e:	2b00      	cmp	r3, #0
34188750:	d13a      	bne.n	341887c8 <sfdp_enter_octal_mode+0x84>
      goto error;
    }
  }

  /* D3-D4 command */
  if (0u != JEDEC_OctalDdr.Param_DWORD.D3.LengthCommand)
34188752:	4b5c      	ldr	r3, [pc, #368]	@ (341888c4 <sfdp_enter_octal_mode+0x180>)
34188754:	7adb      	ldrb	r3, [r3, #11]
34188756:	2b00      	cmp	r3, #0
34188758:	d158      	bne.n	3418880c <sfdp_enter_octal_mode+0xc8>
      goto error;
    }
  }

  /* D5-D6 command */
  if (0u != JEDEC_OctalDdr.Param_DWORD.D5.LengthCommand)
3418875a:	4b5a      	ldr	r3, [pc, #360]	@ (341888c4 <sfdp_enter_octal_mode+0x180>)
3418875c:	7cdb      	ldrb	r3, [r3, #19]
3418875e:	2b00      	cmp	r3, #0
34188760:	d17e      	bne.n	34188860 <sfdp_enter_octal_mode+0x11c>
      goto error;
    }
  }

  /* D7-D8 command */
  if (0u != JEDEC_OctalDdr.Param_DWORD.D7.LengthCommand)
34188762:	4b58      	ldr	r3, [pc, #352]	@ (341888c4 <sfdp_enter_octal_mode+0x180>)
34188764:	7edb      	ldrb	r3, [r3, #27]
34188766:	b343      	cbz	r3, 341887ba <sfdp_enter_octal_mode+0x76>
  {
    /* wait for busy flag clear */
    if (EXTMEM_DRIVER_NOR_SFDP_OK != driver_check_FlagBUSY(Object, 100u))
34188768:	2164      	movs	r1, #100	@ 0x64
3418876a:	4620      	mov	r0, r4
3418876c:	f7ff fde3 	bl	34188336 <driver_check_FlagBUSY>
34188770:	2800      	cmp	r0, #0
34188772:	f040 80a2 	bne.w	341888ba <sfdp_enter_octal_mode+0x176>
    {
      retr = EXTMEM_SFDP_ERROR_DRIVER;
      goto error;
    }

    data[0] = (uint8_t)JEDEC_OctalDdr.Param_DWORD.D7.Byte1CommandSequence;
34188776:	4b53      	ldr	r3, [pc, #332]	@ (341888c4 <sfdp_enter_octal_mode+0x180>)
34188778:	7e99      	ldrb	r1, [r3, #26]
3418877a:	f88d 1000 	strb.w	r1, [sp]
    data[1] = (uint8_t)JEDEC_OctalDdr.Param_DWORD.D7.Byte2CommandSequence;
3418877e:	7e5a      	ldrb	r2, [r3, #25]
34188780:	f88d 2001 	strb.w	r2, [sp, #1]
    data[2] = (uint8_t)JEDEC_OctalDdr.Param_DWORD.D7.Byte3CommandSequence;
34188784:	7e1a      	ldrb	r2, [r3, #24]
34188786:	f88d 2002 	strb.w	r2, [sp, #2]
    data[3] = (uint8_t)JEDEC_OctalDdr.Param_DWORD.D8.Byte4CommandSequence;
3418878a:	7fda      	ldrb	r2, [r3, #31]
3418878c:	f88d 2003 	strb.w	r2, [sp, #3]
    data[4] = (uint8_t)JEDEC_OctalDdr.Param_DWORD.D8.Byte5CommandSequence;
34188790:	7f9a      	ldrb	r2, [r3, #30]
34188792:	f88d 2004 	strb.w	r2, [sp, #4]
    data[5] = (uint8_t)JEDEC_OctalDdr.Param_DWORD.D8.Byte6CommandSequence;
34188796:	7f5a      	ldrb	r2, [r3, #29]
34188798:	f88d 2005 	strb.w	r2, [sp, #5]
    data[6] = (uint8_t)JEDEC_OctalDdr.Param_DWORD.D8.Byte7CommandSequence;
3418879c:	7f1a      	ldrb	r2, [r3, #28]
3418879e:	f88d 2006 	strb.w	r2, [sp, #6]

    if (HAL_OK != SAL_XSPI_CommandSendData(&Object->sfdp_private.SALObject, data[0], &data[1],
                                           (uint16_t)(JEDEC_OctalDdr.Param_DWORD.D7.LengthCommand - 1u)))
341887a2:	7edb      	ldrb	r3, [r3, #27]
    if (HAL_OK != SAL_XSPI_CommandSendData(&Object->sfdp_private.SALObject, data[0], &data[1],
341887a4:	3b01      	subs	r3, #1
341887a6:	b29b      	uxth	r3, r3
341887a8:	f10d 0201 	add.w	r2, sp, #1
341887ac:	f104 0008 	add.w	r0, r4, #8
341887b0:	f7ff fc4a 	bl	34188048 <SAL_XSPI_CommandSendData>
341887b4:	2800      	cmp	r0, #0
341887b6:	f040 8082 	bne.w	341888be <sfdp_enter_octal_mode+0x17a>

    /* no more wait for busy flag clear here, as command format might have changed to Octal */
  }

  /* Abort any ongoing transfer to avoid performance issue */
  SAL_XSPI_Abort(&Object->sfdp_private.SALObject);
341887ba:	f104 0008 	add.w	r0, r4, #8
341887be:	f7ff fb66 	bl	34187e8e <SAL_XSPI_Abort>
  SFDP_StatusTypeDef retr = EXTMEM_SFDP_OK;
341887c2:	2000      	movs	r0, #0

error:
  return retr;
}
341887c4:	b002      	add	sp, #8
341887c6:	bd10      	pop	{r4, pc}
    data[0] = (uint8_t)JEDEC_OctalDdr.Param_DWORD.D1.Byte1CommandSequence;
341887c8:	4a3e      	ldr	r2, [pc, #248]	@ (341888c4 <sfdp_enter_octal_mode+0x180>)
341887ca:	7891      	ldrb	r1, [r2, #2]
341887cc:	f88d 1000 	strb.w	r1, [sp]
    data[1] = (uint8_t)JEDEC_OctalDdr.Param_DWORD.D1.Byte2CommandSequence;
341887d0:	7850      	ldrb	r0, [r2, #1]
341887d2:	f88d 0001 	strb.w	r0, [sp, #1]
    data[2] = (uint8_t)JEDEC_OctalDdr.Param_DWORD.D1.Byte3CommandSequence;
341887d6:	7810      	ldrb	r0, [r2, #0]
341887d8:	f88d 0002 	strb.w	r0, [sp, #2]
    data[3] = (uint8_t)JEDEC_OctalDdr.Param_DWORD.D2.Byte4CommandSequence;
341887dc:	79d0      	ldrb	r0, [r2, #7]
341887de:	f88d 0003 	strb.w	r0, [sp, #3]
    data[4] = (uint8_t)JEDEC_OctalDdr.Param_DWORD.D2.Byte5CommandSequence;
341887e2:	7990      	ldrb	r0, [r2, #6]
341887e4:	f88d 0004 	strb.w	r0, [sp, #4]
    data[5] = (uint8_t)JEDEC_OctalDdr.Param_DWORD.D2.Byte6CommandSequence;
341887e8:	7950      	ldrb	r0, [r2, #5]
341887ea:	f88d 0005 	strb.w	r0, [sp, #5]
    data[6] = (uint8_t)JEDEC_OctalDdr.Param_DWORD.D2.Byte7CommandSequence;
341887ee:	7912      	ldrb	r2, [r2, #4]
341887f0:	f88d 2006 	strb.w	r2, [sp, #6]
    if (HAL_OK != SAL_XSPI_CommandSendData(&Object->sfdp_private.SALObject, data[0], &data[1],
341887f4:	3b01      	subs	r3, #1
341887f6:	b29b      	uxth	r3, r3
341887f8:	f10d 0201 	add.w	r2, sp, #1
341887fc:	f104 0008 	add.w	r0, r4, #8
34188800:	f7ff fc22 	bl	34188048 <SAL_XSPI_CommandSendData>
34188804:	2800      	cmp	r0, #0
34188806:	d0a4      	beq.n	34188752 <sfdp_enter_octal_mode+0xe>
      retr = EXTMEM_SFDP_ERROR_OCTALMODE;
34188808:	200b      	movs	r0, #11
3418880a:	e7db      	b.n	341887c4 <sfdp_enter_octal_mode+0x80>
    if (EXTMEM_DRIVER_NOR_SFDP_OK != driver_check_FlagBUSY(Object, 100u))
3418880c:	2164      	movs	r1, #100	@ 0x64
3418880e:	4620      	mov	r0, r4
34188810:	f7ff fd91 	bl	34188336 <driver_check_FlagBUSY>
34188814:	2800      	cmp	r0, #0
34188816:	d14c      	bne.n	341888b2 <sfdp_enter_octal_mode+0x16e>
    data[0] = (uint8_t)JEDEC_OctalDdr.Param_DWORD.D3.Byte1CommandSequence;
34188818:	4b2a      	ldr	r3, [pc, #168]	@ (341888c4 <sfdp_enter_octal_mode+0x180>)
3418881a:	7a99      	ldrb	r1, [r3, #10]
3418881c:	f88d 1000 	strb.w	r1, [sp]
    data[1] = (uint8_t)JEDEC_OctalDdr.Param_DWORD.D3.Byte2CommandSequence;
34188820:	7a5a      	ldrb	r2, [r3, #9]
34188822:	f88d 2001 	strb.w	r2, [sp, #1]
    data[2] = (uint8_t)JEDEC_OctalDdr.Param_DWORD.D3.Byte3CommandSequence;
34188826:	7a1a      	ldrb	r2, [r3, #8]
34188828:	f88d 2002 	strb.w	r2, [sp, #2]
    data[3] = (uint8_t)JEDEC_OctalDdr.Param_DWORD.D4.Byte4CommandSequence;
3418882c:	7bda      	ldrb	r2, [r3, #15]
3418882e:	f88d 2003 	strb.w	r2, [sp, #3]
    data[4] = (uint8_t)JEDEC_OctalDdr.Param_DWORD.D4.Byte5CommandSequence;
34188832:	7b9a      	ldrb	r2, [r3, #14]
34188834:	f88d 2004 	strb.w	r2, [sp, #4]
    data[5] = (uint8_t)JEDEC_OctalDdr.Param_DWORD.D4.Byte6CommandSequence;
34188838:	7b5a      	ldrb	r2, [r3, #13]
3418883a:	f88d 2005 	strb.w	r2, [sp, #5]
    data[6] = (uint8_t)JEDEC_OctalDdr.Param_DWORD.D4.Byte7CommandSequence;
3418883e:	7b1a      	ldrb	r2, [r3, #12]
34188840:	f88d 2006 	strb.w	r2, [sp, #6]
                                           (uint16_t)(JEDEC_OctalDdr.Param_DWORD.D3.LengthCommand - 1u)))
34188844:	7adb      	ldrb	r3, [r3, #11]
    if (HAL_OK != SAL_XSPI_CommandSendData(&Object->sfdp_private.SALObject, data[0], &data[1],
34188846:	3b01      	subs	r3, #1
34188848:	b29b      	uxth	r3, r3
3418884a:	f10d 0201 	add.w	r2, sp, #1
3418884e:	f104 0008 	add.w	r0, r4, #8
34188852:	f7ff fbf9 	bl	34188048 <SAL_XSPI_CommandSendData>
34188856:	2800      	cmp	r0, #0
34188858:	f43f af7f 	beq.w	3418875a <sfdp_enter_octal_mode+0x16>
      retr = EXTMEM_SFDP_ERROR_OCTALMODE;
3418885c:	200b      	movs	r0, #11
3418885e:	e7b1      	b.n	341887c4 <sfdp_enter_octal_mode+0x80>
    if (EXTMEM_DRIVER_NOR_SFDP_OK != driver_check_FlagBUSY(Object, 100u))
34188860:	2164      	movs	r1, #100	@ 0x64
34188862:	4620      	mov	r0, r4
34188864:	f7ff fd67 	bl	34188336 <driver_check_FlagBUSY>
34188868:	bb28      	cbnz	r0, 341888b6 <sfdp_enter_octal_mode+0x172>
    data[0] = (uint8_t)JEDEC_OctalDdr.Param_DWORD.D5.Byte1CommandSequence;
3418886a:	4b16      	ldr	r3, [pc, #88]	@ (341888c4 <sfdp_enter_octal_mode+0x180>)
3418886c:	7c99      	ldrb	r1, [r3, #18]
3418886e:	f88d 1000 	strb.w	r1, [sp]
    data[1] = (uint8_t)JEDEC_OctalDdr.Param_DWORD.D5.Byte2CommandSequence;
34188872:	7c5a      	ldrb	r2, [r3, #17]
34188874:	f88d 2001 	strb.w	r2, [sp, #1]
    data[2] = (uint8_t)JEDEC_OctalDdr.Param_DWORD.D5.Byte3CommandSequence;
34188878:	7c1a      	ldrb	r2, [r3, #16]
3418887a:	f88d 2002 	strb.w	r2, [sp, #2]
    data[3] = (uint8_t)JEDEC_OctalDdr.Param_DWORD.D6.Byte4CommandSequence;
3418887e:	7dda      	ldrb	r2, [r3, #23]
34188880:	f88d 2003 	strb.w	r2, [sp, #3]
    data[4] = (uint8_t)JEDEC_OctalDdr.Param_DWORD.D6.Byte5CommandSequence;
34188884:	7d9a      	ldrb	r2, [r3, #22]
34188886:	f88d 2004 	strb.w	r2, [sp, #4]
    data[5] = (uint8_t)JEDEC_OctalDdr.Param_DWORD.D6.Byte6CommandSequence;
3418888a:	7d5a      	ldrb	r2, [r3, #21]
3418888c:	f88d 2005 	strb.w	r2, [sp, #5]
    data[6] = (uint8_t)JEDEC_OctalDdr.Param_DWORD.D6.Byte7CommandSequence;
34188890:	7d1a      	ldrb	r2, [r3, #20]
34188892:	f88d 2006 	strb.w	r2, [sp, #6]
                                           (uint16_t)(JEDEC_OctalDdr.Param_DWORD.D5.LengthCommand - 1u)))
34188896:	7cdb      	ldrb	r3, [r3, #19]
    if (HAL_OK != SAL_XSPI_CommandSendData(&Object->sfdp_private.SALObject, data[0], &data[1],
34188898:	3b01      	subs	r3, #1
3418889a:	b29b      	uxth	r3, r3
3418889c:	f10d 0201 	add.w	r2, sp, #1
341888a0:	f104 0008 	add.w	r0, r4, #8
341888a4:	f7ff fbd0 	bl	34188048 <SAL_XSPI_CommandSendData>
341888a8:	2800      	cmp	r0, #0
341888aa:	f43f af5a 	beq.w	34188762 <sfdp_enter_octal_mode+0x1e>
      retr = EXTMEM_SFDP_ERROR_OCTALMODE;
341888ae:	200b      	movs	r0, #11
341888b0:	e788      	b.n	341887c4 <sfdp_enter_octal_mode+0x80>
      retr = EXTMEM_SFDP_ERROR_DRIVER;
341888b2:	200c      	movs	r0, #12
341888b4:	e786      	b.n	341887c4 <sfdp_enter_octal_mode+0x80>
      retr = EXTMEM_SFDP_ERROR_DRIVER;
341888b6:	200c      	movs	r0, #12
341888b8:	e784      	b.n	341887c4 <sfdp_enter_octal_mode+0x80>
      retr = EXTMEM_SFDP_ERROR_DRIVER;
341888ba:	200c      	movs	r0, #12
341888bc:	e782      	b.n	341887c4 <sfdp_enter_octal_mode+0x80>
      retr = EXTMEM_SFDP_ERROR_OCTALMODE;
341888be:	200b      	movs	r0, #11
341888c0:	e780      	b.n	341887c4 <sfdp_enter_octal_mode+0x80>
341888c2:	bf00      	nop
341888c4:	34180798 	.word	0x34180798

341888c8 <sfdp_set_dummycycle>:
  * @param Object Pointer to the NOR SFDP memory instance object descriptor.
  * @param DummyValue Dummy cycle value to set.
  * @return SFDP_StatusTypeDef: EXTMEM_SFDP_OK if successful, error code otherwise.
  */
SFDP_StatusTypeDef sfdp_set_dummycycle(EXTMEM_DRIVER_NOR_SFDP_ObjectTypeDef *Object, uint32_t DummyValue)
{
341888c8:	b5f0      	push	{r4, r5, r6, r7, lr}
341888ca:	b087      	sub	sp, #28
  const uint8_t MaskWaitStateValue[4] = { 0x3u, 0x7u, 0xFu, 0x1Fu };
341888cc:	4b49      	ldr	r3, [pc, #292]	@ (341889f4 <sfdp_set_dummycycle+0x12c>)
341888ce:	9305      	str	r3, [sp, #20]
  SFDP_StatusTypeDef retr = EXTMEM_SFDP_OK;
  uint8_t localValue[2] = { 0 };
341888d0:	2300      	movs	r3, #0
341888d2:	f8ad 3010 	strh.w	r3, [sp, #16]
  uint32_t Address;

  if ((JEDEC_SCCR_Map.Param_DWORD.D9.BitAccessedByCommandsUsingAddress == 0u) &&
341888d6:	4b48      	ldr	r3, [pc, #288]	@ (341889f8 <sfdp_set_dummycycle+0x130>)
341888d8:	f893 3023 	ldrb.w	r3, [r3, #35]	@ 0x23
341888dc:	f003 0290 	and.w	r2, r3, #144	@ 0x90
341888e0:	2a80      	cmp	r2, #128	@ 0x80
341888e2:	d07a      	beq.n	341889da <sfdp_set_dummycycle+0x112>
341888e4:	4604      	mov	r4, r0
341888e6:	460d      	mov	r5, r1
    retr = EXTMEM_SFDP_ERROR_DRIVER;
    goto error;
  }

  /* Compute the Address */
  if (JEDEC_SCCR_Map.Param_DWORD.D9.LocalAddress == 1u)
341888e8:	f013 0f08 	tst.w	r3, #8
341888ec:	d069      	beq.n	341889c2 <sfdp_set_dummycycle+0xfa>
  {
    /* Local Address is found in Byte 1 of 32-bit address */
    Address = JEDEC_SCCR_Map.Param_DWORD.D9.AddressRegisterOrModesSupported << 8;
341888ee:	4b42      	ldr	r3, [pc, #264]	@ (341889f8 <sfdp_set_dummycycle+0x130>)
341888f0:	f893 7022 	ldrb.w	r7, [r3, #34]	@ 0x22
341888f4:	023f      	lsls	r7, r7, #8
      Address = JEDEC_SCCR_Map.Param_DWORD.D9.AddressRegisterOrModesSupported;
    }
  }

  /* Read the configuration */
  if (HAL_OK != SAL_XSPI_CommandSendReadAddress(&Object->sfdp_private.SALObject,
341888f6:	f104 0608 	add.w	r6, r4, #8
341888fa:	f894 305d 	ldrb.w	r3, [r4, #93]	@ 0x5d
341888fe:	9301      	str	r3, [sp, #4]
34188900:	2302      	movs	r3, #2
34188902:	9300      	str	r3, [sp, #0]
34188904:	ab04      	add	r3, sp, #16
34188906:	463a      	mov	r2, r7
34188908:	493b      	ldr	r1, [pc, #236]	@ (341889f8 <sfdp_set_dummycycle+0x130>)
3418890a:	f891 1021 	ldrb.w	r1, [r1, #33]	@ 0x21
3418890e:	4630      	mov	r0, r6
34188910:	f7ff fbf8 	bl	34188104 <SAL_XSPI_CommandSendReadAddress>
34188914:	2800      	cmp	r0, #0
34188916:	d162      	bne.n	341889de <sfdp_set_dummycycle+0x116>
    retr = EXTMEM_SFDP_ERROR_DRIVER;
    goto error;
  }

  /* send command to write enable */
  if (HAL_OK != SAL_XSPI_CommandSendData(&Object->sfdp_private.SALObject,
34188918:	2300      	movs	r3, #0
3418891a:	461a      	mov	r2, r3
3418891c:	f894 1070 	ldrb.w	r1, [r4, #112]	@ 0x70
34188920:	4630      	mov	r0, r6
34188922:	f7ff fb91 	bl	34188048 <SAL_XSPI_CommandSendData>
34188926:	2800      	cmp	r0, #0
34188928:	d15d      	bne.n	341889e6 <sfdp_set_dummycycle+0x11e>
    retr = EXTMEM_SFDP_ERROR_DRIVER;
    goto error;
  }

  /* control the write enable */
  if (HAL_OK != SAL_XSPI_CheckStatusRegister(&Object->sfdp_private.SALObject,
3418892a:	f894 1071 	ldrb.w	r1, [r4, #113]	@ 0x71
                                             Object->sfdp_private.DriverInfo.ReadWELCommand,
                                             Object->sfdp_private.DriverInfo.WELAddress,
3418892e:	f894 2074 	ldrb.w	r2, [r4, #116]	@ 0x74
                                             ((Object->sfdp_private.DriverInfo.WELBusyPolarity == 0u) ? 1u : 0u)
34188932:	f894 3073 	ldrb.w	r3, [r4, #115]	@ 0x73
34188936:	2b00      	cmp	r3, #0
34188938:	d14d      	bne.n	341889d6 <sfdp_set_dummycycle+0x10e>
3418893a:	2301      	movs	r3, #1
                                             << Object->sfdp_private.DriverInfo.WELPosition,
3418893c:	f894 c072 	ldrb.w	ip, [r4, #114]	@ 0x72
34188940:	fa03 f30c 	lsl.w	r3, r3, ip
                                             1u << Object->sfdp_private.DriverInfo.WELPosition,
34188944:	2001      	movs	r0, #1
34188946:	fa00 f00c 	lsl.w	r0, r0, ip
  if (HAL_OK != SAL_XSPI_CheckStatusRegister(&Object->sfdp_private.SALObject,
3418894a:	f44f 7c7a 	mov.w	ip, #1000	@ 0x3e8
3418894e:	f8cd c008 	str.w	ip, [sp, #8]
34188952:	f894 c05d 	ldrb.w	ip, [r4, #93]	@ 0x5d
34188956:	f8cd c004 	str.w	ip, [sp, #4]
3418895a:	b2c0      	uxtb	r0, r0
3418895c:	9000      	str	r0, [sp, #0]
3418895e:	b2db      	uxtb	r3, r3
34188960:	4630      	mov	r0, r6
34188962:	f7ff fc17 	bl	34188194 <SAL_XSPI_CheckStatusRegister>
34188966:	2800      	cmp	r0, #0
34188968:	d13f      	bne.n	341889ea <sfdp_set_dummycycle+0x122>
    retr = EXTMEM_SFDP_ERROR_DRIVER;
    goto error;
  }

  /* clear the value */
  localValue[0] = localValue[0] & ~(MaskWaitStateValue[JEDEC_SCCR_Map.Param_DWORD.D9.NumberBitsUsedToSetWaitStates]
3418896a:	f89d 3010 	ldrb.w	r3, [sp, #16]
3418896e:	4922      	ldr	r1, [pc, #136]	@ (341889f8 <sfdp_set_dummycycle+0x130>)
34188970:	f891 0023 	ldrb.w	r0, [r1, #35]	@ 0x23
34188974:	f3c0 1241 	ubfx	r2, r0, #5, #2
34188978:	3218      	adds	r2, #24
3418897a:	446a      	add	r2, sp
3418897c:	f812 2c04 	ldrb.w	r2, [r2, #-4]
                                    << JEDEC_SCCR_Map.Param_DWORD.D9.BitLocationLSBPhysicalBitsRegister);
34188980:	f000 0007 	and.w	r0, r0, #7
34188984:	4082      	lsls	r2, r0
  localValue[0] = localValue[0] & ~(MaskWaitStateValue[JEDEC_SCCR_Map.Param_DWORD.D9.NumberBitsUsedToSetWaitStates]
34188986:	43d2      	mvns	r2, r2
34188988:	b252      	sxtb	r2, r2
3418898a:	4013      	ands	r3, r2
3418898c:	f88d 3010 	strb.w	r3, [sp, #16]

  /* Apply the value with the mask */
  localValue[0] = localValue[0]
                  | (uint8_t)(DummyValue << JEDEC_SCCR_Map.Param_DWORD.D9.BitLocationLSBPhysicalBitsRegister);
34188990:	4085      	lsls	r5, r0
34188992:	b2ed      	uxtb	r5, r5
  localValue[0] = localValue[0]
34188994:	432b      	orrs	r3, r5
34188996:	f88d 3010 	strb.w	r3, [sp, #16]
  localValue[1] = localValue[0];
3418899a:	f88d 3011 	strb.w	r3, [sp, #17]

  /* Write de configuration */
  if (HAL_OK != SAL_XSPI_Write(&Object->sfdp_private.SALObject,
3418899e:	2302      	movs	r3, #2
341889a0:	9300      	str	r3, [sp, #0]
341889a2:	ab04      	add	r3, sp, #16
341889a4:	463a      	mov	r2, r7
341889a6:	f891 1020 	ldrb.w	r1, [r1, #32]
341889aa:	4630      	mov	r0, r6
341889ac:	f7ff fc96 	bl	341882dc <SAL_XSPI_Write>
341889b0:	4605      	mov	r5, r0
341889b2:	b9e0      	cbnz	r0, 341889ee <sfdp_set_dummycycle+0x126>
    retr = EXTMEM_SFDP_ERROR_DRIVER;
    goto error;
  }

  /* wait for busy flag clear */
  if (EXTMEM_DRIVER_NOR_SFDP_OK != driver_check_FlagBUSY(Object, 100u))
341889b4:	2164      	movs	r1, #100	@ 0x64
341889b6:	4620      	mov	r0, r4
341889b8:	f7ff fcbd 	bl	34188336 <driver_check_FlagBUSY>
341889bc:	b180      	cbz	r0, 341889e0 <sfdp_set_dummycycle+0x118>
  {
    retr = EXTMEM_SFDP_ERROR_DRIVER;
341889be:	250c      	movs	r5, #12
341889c0:	e00e      	b.n	341889e0 <sfdp_set_dummycycle+0x118>
    if (Object->sfdp_private.ManuID == 0xC8)
341889c2:	f890 305d 	ldrb.w	r3, [r0, #93]	@ 0x5d
341889c6:	2bc8      	cmp	r3, #200	@ 0xc8
341889c8:	d003      	beq.n	341889d2 <sfdp_set_dummycycle+0x10a>
      Address = JEDEC_SCCR_Map.Param_DWORD.D9.AddressRegisterOrModesSupported;
341889ca:	4b0b      	ldr	r3, [pc, #44]	@ (341889f8 <sfdp_set_dummycycle+0x130>)
341889cc:	f893 7022 	ldrb.w	r7, [r3, #34]	@ 0x22
341889d0:	e791      	b.n	341888f6 <sfdp_set_dummycycle+0x2e>
      Address = 1U;
341889d2:	2701      	movs	r7, #1
341889d4:	e78f      	b.n	341888f6 <sfdp_set_dummycycle+0x2e>
                                             ((Object->sfdp_private.DriverInfo.WELBusyPolarity == 0u) ? 1u : 0u)
341889d6:	2300      	movs	r3, #0
341889d8:	e7b0      	b.n	3418893c <sfdp_set_dummycycle+0x74>
    retr = EXTMEM_SFDP_ERROR_DRIVER;
341889da:	250c      	movs	r5, #12
341889dc:	e000      	b.n	341889e0 <sfdp_set_dummycycle+0x118>
    retr = EXTMEM_SFDP_ERROR_DRIVER;
341889de:	250c      	movs	r5, #12
    goto error;
  }

error :
  return retr;
}
341889e0:	4628      	mov	r0, r5
341889e2:	b007      	add	sp, #28
341889e4:	bdf0      	pop	{r4, r5, r6, r7, pc}
    retr = EXTMEM_SFDP_ERROR_DRIVER;
341889e6:	250c      	movs	r5, #12
341889e8:	e7fa      	b.n	341889e0 <sfdp_set_dummycycle+0x118>
    retr = EXTMEM_SFDP_ERROR_DRIVER;
341889ea:	250c      	movs	r5, #12
341889ec:	e7f8      	b.n	341889e0 <sfdp_set_dummycycle+0x118>
    retr = EXTMEM_SFDP_ERROR_DRIVER;
341889ee:	250c      	movs	r5, #12
341889f0:	e7f6      	b.n	341889e0 <sfdp_set_dummycycle+0x118>
341889f2:	bf00      	nop
341889f4:	1f0f0703 	.word	0x1f0f0703
341889f8:	341807b8 	.word	0x341807b8

341889fc <JEDEC_Basic_ManageQuadEnableRequirement>:
  * @brief Manages the Quad Enable Requirement (QER) for the NOR memory device.
  * @param Object Pointer to the NOR SFDP memory instance object descriptor.
  * @return SFDP_StatusTypeDef: EXTMEM_SFDP_OK if successful, error code otherwise.
  */
SFDP_StatusTypeDef JEDEC_Basic_ManageQuadEnableRequirement(EXTMEM_DRIVER_NOR_SFDP_ObjectTypeDef *Object)
{
341889fc:	b530      	push	{r4, r5, lr}
341889fe:	b083      	sub	sp, #12
34188a00:	4604      	mov	r4, r0
  SFDP_StatusTypeDef retr = EXTMEM_SFDP_ERROR_NOTYETHANDLED;
  uint8_t localValue[2];

  /* switch the mode in QSPI if available */
  switch (JEDEC_Basic.Params.Param_DWORD.D15.QuadEnableRequirement & 0x7u)
34188a02:	4b3b      	ldr	r3, [pc, #236]	@ (34188af0 <JEDEC_Basic_ManageQuadEnableRequirement+0xf4>)
34188a04:	f893 303e 	ldrb.w	r3, [r3, #62]	@ 0x3e
34188a08:	f3c3 1302 	ubfx	r3, r3, #4, #3
34188a0c:	2b02      	cmp	r3, #2
34188a0e:	d005      	beq.n	34188a1c <JEDEC_Basic_ManageQuadEnableRequirement+0x20>
34188a10:	2b04      	cmp	r3, #4
34188a12:	d02d      	beq.n	34188a70 <JEDEC_Basic_ManageQuadEnableRequirement+0x74>
34188a14:	250f      	movs	r5, #15
    default :/* Added for Misra */
      break;
  }
error :
  return retr;
}
34188a16:	4628      	mov	r0, r5
34188a18:	b003      	add	sp, #12
34188a1a:	bd30      	pop	{r4, r5, pc}
      if (HAL_OK != SAL_XSPI_SendReadCommand(&Object->sfdp_private.SALObject,
34188a1c:	f100 0508 	add.w	r5, r0, #8
34188a20:	2300      	movs	r3, #0
34188a22:	461a      	mov	r2, r3
34188a24:	f890 1070 	ldrb.w	r1, [r0, #112]	@ 0x70
34188a28:	4628      	mov	r0, r5
34188a2a:	f7ff fb3c 	bl	341880a6 <SAL_XSPI_SendReadCommand>
34188a2e:	2800      	cmp	r0, #0
34188a30:	d14f      	bne.n	34188ad2 <JEDEC_Basic_ManageQuadEnableRequirement+0xd6>
      if (HAL_OK != SAL_XSPI_SendReadCommand(&Object->sfdp_private.SALObject, SFDP_DRIVER_READ_STATUS_REGISTER_COMMAND,
34188a32:	2301      	movs	r3, #1
34188a34:	aa01      	add	r2, sp, #4
34188a36:	2105      	movs	r1, #5
34188a38:	4628      	mov	r0, r5
34188a3a:	f7ff fb34 	bl	341880a6 <SAL_XSPI_SendReadCommand>
34188a3e:	2800      	cmp	r0, #0
34188a40:	d149      	bne.n	34188ad6 <JEDEC_Basic_ManageQuadEnableRequirement+0xda>
      localValue[0] = localValue[0] | 0x40u;
34188a42:	f89d 3004 	ldrb.w	r3, [sp, #4]
34188a46:	f043 0340 	orr.w	r3, r3, #64	@ 0x40
34188a4a:	f88d 3004 	strb.w	r3, [sp, #4]
      if (HAL_OK != SAL_XSPI_CommandSendData(&Object->sfdp_private.SALObject, 0x1u, (uint8_t *)&localValue[0], 1u))
34188a4e:	2301      	movs	r3, #1
34188a50:	aa01      	add	r2, sp, #4
34188a52:	4619      	mov	r1, r3
34188a54:	4628      	mov	r0, r5
34188a56:	f7ff faf7 	bl	34188048 <SAL_XSPI_CommandSendData>
34188a5a:	4605      	mov	r5, r0
34188a5c:	2800      	cmp	r0, #0
34188a5e:	d13c      	bne.n	34188ada <JEDEC_Basic_ManageQuadEnableRequirement+0xde>
      if (EXTMEM_DRIVER_NOR_SFDP_OK != driver_check_FlagBUSY(Object, 100))
34188a60:	2164      	movs	r1, #100	@ 0x64
34188a62:	4620      	mov	r0, r4
34188a64:	f7ff fc67 	bl	34188336 <driver_check_FlagBUSY>
34188a68:	2800      	cmp	r0, #0
34188a6a:	d0d4      	beq.n	34188a16 <JEDEC_Basic_ManageQuadEnableRequirement+0x1a>
        retr = EXTMEM_SFDP_ERROR_DRIVER;
34188a6c:	250c      	movs	r5, #12
34188a6e:	e7d2      	b.n	34188a16 <JEDEC_Basic_ManageQuadEnableRequirement+0x1a>
      if (HAL_OK != SAL_XSPI_SendReadCommand(&Object->sfdp_private.SALObject, 0x5, (uint8_t *)&localValue[0], 2u))
34188a70:	f100 0508 	add.w	r5, r0, #8
34188a74:	2302      	movs	r3, #2
34188a76:	aa01      	add	r2, sp, #4
34188a78:	2105      	movs	r1, #5
34188a7a:	4628      	mov	r0, r5
34188a7c:	f7ff fb13 	bl	341880a6 <SAL_XSPI_SendReadCommand>
34188a80:	bb68      	cbnz	r0, 34188ade <JEDEC_Basic_ManageQuadEnableRequirement+0xe2>
      localValue[1] |= 2u;
34188a82:	f89d 3005 	ldrb.w	r3, [sp, #5]
34188a86:	f043 0302 	orr.w	r3, r3, #2
34188a8a:	f88d 3005 	strb.w	r3, [sp, #5]
      if (HAL_OK != SAL_XSPI_SendReadCommand(&Object->sfdp_private.SALObject,
34188a8e:	2300      	movs	r3, #0
34188a90:	461a      	mov	r2, r3
34188a92:	f894 1070 	ldrb.w	r1, [r4, #112]	@ 0x70
34188a96:	4628      	mov	r0, r5
34188a98:	f7ff fb05 	bl	341880a6 <SAL_XSPI_SendReadCommand>
34188a9c:	bb08      	cbnz	r0, 34188ae2 <JEDEC_Basic_ManageQuadEnableRequirement+0xe6>
      if (HAL_OK != SAL_XSPI_CommandSendData(&Object->sfdp_private.SALObject, 0x1u, (uint8_t *)&localValue[0], 2u))
34188a9e:	2302      	movs	r3, #2
34188aa0:	aa01      	add	r2, sp, #4
34188aa2:	2101      	movs	r1, #1
34188aa4:	4628      	mov	r0, r5
34188aa6:	f7ff facf 	bl	34188048 <SAL_XSPI_CommandSendData>
34188aaa:	b9e0      	cbnz	r0, 34188ae6 <JEDEC_Basic_ManageQuadEnableRequirement+0xea>
      if (EXTMEM_DRIVER_NOR_SFDP_OK != driver_check_FlagBUSY(Object, 100))
34188aac:	2164      	movs	r1, #100	@ 0x64
34188aae:	4620      	mov	r0, r4
34188ab0:	f7ff fc41 	bl	34188336 <driver_check_FlagBUSY>
34188ab4:	b9c8      	cbnz	r0, 34188aea <JEDEC_Basic_ManageQuadEnableRequirement+0xee>
      localValue[1] = 0xFF;
34188ab6:	23ff      	movs	r3, #255	@ 0xff
34188ab8:	f88d 3005 	strb.w	r3, [sp, #5]
      if (HAL_OK != SAL_XSPI_SendReadCommand(&Object->sfdp_private.SALObject, 0x5, (uint8_t *)&localValue[0], 2u))
34188abc:	2302      	movs	r3, #2
34188abe:	aa01      	add	r2, sp, #4
34188ac0:	2105      	movs	r1, #5
34188ac2:	4628      	mov	r0, r5
34188ac4:	f7ff faef 	bl	341880a6 <SAL_XSPI_SendReadCommand>
34188ac8:	4605      	mov	r5, r0
34188aca:	2800      	cmp	r0, #0
34188acc:	d0a3      	beq.n	34188a16 <JEDEC_Basic_ManageQuadEnableRequirement+0x1a>
        retr = EXTMEM_SFDP_ERROR_DRIVER;
34188ace:	250c      	movs	r5, #12
34188ad0:	e7a1      	b.n	34188a16 <JEDEC_Basic_ManageQuadEnableRequirement+0x1a>
        retr = EXTMEM_SFDP_ERROR_DRIVER;
34188ad2:	250c      	movs	r5, #12
34188ad4:	e79f      	b.n	34188a16 <JEDEC_Basic_ManageQuadEnableRequirement+0x1a>
        retr = EXTMEM_SFDP_ERROR_DRIVER;
34188ad6:	250c      	movs	r5, #12
34188ad8:	e79d      	b.n	34188a16 <JEDEC_Basic_ManageQuadEnableRequirement+0x1a>
        retr = EXTMEM_SFDP_ERROR_DRIVER;
34188ada:	250c      	movs	r5, #12
34188adc:	e79b      	b.n	34188a16 <JEDEC_Basic_ManageQuadEnableRequirement+0x1a>
        retr = EXTMEM_SFDP_ERROR_DRIVER;
34188ade:	250c      	movs	r5, #12
34188ae0:	e799      	b.n	34188a16 <JEDEC_Basic_ManageQuadEnableRequirement+0x1a>
        retr = EXTMEM_SFDP_ERROR_DRIVER;
34188ae2:	250c      	movs	r5, #12
34188ae4:	e797      	b.n	34188a16 <JEDEC_Basic_ManageQuadEnableRequirement+0x1a>
        retr = EXTMEM_SFDP_ERROR_DRIVER;
34188ae6:	250c      	movs	r5, #12
34188ae8:	e795      	b.n	34188a16 <JEDEC_Basic_ManageQuadEnableRequirement+0x1a>
        retr = EXTMEM_SFDP_ERROR_DRIVER;
34188aea:	250c      	movs	r5, #12
34188aec:	e793      	b.n	34188a16 <JEDEC_Basic_ManageQuadEnableRequirement+0x1a>
34188aee:	bf00      	nop
34188af0:	34180848 	.word	0x34180848

34188af4 <JEDEC_Basic_Manage4S4S4SEnableSequence>:
  * @brief Manages the 4S-4S-4S enable sequence for the NOR memory device.
  * @param Object Pointer to the NOR SFDP memory instance object descriptor.
  * @return SFDP_StatusTypeDef: EXTMEM_SFDP_OK if successful, error code otherwise.
  */
SFDP_StatusTypeDef JEDEC_Basic_Manage4S4S4SEnableSequence(EXTMEM_DRIVER_NOR_SFDP_ObjectTypeDef *Object)
{
34188af4:	b538      	push	{r3, r4, r5, lr}
34188af6:	4605      	mov	r5, r0
  SFDP_StatusTypeDef retr = EXTMEM_SFDP_ERROR_NOTYETHANDLED;
  uint8_t instruction = 0x00u;

  /* 4-4-4 mode enable sequences; This field describes the supported methods to enter 4-4-4 mode from 1-1-1 mode */
  /* x_xxx1b: set QE per QER description above, then issue instruction 38h */
  if ((JEDEC_Basic.Params.Param_DWORD.D15._4S4S4S_EnableSequence & 0x1u) == 0x1u)
34188af8:	4b10      	ldr	r3, [pc, #64]	@ (34188b3c <JEDEC_Basic_Manage4S4S4SEnableSequence+0x48>)
34188afa:	8f9b      	ldrh	r3, [r3, #60]	@ 0x3c
34188afc:	f3c3 1204 	ubfx	r2, r3, #4, #5
34188b00:	f013 0f10 	tst.w	r3, #16
34188b04:	d105      	bne.n	34188b12 <JEDEC_Basic_Manage4S4S4SEnableSequence+0x1e>
  {
    retr = JEDEC_Basic_ManageQuadEnableRequirement(Object);
    instruction = 0x38u;
  }
  /* x_x1xxb: issue instruction 35h */
  else if ((JEDEC_Basic.Params.Param_DWORD.D15._4S4S4S_EnableSequence & 0x4u) == 0x4u)
34188b06:	f012 0f04 	tst.w	r2, #4
34188b0a:	d111      	bne.n	34188b30 <JEDEC_Basic_Manage4S4S4SEnableSequence+0x3c>
  SFDP_StatusTypeDef retr = EXTMEM_SFDP_ERROR_NOTYETHANDLED;
34188b0c:	240f      	movs	r4, #15
    /* @note on memory W25Q64JV the command 38h does not exist so the control on command execution has been removed */
    retr = EXTMEM_SFDP_OK;
  }

  return retr;
}
34188b0e:	4620      	mov	r0, r4
34188b10:	bd38      	pop	{r3, r4, r5, pc}
    retr = JEDEC_Basic_ManageQuadEnableRequirement(Object);
34188b12:	f7ff ff73 	bl	341889fc <JEDEC_Basic_ManageQuadEnableRequirement>
34188b16:	4604      	mov	r4, r0
    instruction = 0x38u;
34188b18:	2138      	movs	r1, #56	@ 0x38
  if ((retr == EXTMEM_SFDP_OK) && (instruction != 0u))
34188b1a:	2c00      	cmp	r4, #0
34188b1c:	d1f7      	bne.n	34188b0e <JEDEC_Basic_Manage4S4S4SEnableSequence+0x1a>
34188b1e:	2900      	cmp	r1, #0
34188b20:	d0f5      	beq.n	34188b0e <JEDEC_Basic_Manage4S4S4SEnableSequence+0x1a>
    (void)SAL_XSPI_SendReadCommand(&Object->sfdp_private.SALObject, instruction, NULL, 0u);
34188b22:	2300      	movs	r3, #0
34188b24:	461a      	mov	r2, r3
34188b26:	f105 0008 	add.w	r0, r5, #8
34188b2a:	f7ff fabc 	bl	341880a6 <SAL_XSPI_SendReadCommand>
    retr = EXTMEM_SFDP_OK;
34188b2e:	e7ee      	b.n	34188b0e <JEDEC_Basic_Manage4S4S4SEnableSequence+0x1a>
    retr = JEDEC_Basic_ManageQuadEnableRequirement(Object);
34188b30:	f7ff ff64 	bl	341889fc <JEDEC_Basic_ManageQuadEnableRequirement>
34188b34:	4604      	mov	r4, r0
    instruction = 0x35u;
34188b36:	2135      	movs	r1, #53	@ 0x35
34188b38:	e7ef      	b.n	34188b1a <JEDEC_Basic_Manage4S4S4SEnableSequence+0x26>
34188b3a:	bf00      	nop
34188b3c:	34180848 	.word	0x34180848

34188b40 <SFDP_BuildGenericDriver>:
{
34188b40:	e92d 41f0 	stmdb	sp!, {r4, r5, r6, r7, r8, lr}
34188b44:	b088      	sub	sp, #32
  if ((Object->sfdp_private.Sfdp_table_mask & (uint32_t)SFDP_PARAMID_BASIC_SPIPROTOCOL) !=
34188b46:	f8d0 3094 	ldr.w	r3, [r0, #148]	@ 0x94
34188b4a:	f013 0f08 	tst.w	r3, #8
34188b4e:	f000 8417 	beq.w	34189380 <SFDP_BuildGenericDriver+0x840>
34188b52:	4604      	mov	r4, r0
34188b54:	460d      	mov	r5, r1
  if ((JEDEC_Basic.Params.Param_DWORD.D2.FlashSize & 0x80000000u) == 0x0u)
34188b56:	4bc0      	ldr	r3, [pc, #768]	@ (34188e58 <SFDP_BuildGenericDriver+0x318>)
34188b58:	689b      	ldr	r3, [r3, #8]
34188b5a:	2b00      	cmp	r3, #0
34188b5c:	f2c0 8157 	blt.w	34188e0e <SFDP_BuildGenericDriver+0x2ce>
  if (value == 0U)
34188b60:	3301      	adds	r3, #1
34188b62:	f000 8152 	beq.w	34188e0a <SFDP_BuildGenericDriver+0x2ca>
  return __builtin_clz(value);
34188b66:	fab3 f383 	clz	r3, r3
    Object->sfdp_private.FlashSize = 31u - (uint8_t)__CLZ((JEDEC_Basic.Params.Param_DWORD.D2.FlashSize + 1u));
34188b6a:	f1c3 031f 	rsb	r3, r3, #31
34188b6e:	f884 305e 	strb.w	r3, [r4, #94]	@ 0x5e
  Object->sfdp_private.FlashSize = Object->sfdp_private.FlashSize - 3u; /* divide by eight the value */
34188b72:	f894 305e 	ldrb.w	r3, [r4, #94]	@ 0x5e
34188b76:	1eda      	subs	r2, r3, #3
34188b78:	f884 205e 	strb.w	r2, [r4, #94]	@ 0x5e
  FlashSize = Object->sfdp_private.FlashSize - 1u;
34188b7c:	3b04      	subs	r3, #4
34188b7e:	f88d 301b 	strb.w	r3, [sp, #27]
  (void) SAL_XSPI_MemoryConfig(&Object->sfdp_private.SALObject, PARAM_FLASHSIZE, &FlashSize);
34188b82:	f104 0608 	add.w	r6, r4, #8
34188b86:	f10d 021b 	add.w	r2, sp, #27
34188b8a:	2104      	movs	r1, #4
34188b8c:	4630      	mov	r0, r6
34188b8e:	f7ff f85d 	bl	34187c4c <SAL_XSPI_MemoryConfig>
  Object->sfdp_private.PageSize = ((uint32_t)1u <<  JEDEC_Basic.Params.Param_DWORD.D11.PageSize);
34188b92:	4bb1      	ldr	r3, [pc, #708]	@ (34188e58 <SFDP_BuildGenericDriver+0x318>)
34188b94:	f893 102c 	ldrb.w	r1, [r3, #44]	@ 0x2c
34188b98:	0909      	lsrs	r1, r1, #4
34188b9a:	2201      	movs	r2, #1
34188b9c:	408a      	lsls	r2, r1
34188b9e:	6622      	str	r2, [r4, #96]	@ 0x60
  Object->sfdp_private.DriverInfo.PageProgramInstruction = SFDP_DRIVER_PAGE_PROGRAM_COMMAND;
34188ba0:	2202      	movs	r2, #2
34188ba2:	f884 2075 	strb.w	r2, [r4, #117]	@ 0x75
  Object->sfdp_private.DriverInfo.EraseType1Size    = (uint8_t)JEDEC_Basic.Params.Param_DWORD.D8.EraseType1_Size;
34188ba6:	f893 7020 	ldrb.w	r7, [r3, #32]
34188baa:	f884 7077 	strb.w	r7, [r4, #119]	@ 0x77
  Object->sfdp_private.DriverInfo.EraseType1Command = (uint8_t)JEDEC_Basic.Params.Param_DWORD.D8.EraseType1_Instruction;
34188bae:	f893 2021 	ldrb.w	r2, [r3, #33]	@ 0x21
34188bb2:	f884 2078 	strb.w	r2, [r4, #120]	@ 0x78
  Object->sfdp_private.DriverInfo.EraseType2Size    = (uint8_t)JEDEC_Basic.Params.Param_DWORD.D8.EraseType2_Size;
34188bb6:	f893 0022 	ldrb.w	r0, [r3, #34]	@ 0x22
34188bba:	f884 0079 	strb.w	r0, [r4, #121]	@ 0x79
  Object->sfdp_private.DriverInfo.EraseType2Command = (uint8_t)JEDEC_Basic.Params.Param_DWORD.D8.EraseType2_Instruction;
34188bbe:	f893 2023 	ldrb.w	r2, [r3, #35]	@ 0x23
34188bc2:	f884 207a 	strb.w	r2, [r4, #122]	@ 0x7a
  Object->sfdp_private.DriverInfo.EraseType3Size    = (uint8_t)JEDEC_Basic.Params.Param_DWORD.D9.EraseType3_Size;
34188bc6:	f893 1024 	ldrb.w	r1, [r3, #36]	@ 0x24
34188bca:	f884 107b 	strb.w	r1, [r4, #123]	@ 0x7b
  Object->sfdp_private.DriverInfo.EraseType3Command = (uint8_t)JEDEC_Basic.Params.Param_DWORD.D9.EraseType3_Instruction;
34188bce:	f893 2025 	ldrb.w	r2, [r3, #37]	@ 0x25
34188bd2:	f884 207c 	strb.w	r2, [r4, #124]	@ 0x7c
  Object->sfdp_private.DriverInfo.EraseType4Size    = (uint8_t)JEDEC_Basic.Params.Param_DWORD.D9.EraseType4_Size;
34188bd6:	f893 2026 	ldrb.w	r2, [r3, #38]	@ 0x26
34188bda:	f884 207d 	strb.w	r2, [r4, #125]	@ 0x7d
  Object->sfdp_private.DriverInfo.EraseType4Command = (uint8_t)JEDEC_Basic.Params.Param_DWORD.D9.EraseType4_Instruction;
34188bde:	f893 3027 	ldrb.w	r3, [r3, #39]	@ 0x27
34188be2:	f884 307e 	strb.w	r3, [r4, #126]	@ 0x7e
  if (Object->sfdp_private.DriverInfo.EraseType1Size != 0x0u)
34188be6:	b1b7      	cbz	r7, 34188c16 <SFDP_BuildGenericDriver+0xd6>
      (uint32_t)JEDEC_Basic.Params.Param_DWORD.D10.MutliplierEraseTime *
34188be8:	4f9b      	ldr	r7, [pc, #620]	@ (34188e58 <SFDP_BuildGenericDriver+0x318>)
34188bea:	f897 3028 	ldrb.w	r3, [r7, #40]	@ 0x28
34188bee:	f003 030f 	and.w	r3, r3, #15
      (JEDEC_Basic.Params.Param_DWORD.D10.EraseType1_TypicalTime_count + 1u) *
34188bf2:	f8b7 c028 	ldrh.w	ip, [r7, #40]	@ 0x28
34188bf6:	f3cc 1c04 	ubfx	ip, ip, #4, #5
      (uint32_t)JEDEC_Basic.Params.Param_DWORD.D10.MutliplierEraseTime *
34188bfa:	fb0c 3303 	mla	r3, ip, r3, r3
      block_erase_unit[JEDEC_Basic.Params.Param_DWORD.D10.EraseType1_TypicalTime_units];
34188bfe:	f897 7029 	ldrb.w	r7, [r7, #41]	@ 0x29
34188c02:	f3c7 0741 	ubfx	r7, r7, #1, #2
34188c06:	f8df c254 	ldr.w	ip, [pc, #596]	@ 34188e5c <SFDP_BuildGenericDriver+0x31c>
34188c0a:	f83c 7017 	ldrh.w	r7, [ip, r7, lsl #1]
      (JEDEC_Basic.Params.Param_DWORD.D10.EraseType1_TypicalTime_count + 1u) *
34188c0e:	fb07 f303 	mul.w	r3, r7, r3
    Object->sfdp_private.DriverInfo.EraseType1Timing =
34188c12:	f8c4 3080 	str.w	r3, [r4, #128]	@ 0x80
  if (Object->sfdp_private.DriverInfo.EraseType2Size != 0x0u)
34188c16:	b1a0      	cbz	r0, 34188c42 <SFDP_BuildGenericDriver+0x102>
      (uint32_t)JEDEC_Basic.Params.Param_DWORD.D10.MutliplierEraseTime *
34188c18:	488f      	ldr	r0, [pc, #572]	@ (34188e58 <SFDP_BuildGenericDriver+0x318>)
34188c1a:	f890 3028 	ldrb.w	r3, [r0, #40]	@ 0x28
34188c1e:	f003 030f 	and.w	r3, r3, #15
      (JEDEC_Basic.Params.Param_DWORD.D10.EraseType2_TypicalTime_count + 1u) *
34188c22:	f890 7029 	ldrb.w	r7, [r0, #41]	@ 0x29
34188c26:	08ff      	lsrs	r7, r7, #3
      (uint32_t)JEDEC_Basic.Params.Param_DWORD.D10.MutliplierEraseTime *
34188c28:	fb07 3303 	mla	r3, r7, r3, r3
      block_erase_unit[JEDEC_Basic.Params.Param_DWORD.D10.EraseType2_TypicalTime_units];
34188c2c:	f890 002a 	ldrb.w	r0, [r0, #42]	@ 0x2a
34188c30:	f000 0003 	and.w	r0, r0, #3
34188c34:	4f89      	ldr	r7, [pc, #548]	@ (34188e5c <SFDP_BuildGenericDriver+0x31c>)
34188c36:	f837 0010 	ldrh.w	r0, [r7, r0, lsl #1]
      (JEDEC_Basic.Params.Param_DWORD.D10.EraseType2_TypicalTime_count + 1u) *
34188c3a:	fb00 f303 	mul.w	r3, r0, r3
    Object->sfdp_private.DriverInfo.EraseType2Timing =
34188c3e:	f8c4 3084 	str.w	r3, [r4, #132]	@ 0x84
  if (Object->sfdp_private.DriverInfo.EraseType3Size != 0x0u)
34188c42:	b1a1      	cbz	r1, 34188c6e <SFDP_BuildGenericDriver+0x12e>
      (uint32_t)JEDEC_Basic.Params.Param_DWORD.D10.MutliplierEraseTime *
34188c44:	4984      	ldr	r1, [pc, #528]	@ (34188e58 <SFDP_BuildGenericDriver+0x318>)
34188c46:	f891 3028 	ldrb.w	r3, [r1, #40]	@ 0x28
34188c4a:	f003 030f 	and.w	r3, r3, #15
      (JEDEC_Basic.Params.Param_DWORD.D10.EraseType3_TypicalTime_count + 1u) *
34188c4e:	f891 002a 	ldrb.w	r0, [r1, #42]	@ 0x2a
34188c52:	f3c0 0084 	ubfx	r0, r0, #2, #5
      (uint32_t)JEDEC_Basic.Params.Param_DWORD.D10.MutliplierEraseTime *
34188c56:	fb00 3303 	mla	r3, r0, r3, r3
      block_erase_unit[JEDEC_Basic.Params.Param_DWORD.D10.EraseType3_TypicalTime_units];
34188c5a:	8d49      	ldrh	r1, [r1, #42]	@ 0x2a
34188c5c:	f3c1 11c1 	ubfx	r1, r1, #7, #2
34188c60:	487e      	ldr	r0, [pc, #504]	@ (34188e5c <SFDP_BuildGenericDriver+0x31c>)
34188c62:	f830 1011 	ldrh.w	r1, [r0, r1, lsl #1]
      (JEDEC_Basic.Params.Param_DWORD.D10.EraseType3_TypicalTime_count + 1u) *
34188c66:	fb01 f303 	mul.w	r3, r1, r3
    Object->sfdp_private.DriverInfo.EraseType3Timing =
34188c6a:	f8c4 3088 	str.w	r3, [r4, #136]	@ 0x88
  if (Object->sfdp_private.DriverInfo.EraseType4Size != 0x0u)
34188c6e:	b192      	cbz	r2, 34188c96 <SFDP_BuildGenericDriver+0x156>
      (uint32_t)JEDEC_Basic.Params.Param_DWORD.D10.MutliplierEraseTime *
34188c70:	4a79      	ldr	r2, [pc, #484]	@ (34188e58 <SFDP_BuildGenericDriver+0x318>)
34188c72:	f892 3028 	ldrb.w	r3, [r2, #40]	@ 0x28
34188c76:	f003 030f 	and.w	r3, r3, #15
      (JEDEC_Basic.Params.Param_DWORD.D10.EraseType4_TypicalTime_count + 1u) *
34188c7a:	f892 202b 	ldrb.w	r2, [r2, #43]	@ 0x2b
34188c7e:	f3c2 0144 	ubfx	r1, r2, #1, #5
      (uint32_t)JEDEC_Basic.Params.Param_DWORD.D10.MutliplierEraseTime *
34188c82:	fb01 3303 	mla	r3, r1, r3, r3
      block_erase_unit[JEDEC_Basic.Params.Param_DWORD.D10.EraseType4_TypicalTime_units];
34188c86:	0992      	lsrs	r2, r2, #6
34188c88:	4974      	ldr	r1, [pc, #464]	@ (34188e5c <SFDP_BuildGenericDriver+0x31c>)
34188c8a:	f831 2012 	ldrh.w	r2, [r1, r2, lsl #1]
      (JEDEC_Basic.Params.Param_DWORD.D10.EraseType4_TypicalTime_count + 1u) *
34188c8e:	fb02 f303 	mul.w	r3, r2, r3
    Object->sfdp_private.DriverInfo.EraseType4Timing =
34188c92:	f8c4 308c 	str.w	r3, [r4, #140]	@ 0x8c
    JEDEC_Basic.Params.Param_DWORD.D10.MutliplierEraseTime *
34188c96:	4970      	ldr	r1, [pc, #448]	@ (34188e58 <SFDP_BuildGenericDriver+0x318>)
34188c98:	f891 3028 	ldrb.w	r3, [r1, #40]	@ 0x28
34188c9c:	f003 030f 	and.w	r3, r3, #15
    (JEDEC_Basic.Params.Param_DWORD.D11.ChipErase_TypicalTime_count + 1u) *
34188ca0:	f891 202f 	ldrb.w	r2, [r1, #47]	@ 0x2f
34188ca4:	f002 001f 	and.w	r0, r2, #31
    JEDEC_Basic.Params.Param_DWORD.D10.MutliplierEraseTime *
34188ca8:	fb00 3303 	mla	r3, r0, r3, r3
    chip_erase_unit[JEDEC_Basic.Params.Param_DWORD.D11.ChipErase_TypicalTime_units];
34188cac:	f3c2 1241 	ubfx	r2, r2, #5, #2
34188cb0:	486b      	ldr	r0, [pc, #428]	@ (34188e60 <SFDP_BuildGenericDriver+0x320>)
34188cb2:	f850 2022 	ldr.w	r2, [r0, r2, lsl #2]
    (JEDEC_Basic.Params.Param_DWORD.D11.ChipErase_TypicalTime_count + 1u) *
34188cb6:	fb02 f303 	mul.w	r3, r2, r3
  Object->sfdp_private.DriverInfo.EraseChipTiming =
34188cba:	f8c4 3090 	str.w	r3, [r4, #144]	@ 0x90
  Object->sfdp_private.DriverInfo.ReadWELCommand = SFDP_DRIVER_READ_STATUS_REGISTER_COMMAND;
34188cbe:	2305      	movs	r3, #5
34188cc0:	f884 3071 	strb.w	r3, [r4, #113]	@ 0x71
  Object->sfdp_private.DriverInfo.ReadWIPCommand = SFDP_DRIVER_READ_STATUS_REGISTER_COMMAND;
34188cc4:	f884 306c 	strb.w	r3, [r4, #108]	@ 0x6c
  if (JEDEC_Basic.Params.Param_DWORD.D1.WriteEnableInstructionVolatileRegister == 0u)
34188cc8:	790b      	ldrb	r3, [r1, #4]
34188cca:	f013 0f10 	tst.w	r3, #16
34188cce:	f040 80a1 	bne.w	34188e14 <SFDP_BuildGenericDriver+0x2d4>
    Object->sfdp_private.DriverInfo.WriteWELCommand = SFDP_DRIVER_WRITE_ENABLE_50H_COMMAND;
34188cd2:	2350      	movs	r3, #80	@ 0x50
34188cd4:	f884 3070 	strb.w	r3, [r4, #112]	@ 0x70
  if ((JEDEC_Basic.Params.Param_DWORD.D16.VolatileNonVolatileRegister_WriteEnable & 0x1u) != 0u)
34188cd8:	4b5f      	ldr	r3, [pc, #380]	@ (34188e58 <SFDP_BuildGenericDriver+0x318>)
34188cda:	f893 3040 	ldrb.w	r3, [r3, #64]	@ 0x40
34188cde:	f003 027f 	and.w	r2, r3, #127	@ 0x7f
34188ce2:	f013 0f01 	tst.w	r3, #1
34188ce6:	f000 8099 	beq.w	34188e1c <SFDP_BuildGenericDriver+0x2dc>
    Object->sfdp_private.DriverInfo.WriteWELCommand = SFDP_DRIVER_WRITE_ENABLE_06H_COMMAND;
34188cea:	2306      	movs	r3, #6
34188cec:	f884 3070 	strb.w	r3, [r4, #112]	@ 0x70
  if (0u != (Object->sfdp_private.Sfdp_table_mask & (uint32_t)SFDP_PARAMID_STATUS_CONTROL_CONFIG_REGISTER_MAP))
34188cf0:	f8d4 3094 	ldr.w	r3, [r4, #148]	@ 0x94
34188cf4:	f413 7f00 	tst.w	r3, #512	@ 0x200
34188cf8:	f000 80ee 	beq.w	34188ed8 <SFDP_BuildGenericDriver+0x398>
    if (0u != JEDEC_SCCR_Map.Param_DWORD.D5.WIPBitAvailable)
34188cfc:	4b59      	ldr	r3, [pc, #356]	@ (34188e64 <SFDP_BuildGenericDriver+0x324>)
34188cfe:	7cda      	ldrb	r2, [r3, #19]
34188d00:	f993 3013 	ldrsb.w	r3, [r3, #19]
34188d04:	2b00      	cmp	r3, #0
34188d06:	f2c0 80af 	blt.w	34188e68 <SFDP_BuildGenericDriver+0x328>
    if (0u != JEDEC_SCCR_Map.Param_DWORD.D6.WELBitAvailable)
34188d0a:	4b56      	ldr	r3, [pc, #344]	@ (34188e64 <SFDP_BuildGenericDriver+0x324>)
34188d0c:	f993 3017 	ldrsb.w	r3, [r3, #23]
34188d10:	2b00      	cmp	r3, #0
34188d12:	f2c0 80c5 	blt.w	34188ea0 <SFDP_BuildGenericDriver+0x360>
  Object->sfdp_private.DriverInfo.ReadInstruction     = SFDP_DRIVER_READ_COMMAND;
34188d16:	2303      	movs	r3, #3
34188d18:	f884 3076 	strb.w	r3, [r4, #118]	@ 0x76
  dummyCycles = 0;
34188d1c:	2300      	movs	r3, #0
34188d1e:	9307      	str	r3, [sp, #28]
  (void)SAL_XSPI_MemoryConfig(&Object->sfdp_private.SALObject, PARAM_DUMMY_CYCLES, (void *)&dummyCycles);
34188d20:	aa07      	add	r2, sp, #28
34188d22:	2101      	movs	r1, #1
34188d24:	4630      	mov	r0, r6
34188d26:	f7fe ff91 	bl	34187c4c <SAL_XSPI_MemoryConfig>
  if (((Object->sfdp_private.Sfdp_table_mask & (uint32_t)SFDP_PARAMID_BASIC_SPIPROTOCOL)
34188d2a:	f8d4 3094 	ldr.w	r3, [r4, #148]	@ 0x94
34188d2e:	f013 0f08 	tst.w	r3, #8
34188d32:	f000 80f4 	beq.w	34188f1e <SFDP_BuildGenericDriver+0x3de>
      && (Object->sfdp_private.Config < EXTMEM_LINK_CONFIG_8LINES))
34188d36:	f894 305c 	ldrb.w	r3, [r4, #92]	@ 0x5c
34188d3a:	2b02      	cmp	r3, #2
34188d3c:	f200 81a5 	bhi.w	3418908a <SFDP_BuildGenericDriver+0x54a>
    Object->sfdp_private.DriverInfo.SpiPhyLink = PHY_LINK_1S1S1S;
34188d40:	2200      	movs	r2, #0
34188d42:	f884 2064 	strb.w	r2, [r4, #100]	@ 0x64
    if (Object->sfdp_private.Config > EXTMEM_LINK_CONFIG_1LINE)
34188d46:	b363      	cbz	r3, 34188da2 <SFDP_BuildGenericDriver+0x262>
      if (JEDEC_Basic.Params.Param_DWORD.D4._1S1S2S_FastReadInstruction != 0u)
34188d48:	4a43      	ldr	r2, [pc, #268]	@ (34188e58 <SFDP_BuildGenericDriver+0x318>)
34188d4a:	7c52      	ldrb	r2, [r2, #17]
34188d4c:	b15a      	cbz	r2, 34188d66 <SFDP_BuildGenericDriver+0x226>
        dummyCycles = JEDEC_Basic.Params.Param_DWORD.D4._1S1S2S_DummyClock
34188d4e:	4942      	ldr	r1, [pc, #264]	@ (34188e58 <SFDP_BuildGenericDriver+0x318>)
34188d50:	7c08      	ldrb	r0, [r1, #16]
34188d52:	f000 011f 	and.w	r1, r0, #31
                      + JEDEC_Basic.Params.Param_DWORD.D4._1S1S2S_ModeClock;
34188d56:	eb01 1150 	add.w	r1, r1, r0, lsr #5
        dummyCycles = JEDEC_Basic.Params.Param_DWORD.D4._1S1S2S_DummyClock
34188d5a:	9107      	str	r1, [sp, #28]
        Object->sfdp_private.DriverInfo.ReadInstruction =
34188d5c:	f884 2076 	strb.w	r2, [r4, #118]	@ 0x76
        Object->sfdp_private.DriverInfo.SpiPhyLink = PHY_LINK_1S1S2S;
34188d60:	2201      	movs	r2, #1
34188d62:	f884 2064 	strb.w	r2, [r4, #100]	@ 0x64
      if (JEDEC_Basic.Params.Param_DWORD.D4._1S2S2S_FastReadInstruction != 0u)
34188d66:	4a3c      	ldr	r2, [pc, #240]	@ (34188e58 <SFDP_BuildGenericDriver+0x318>)
34188d68:	7cd2      	ldrb	r2, [r2, #19]
34188d6a:	b15a      	cbz	r2, 34188d84 <SFDP_BuildGenericDriver+0x244>
        dummyCycles = JEDEC_Basic.Params.Param_DWORD.D4._1S2S2S_DummyClock
34188d6c:	493a      	ldr	r1, [pc, #232]	@ (34188e58 <SFDP_BuildGenericDriver+0x318>)
34188d6e:	7c88      	ldrb	r0, [r1, #18]
34188d70:	f000 011f 	and.w	r1, r0, #31
                      + JEDEC_Basic.Params.Param_DWORD.D4._1S2S2S_ModeClock;
34188d74:	eb01 1150 	add.w	r1, r1, r0, lsr #5
        dummyCycles = JEDEC_Basic.Params.Param_DWORD.D4._1S2S2S_DummyClock
34188d78:	9107      	str	r1, [sp, #28]
        Object->sfdp_private.DriverInfo.ReadInstruction =
34188d7a:	f884 2076 	strb.w	r2, [r4, #118]	@ 0x76
        Object->sfdp_private.DriverInfo.SpiPhyLink = PHY_LINK_1S2S2S;
34188d7e:	2202      	movs	r2, #2
34188d80:	f884 2064 	strb.w	r2, [r4, #100]	@ 0x64
      if (JEDEC_Basic.Params.Param_DWORD.D5._2S2S2S_FastReadSupport != 0u)
34188d84:	4a34      	ldr	r2, [pc, #208]	@ (34188e58 <SFDP_BuildGenericDriver+0x318>)
34188d86:	7d12      	ldrb	r2, [r2, #20]
34188d88:	f012 0f01 	tst.w	r2, #1
34188d8c:	d009      	beq.n	34188da2 <SFDP_BuildGenericDriver+0x262>
        dummyCycles = JEDEC_Basic.Params.Param_DWORD.D6._2S2S2S_DummyClock
34188d8e:	4932      	ldr	r1, [pc, #200]	@ (34188e58 <SFDP_BuildGenericDriver+0x318>)
34188d90:	7e88      	ldrb	r0, [r1, #26]
34188d92:	f000 021f 	and.w	r2, r0, #31
                      + JEDEC_Basic.Params.Param_DWORD.D6._2S2S2S_ModeClock;
34188d96:	eb02 1250 	add.w	r2, r2, r0, lsr #5
        dummyCycles = JEDEC_Basic.Params.Param_DWORD.D6._2S2S2S_DummyClock
34188d9a:	9207      	str	r2, [sp, #28]
          (uint8_t)JEDEC_Basic.Params.Param_DWORD.D6._2S2S2S_FastReadInstruction;
34188d9c:	7eca      	ldrb	r2, [r1, #27]
        Object->sfdp_private.DriverInfo.ReadInstruction =
34188d9e:	f884 2076 	strb.w	r2, [r4, #118]	@ 0x76
    if (Object->sfdp_private.Config > EXTMEM_LINK_CONFIG_2LINES)
34188da2:	2b01      	cmp	r3, #1
34188da4:	f240 80b9 	bls.w	34188f1a <SFDP_BuildGenericDriver+0x3da>
      if (JEDEC_Basic.Params.Param_DWORD.D5._4S4S4S_FastReadSupport != 0u)
34188da8:	4b2b      	ldr	r3, [pc, #172]	@ (34188e58 <SFDP_BuildGenericDriver+0x318>)
34188daa:	7d1f      	ldrb	r7, [r3, #20]
34188dac:	f017 0710 	ands.w	r7, r7, #16
34188db0:	d013      	beq.n	34188dda <SFDP_BuildGenericDriver+0x29a>
        dummyCycles = JEDEC_Basic.Params.Param_DWORD.D7._4S4S4S_DummyClock
34188db2:	461a      	mov	r2, r3
34188db4:	7f99      	ldrb	r1, [r3, #30]
34188db6:	f001 031f 	and.w	r3, r1, #31
                      + JEDEC_Basic.Params.Param_DWORD.D7._4S4S4S_ModeClock;
34188dba:	eb03 1351 	add.w	r3, r3, r1, lsr #5
        dummyCycles = JEDEC_Basic.Params.Param_DWORD.D7._4S4S4S_DummyClock
34188dbe:	9307      	str	r3, [sp, #28]
          (uint8_t)JEDEC_Basic.Params.Param_DWORD.D7._4S4S4S_FastReadInstruction;
34188dc0:	7fd3      	ldrb	r3, [r2, #31]
        Object->sfdp_private.DriverInfo.ReadInstruction =
34188dc2:	f884 3076 	strb.w	r3, [r4, #118]	@ 0x76
        Object->sfdp_private.DriverInfo.SpiPhyLink = PHY_LINK_4S4S4S;
34188dc6:	2304      	movs	r3, #4
34188dc8:	f884 3064 	strb.w	r3, [r4, #100]	@ 0x64
        retr = JEDEC_Basic_Manage4S4S4SEnableSequence(Object);
34188dcc:	4620      	mov	r0, r4
34188dce:	f7ff fe91 	bl	34188af4 <JEDEC_Basic_Manage4S4S4SEnableSequence>
        if (retr != EXTMEM_SFDP_OK)
34188dd2:	4607      	mov	r7, r0
34188dd4:	2800      	cmp	r0, #0
34188dd6:	f040 82d4 	bne.w	34189382 <SFDP_BuildGenericDriver+0x842>
      (void)SAL_XSPI_MemoryConfig(&Object->sfdp_private.SALObject, PARAM_DUMMY_CYCLES, (void *)&dummyCycles);
34188dda:	aa07      	add	r2, sp, #28
34188ddc:	2101      	movs	r1, #1
34188dde:	4630      	mov	r0, r6
34188de0:	f7fe ff34 	bl	34187c4c <SAL_XSPI_MemoryConfig>
    if (HAL_OK != SAL_XSPI_MemoryConfig(&Object->sfdp_private.SALObject, PARAM_PHY_LINK,
34188de4:	f104 0264 	add.w	r2, r4, #100	@ 0x64
34188de8:	2100      	movs	r1, #0
34188dea:	4630      	mov	r0, r6
34188dec:	f7fe ff2e 	bl	34187c4c <SAL_XSPI_MemoryConfig>
34188df0:	2800      	cmp	r0, #0
34188df2:	f040 82ce 	bne.w	34189392 <SFDP_BuildGenericDriver+0x852>
    if (HAL_OK != SAL_XSPI_MemoryConfig(&Object->sfdp_private.SALObject, PARAM_DUMMY_CYCLES, &dummyCycles))
34188df6:	aa07      	add	r2, sp, #28
34188df8:	2101      	movs	r1, #1
34188dfa:	4630      	mov	r0, r6
34188dfc:	f7fe ff26 	bl	34187c4c <SAL_XSPI_MemoryConfig>
34188e00:	2800      	cmp	r0, #0
34188e02:	f000 808d 	beq.w	34188f20 <SFDP_BuildGenericDriver+0x3e0>
      retr = EXTMEM_SFDP_ERROR_DRIVER;
34188e06:	270c      	movs	r7, #12
34188e08:	e2bb      	b.n	34189382 <SFDP_BuildGenericDriver+0x842>
    return 32U;
34188e0a:	2320      	movs	r3, #32
34188e0c:	e6ad      	b.n	34188b6a <SFDP_BuildGenericDriver+0x2a>
    Object->sfdp_private.FlashSize = (uint8_t)(JEDEC_Basic.Params.Param_DWORD.D2.FlashSize & 0x7FFFFFFFu);
34188e0e:	f880 305e 	strb.w	r3, [r0, #94]	@ 0x5e
34188e12:	e6ae      	b.n	34188b72 <SFDP_BuildGenericDriver+0x32>
    Object->sfdp_private.DriverInfo.WriteWELCommand = SFDP_DRIVER_WRITE_ENABLE_06H_COMMAND;
34188e14:	2306      	movs	r3, #6
34188e16:	f884 3070 	strb.w	r3, [r4, #112]	@ 0x70
34188e1a:	e75d      	b.n	34188cd8 <SFDP_BuildGenericDriver+0x198>
  else if ((JEDEC_Basic.Params.Param_DWORD.D16.VolatileNonVolatileRegister_WriteEnable & 0x02u) != 0u)
34188e1c:	f012 0f02 	tst.w	r2, #2
34188e20:	d003      	beq.n	34188e2a <SFDP_BuildGenericDriver+0x2ea>
    Object->sfdp_private.DriverInfo.WriteWELCommand = SFDP_DRIVER_WRITE_ENABLE_06H_COMMAND;
34188e22:	2306      	movs	r3, #6
34188e24:	f884 3070 	strb.w	r3, [r4, #112]	@ 0x70
34188e28:	e762      	b.n	34188cf0 <SFDP_BuildGenericDriver+0x1b0>
  else if ((JEDEC_Basic.Params.Param_DWORD.D16.VolatileNonVolatileRegister_WriteEnable & 0x04u) != 0u)
34188e2a:	f012 0f04 	tst.w	r2, #4
34188e2e:	d003      	beq.n	34188e38 <SFDP_BuildGenericDriver+0x2f8>
    Object->sfdp_private.DriverInfo.WriteWELCommand = SFDP_DRIVER_WRITE_ENABLE_50H_COMMAND;
34188e30:	2350      	movs	r3, #80	@ 0x50
34188e32:	f884 3070 	strb.w	r3, [r4, #112]	@ 0x70
34188e36:	e75b      	b.n	34188cf0 <SFDP_BuildGenericDriver+0x1b0>
  else if ((JEDEC_Basic.Params.Param_DWORD.D16.VolatileNonVolatileRegister_WriteEnable & 0x08u) != 0u)
34188e38:	f012 0f08 	tst.w	r2, #8
34188e3c:	d003      	beq.n	34188e46 <SFDP_BuildGenericDriver+0x306>
    Object->sfdp_private.DriverInfo.WriteWELCommand = SFDP_DRIVER_WRITE_ENABLE_06H_COMMAND;
34188e3e:	2306      	movs	r3, #6
34188e40:	f884 3070 	strb.w	r3, [r4, #112]	@ 0x70
34188e44:	e754      	b.n	34188cf0 <SFDP_BuildGenericDriver+0x1b0>
  else if ((JEDEC_Basic.Params.Param_DWORD.D16.VolatileNonVolatileRegister_WriteEnable & 0x10u) != 0u)
34188e46:	f012 0f10 	tst.w	r2, #16
34188e4a:	f000 829e 	beq.w	3418938a <SFDP_BuildGenericDriver+0x84a>
    Object->sfdp_private.DriverInfo.WriteWELCommand = SFDP_DRIVER_WRITE_ENABLE_06H_COMMAND;
34188e4e:	2306      	movs	r3, #6
34188e50:	f884 3070 	strb.w	r3, [r4, #112]	@ 0x70
34188e54:	e74c      	b.n	34188cf0 <SFDP_BuildGenericDriver+0x1b0>
34188e56:	bf00      	nop
34188e58:	34180848 	.word	0x34180848
34188e5c:	34189a00 	.word	0x34189a00
34188e60:	341899f0 	.word	0x341899f0
34188e64:	341807b8 	.word	0x341807b8
      Object->sfdp_private.DriverInfo.ReadWIPCommand  = (uint8_t)JEDEC_SCCR_Map.Param_DWORD.D5.CommandReadAccess;
34188e68:	4bba      	ldr	r3, [pc, #744]	@ (34189154 <SFDP_BuildGenericDriver+0x614>)
34188e6a:	7c59      	ldrb	r1, [r3, #17]
34188e6c:	f884 106c 	strb.w	r1, [r4, #108]	@ 0x6c
      Object->sfdp_private.DriverInfo.WIPPosition     = JEDEC_SCCR_Map.Param_DWORD.D5.WIPBitLocationRegister;
34188e70:	7cd9      	ldrb	r1, [r3, #19]
34188e72:	f3c1 0102 	ubfx	r1, r1, #0, #3
34188e76:	f884 106d 	strb.w	r1, [r4, #109]	@ 0x6d
      Object->sfdp_private.DriverInfo.WIPBusyPolarity = (uint8_t)JEDEC_SCCR_Map.Param_DWORD.D5.WIPpolarity;
34188e7a:	7cdb      	ldrb	r3, [r3, #19]
34188e7c:	f3c3 1380 	ubfx	r3, r3, #6, #1
34188e80:	f884 306e 	strb.w	r3, [r4, #110]	@ 0x6e
      if (0u != JEDEC_SCCR_Map.Param_DWORD.D5.BitAccessedByCommandsUsingAddress)
34188e84:	f012 0f10 	tst.w	r2, #16
34188e88:	d006      	beq.n	34188e98 <SFDP_BuildGenericDriver+0x358>
        Object->sfdp_private.DriverInfo.WIPAddress  = (uint8_t)JEDEC_SCCR_Map.Param_DWORD.D5.LocalAddressForWIP;
34188e8a:	4bb2      	ldr	r3, [pc, #712]	@ (34189154 <SFDP_BuildGenericDriver+0x614>)
34188e8c:	7cdb      	ldrb	r3, [r3, #19]
34188e8e:	f3c3 03c0 	ubfx	r3, r3, #3, #1
34188e92:	f884 306f 	strb.w	r3, [r4, #111]	@ 0x6f
34188e96:	e738      	b.n	34188d0a <SFDP_BuildGenericDriver+0x1ca>
        Object->sfdp_private.DriverInfo.WIPAddress = EXTMEM_ADDRESS_NONE;
34188e98:	23ff      	movs	r3, #255	@ 0xff
34188e9a:	f884 306f 	strb.w	r3, [r4, #111]	@ 0x6f
34188e9e:	e734      	b.n	34188d0a <SFDP_BuildGenericDriver+0x1ca>
      Object->sfdp_private.DriverInfo.ReadWELCommand  = (uint8_t)JEDEC_SCCR_Map.Param_DWORD.D6.CommandReadAccess;
34188ea0:	4bac      	ldr	r3, [pc, #688]	@ (34189154 <SFDP_BuildGenericDriver+0x614>)
34188ea2:	7d59      	ldrb	r1, [r3, #21]
34188ea4:	f884 1071 	strb.w	r1, [r4, #113]	@ 0x71
      Object->sfdp_private.DriverInfo.WELPosition     = JEDEC_SCCR_Map.Param_DWORD.D6.WELBitLocationRegister;
34188ea8:	7dd9      	ldrb	r1, [r3, #23]
34188eaa:	f3c1 0102 	ubfx	r1, r1, #0, #3
34188eae:	f884 1072 	strb.w	r1, [r4, #114]	@ 0x72
      Object->sfdp_private.DriverInfo.WELBusyPolarity = (uint8_t)JEDEC_SCCR_Map.Param_DWORD.D6.WELpolarity;
34188eb2:	7ddb      	ldrb	r3, [r3, #23]
34188eb4:	f3c3 1380 	ubfx	r3, r3, #6, #1
34188eb8:	f884 3073 	strb.w	r3, [r4, #115]	@ 0x73
      if (0u != JEDEC_SCCR_Map.Param_DWORD.D5.BitAccessedByCommandsUsingAddress)
34188ebc:	f012 0f10 	tst.w	r2, #16
34188ec0:	d006      	beq.n	34188ed0 <SFDP_BuildGenericDriver+0x390>
        Object->sfdp_private.DriverInfo.WELAddress  = (uint8_t)JEDEC_SCCR_Map.Param_DWORD.D6.WELLocalAddress;
34188ec2:	4ba4      	ldr	r3, [pc, #656]	@ (34189154 <SFDP_BuildGenericDriver+0x614>)
34188ec4:	7ddb      	ldrb	r3, [r3, #23]
34188ec6:	f3c3 03c0 	ubfx	r3, r3, #3, #1
34188eca:	f884 3074 	strb.w	r3, [r4, #116]	@ 0x74
34188ece:	e722      	b.n	34188d16 <SFDP_BuildGenericDriver+0x1d6>
        Object->sfdp_private.DriverInfo.WELAddress = EXTMEM_ADDRESS_NONE;
34188ed0:	23ff      	movs	r3, #255	@ 0xff
34188ed2:	f884 3074 	strb.w	r3, [r4, #116]	@ 0x74
34188ed6:	e71e      	b.n	34188d16 <SFDP_BuildGenericDriver+0x1d6>
    Object->sfdp_private.DriverInfo.WELPosition     = 1;
34188ed8:	2301      	movs	r3, #1
34188eda:	f884 3072 	strb.w	r3, [r4, #114]	@ 0x72
    Object->sfdp_private.DriverInfo.WELBusyPolarity = 0;
34188ede:	2300      	movs	r3, #0
34188ee0:	f884 3073 	strb.w	r3, [r4, #115]	@ 0x73
    if (0x01u == (JEDEC_Basic.Params.Param_DWORD.D14.StatusRegister &  0x01u))
34188ee4:	4b9c      	ldr	r3, [pc, #624]	@ (34189158 <SFDP_BuildGenericDriver+0x618>)
34188ee6:	f893 3038 	ldrb.w	r3, [r3, #56]	@ 0x38
34188eea:	089a      	lsrs	r2, r3, #2
34188eec:	f013 0f04 	tst.w	r3, #4
34188ef0:	d005      	beq.n	34188efe <SFDP_BuildGenericDriver+0x3be>
      Object->sfdp_private.DriverInfo.WIPPosition = 0u;
34188ef2:	2300      	movs	r3, #0
34188ef4:	f884 306d 	strb.w	r3, [r4, #109]	@ 0x6d
      Object->sfdp_private.DriverInfo.WIPBusyPolarity = 0u;
34188ef8:	f884 306e 	strb.w	r3, [r4, #110]	@ 0x6e
34188efc:	e70b      	b.n	34188d16 <SFDP_BuildGenericDriver+0x1d6>
    else if (0x02u == (JEDEC_Basic.Params.Param_DWORD.D14.StatusRegister &  0x02u))
34188efe:	f012 0f02 	tst.w	r2, #2
34188f02:	f000 8244 	beq.w	3418938e <SFDP_BuildGenericDriver+0x84e>
      Object->sfdp_private.DriverInfo.ReadWIPCommand = 0x70;
34188f06:	2370      	movs	r3, #112	@ 0x70
34188f08:	f884 306c 	strb.w	r3, [r4, #108]	@ 0x6c
      Object->sfdp_private.DriverInfo.WIPPosition = 7u;
34188f0c:	2307      	movs	r3, #7
34188f0e:	f884 306d 	strb.w	r3, [r4, #109]	@ 0x6d
      Object->sfdp_private.DriverInfo.WIPBusyPolarity = 0u;
34188f12:	2300      	movs	r3, #0
34188f14:	f884 306e 	strb.w	r3, [r4, #110]	@ 0x6e
34188f18:	e6fd      	b.n	34188d16 <SFDP_BuildGenericDriver+0x1d6>
  SFDP_StatusTypeDef retr = EXTMEM_SFDP_OK;
34188f1a:	2700      	movs	r7, #0
34188f1c:	e762      	b.n	34188de4 <SFDP_BuildGenericDriver+0x2a4>
34188f1e:	2700      	movs	r7, #0
  if (((uint32_t)SFDP_PARAMID_OCTAL_DDR == (Object->sfdp_private.Sfdp_table_mask & (uint32_t)SFDP_PARAMID_OCTAL_DDR))
34188f20:	f8d4 3094 	ldr.w	r3, [r4, #148]	@ 0x94
34188f24:	f413 5f80 	tst.w	r3, #4096	@ 0x1000
34188f28:	f000 8110 	beq.w	3418914c <SFDP_BuildGenericDriver+0x60c>
      && (EXTMEM_LINK_CONFIG_8LINES == Object->sfdp_private.Config))
34188f2c:	f894 305c 	ldrb.w	r3, [r4, #92]	@ 0x5c
34188f30:	2b03      	cmp	r3, #3
34188f32:	f000 80ac 	beq.w	3418908e <SFDP_BuildGenericDriver+0x54e>
  uint8_t flag4byteAddress = 0u;
34188f36:	f04f 0800 	mov.w	r8, #0
  if (EXTMEM_DRIVER_NOR_SFDP_OK != driver_check_FlagBUSY(Object, 100u))
34188f3a:	2164      	movs	r1, #100	@ 0x64
34188f3c:	4620      	mov	r0, r4
34188f3e:	f7ff f9fa 	bl	34188336 <driver_check_FlagBUSY>
34188f42:	2800      	cmp	r0, #0
34188f44:	f040 822b 	bne.w	3418939e <SFDP_BuildGenericDriver+0x85e>
  if ((Object->sfdp_private.Sfdp_table_mask & (uint32_t)SFDP_PARAMID_4BYTE_ADDRESS_INSTRUCTION) ==
34188f48:	f8d4 3094 	ldr.w	r3, [r4, #148]	@ 0x94
34188f4c:	f013 0f40 	tst.w	r3, #64	@ 0x40
34188f50:	d053      	beq.n	34188ffa <SFDP_BuildGenericDriver+0x4ba>
    if (0u == flag4byteAddress)
34188f52:	f1b8 0f00 	cmp.w	r8, #0
34188f56:	d139      	bne.n	34188fcc <SFDP_BuildGenericDriver+0x48c>
      if (0x01u == (JEDEC_Basic.Params.Param_DWORD.D16.Enter4ByteAddressing & 0x01u))
34188f58:	4b7f      	ldr	r3, [pc, #508]	@ (34189158 <SFDP_BuildGenericDriver+0x618>)
34188f5a:	f893 3043 	ldrb.w	r3, [r3, #67]	@ 0x43
34188f5e:	f013 0f01 	tst.w	r3, #1
34188f62:	f040 8101 	bne.w	34189168 <SFDP_BuildGenericDriver+0x628>
      else if (0x2u == (JEDEC_Basic.Params.Param_DWORD.D16.Enter4ByteAddressing & 0x2u))
34188f66:	f013 0f02 	tst.w	r3, #2
34188f6a:	f040 8110 	bne.w	3418918e <SFDP_BuildGenericDriver+0x64e>
      else if (0x40u == (JEDEC_Basic.Params.Param_DWORD.D16.Enter4ByteAddressing & 0x40u))
34188f6e:	f013 0f40 	tst.w	r3, #64	@ 0x40
34188f72:	d103      	bne.n	34188f7c <SFDP_BuildGenericDriver+0x43c>
      else if (0x20u == (JEDEC_Basic.Params.Param_DWORD.D16.Enter4ByteAddressing & 0x20u))
34188f74:	f013 0f20 	tst.w	r3, #32
34188f78:	f000 8219 	beq.w	341893ae <SFDP_BuildGenericDriver+0x86e>
      if (HAL_OK != SAL_XSPI_MemoryConfig(&Object->sfdp_private.SALObject, PARAM_ADDRESS_4BYTES, NULL))
34188f7c:	2200      	movs	r2, #0
34188f7e:	2102      	movs	r1, #2
34188f80:	4630      	mov	r0, r6
34188f82:	f7fe fe63 	bl	34187c4c <SAL_XSPI_MemoryConfig>
34188f86:	2800      	cmp	r0, #0
34188f88:	f040 8213 	bne.w	341893b2 <SFDP_BuildGenericDriver+0x872>
      if (PHY_LINK_1S1S1S == Object->sfdp_private.DriverInfo.SpiPhyLink)
34188f8c:	f894 3064 	ldrb.w	r3, [r4, #100]	@ 0x64
34188f90:	b98b      	cbnz	r3, 34188fb6 <SFDP_BuildGenericDriver+0x476>
        if (0u != JEDEC_Address4Bytes.Param_DWORD.D1.Support_1S1S1S_ReadCommand)
34188f92:	4b72      	ldr	r3, [pc, #456]	@ (3418915c <SFDP_BuildGenericDriver+0x61c>)
34188f94:	781b      	ldrb	r3, [r3, #0]
34188f96:	f013 0f01 	tst.w	r3, #1
34188f9a:	d002      	beq.n	34188fa2 <SFDP_BuildGenericDriver+0x462>
          Object->sfdp_private.DriverInfo.ReadInstruction = 0x13U;
34188f9c:	2213      	movs	r2, #19
34188f9e:	f884 2076 	strb.w	r2, [r4, #118]	@ 0x76
        if (0u != JEDEC_Address4Bytes.Param_DWORD.D1.Support_1S1S1S_PageProgramCommand)
34188fa2:	f013 0f40 	tst.w	r3, #64	@ 0x40
34188fa6:	d002      	beq.n	34188fae <SFDP_BuildGenericDriver+0x46e>
          Object->sfdp_private.DriverInfo.PageProgramInstruction = 0x12u;
34188fa8:	2212      	movs	r2, #18
34188faa:	f884 2075 	strb.w	r2, [r4, #117]	@ 0x75
        if (0u != JEDEC_Address4Bytes.Param_DWORD.D1.Support_1S1S1S_FastReadCommand)
34188fae:	f013 0f02 	tst.w	r3, #2
34188fb2:	f040 8123 	bne.w	341891fc <SFDP_BuildGenericDriver+0x6bc>
      if (PHY_LINK_1S1S2S == Object->sfdp_private.DriverInfo.SpiPhyLink)
34188fb6:	f894 3064 	ldrb.w	r3, [r4, #100]	@ 0x64
34188fba:	2b01      	cmp	r3, #1
34188fbc:	f000 8129 	beq.w	34189212 <SFDP_BuildGenericDriver+0x6d2>
      if (PHY_LINK_1S2S2S == Object->sfdp_private.DriverInfo.SpiPhyLink)
34188fc0:	2b02      	cmp	r3, #2
34188fc2:	f000 8130 	beq.w	34189226 <SFDP_BuildGenericDriver+0x6e6>
      if (PHY_LINK_1S1D1D == Object->sfdp_private.DriverInfo.SpiPhyLink)
34188fc6:	2b03      	cmp	r3, #3
34188fc8:	f000 8137 	beq.w	3418923a <SFDP_BuildGenericDriver+0x6fa>
    if ((EXTMEM_LINK_CONFIG_8LINES == Object->sfdp_private.Config)
34188fcc:	f894 305c 	ldrb.w	r3, [r4, #92]	@ 0x5c
34188fd0:	2b03      	cmp	r3, #3
34188fd2:	f000 813c 	beq.w	3418924e <SFDP_BuildGenericDriver+0x70e>
    if (Object->sfdp_private.DriverInfo.SpiPhyLink == PHY_LINK_8S8D8D)
34188fd6:	f894 3064 	ldrb.w	r3, [r4, #100]	@ 0x64
34188fda:	2b08      	cmp	r3, #8
34188fdc:	f000 8156 	beq.w	3418928c <SFDP_BuildGenericDriver+0x74c>
      (uint8_t)JEDEC_Address4Bytes.Param_DWORD.D2.InstructionEraseType1;
34188fe0:	4b5e      	ldr	r3, [pc, #376]	@ (3418915c <SFDP_BuildGenericDriver+0x61c>)
34188fe2:	791a      	ldrb	r2, [r3, #4]
    Object->sfdp_private.DriverInfo.EraseType1Command =
34188fe4:	f884 2078 	strb.w	r2, [r4, #120]	@ 0x78
      (uint8_t)JEDEC_Address4Bytes.Param_DWORD.D2.InstructionEraseType2;
34188fe8:	795a      	ldrb	r2, [r3, #5]
    Object->sfdp_private.DriverInfo.EraseType2Command =
34188fea:	f884 207a 	strb.w	r2, [r4, #122]	@ 0x7a
      (uint8_t)JEDEC_Address4Bytes.Param_DWORD.D2.InstructionEraseType3;
34188fee:	799a      	ldrb	r2, [r3, #6]
    Object->sfdp_private.DriverInfo.EraseType3Command =
34188ff0:	f884 207c 	strb.w	r2, [r4, #124]	@ 0x7c
      (uint8_t)JEDEC_Address4Bytes.Param_DWORD.D2.InstructionEraseType4;
34188ff4:	79db      	ldrb	r3, [r3, #7]
    Object->sfdp_private.DriverInfo.EraseType4Command =
34188ff6:	f884 307e 	strb.w	r3, [r4, #126]	@ 0x7e
  if (((uint32_t)SFDP_PARAMID_XSPI_V1_0 == (Object->sfdp_private.Sfdp_table_mask & (uint32_t)SFDP_PARAMID_XSPI_V1_0))
34188ffa:	f8d4 3094 	ldr.w	r3, [r4, #148]	@ 0x94
34188ffe:	f013 0f80 	tst.w	r3, #128	@ 0x80
34189002:	f000 81be 	beq.w	34189382 <SFDP_BuildGenericDriver+0x842>
      ((PHY_LINK_8D8D8D == Object->sfdp_private.DriverInfo.SpiPhyLink)
34189006:	f894 3064 	ldrb.w	r3, [r4, #100]	@ 0x64
       || (PHY_LINK_8S8D8D == Object->sfdp_private.DriverInfo.SpiPhyLink)))
3418900a:	3b08      	subs	r3, #8
3418900c:	b2db      	uxtb	r3, r3
      &&
3418900e:	2b01      	cmp	r3, #1
34189010:	f200 81b7 	bhi.w	34189382 <SFDP_BuildGenericDriver+0x842>
    uint32_t ClockOut = 0u;
34189014:	2300      	movs	r3, #0
34189016:	9305      	str	r3, [sp, #20]
    if (0u != JEDEC_XSPI10.Param_DWORD.D1.ReadFastCommand)
34189018:	4b51      	ldr	r3, [pc, #324]	@ (34189160 <SFDP_BuildGenericDriver+0x620>)
3418901a:	785b      	ldrb	r3, [r3, #1]
3418901c:	b10b      	cbz	r3, 34189022 <SFDP_BuildGenericDriver+0x4e2>
      Object->sfdp_private.DriverInfo.ReadInstruction = (uint8_t)JEDEC_XSPI10.Param_DWORD.D1.ReadFastCommand;
3418901e:	f884 3076 	strb.w	r3, [r4, #118]	@ 0x76
    if (JEDEC_XSPI10.Param_DWORD.D6._8D8D8DDefaultPOR_DummyCycle != 0u)
34189022:	4b4f      	ldr	r3, [pc, #316]	@ (34189160 <SFDP_BuildGenericDriver+0x620>)
34189024:	7d1b      	ldrb	r3, [r3, #20]
34189026:	f013 0f1f 	tst.w	r3, #31
3418902a:	f040 8151 	bne.w	341892d0 <SFDP_BuildGenericDriver+0x790>
    MaxFreqMhz = sfdp_getfrequencevalue(JEDEC_Basic.Params.Param_DWORD.D20._8D8D8D_MaximumSpeedWithStrobe);
3418902e:	4b4a      	ldr	r3, [pc, #296]	@ (34189158 <SFDP_BuildGenericDriver+0x618>)
34189030:	f893 0053 	ldrb.w	r0, [r3, #83]	@ 0x53
34189034:	0900      	lsrs	r0, r0, #4
34189036:	f7ff f9a3 	bl	34188380 <sfdp_getfrequencevalue>
3418903a:	4602      	mov	r2, r0
    if (MaxFreqMhz > Object->sfdp_private.DriverInfo.ClockIn)
3418903c:	6ea1      	ldr	r1, [r4, #104]	@ 0x68
3418903e:	4281      	cmp	r1, r0
34189040:	d200      	bcs.n	34189044 <SFDP_BuildGenericDriver+0x504>
      MaxFreqMhz = Object->sfdp_private.DriverInfo.ClockIn;
34189042:	460a      	mov	r2, r1
    if (Object->sfdp_public.MaxFreq != 0)
34189044:	6823      	ldr	r3, [r4, #0]
34189046:	b113      	cbz	r3, 3418904e <SFDP_BuildGenericDriver+0x50e>
      if (MaxFreqMhz > Object->sfdp_public.MaxFreq)
34189048:	4293      	cmp	r3, r2
3418904a:	d200      	bcs.n	3418904e <SFDP_BuildGenericDriver+0x50e>
        MaxFreqMhz = Object->sfdp_public.MaxFreq;
3418904c:	461a      	mov	r2, r3
    if (HAL_OK != SAL_XSPI_SetClock(&Object->sfdp_private.SALObject, Object->sfdp_private.DriverInfo.ClockIn,
3418904e:	ab05      	add	r3, sp, #20
34189050:	4630      	mov	r0, r6
34189052:	f7fe fdb5 	bl	34187bc0 <SAL_XSPI_SetClock>
34189056:	2800      	cmp	r0, #0
34189058:	f040 818e 	bne.w	34189378 <SFDP_BuildGenericDriver+0x838>
    *FreqUpdated = 1u; /* Used to indicate that the clock configuration has been updated */
3418905c:	2301      	movs	r3, #1
3418905e:	702b      	strb	r3, [r5, #0]
    if ((ClockOut >= CLOCK_200MHZ) && (JEDEC_XSPI10.Param_DWORD.D4.Operation200Mhz_DummyCycle != 0u))
34189060:	9b05      	ldr	r3, [sp, #20]
34189062:	4a40      	ldr	r2, [pc, #256]	@ (34189164 <SFDP_BuildGenericDriver+0x624>)
34189064:	4293      	cmp	r3, r2
34189066:	f240 813e 	bls.w	341892e6 <SFDP_BuildGenericDriver+0x7a6>
3418906a:	4a3d      	ldr	r2, [pc, #244]	@ (34189160 <SFDP_BuildGenericDriver+0x620>)
3418906c:	8992      	ldrh	r2, [r2, #12]
3418906e:	f402 6278 	and.w	r2, r2, #3968	@ 0xf80
34189072:	2a00      	cmp	r2, #0
34189074:	f000 8137 	beq.w	341892e6 <SFDP_BuildGenericDriver+0x7a6>
      dummyCycles = JEDEC_XSPI10.Param_DWORD.D4.Operation200Mhz_DummyCycle;
34189078:	4a39      	ldr	r2, [pc, #228]	@ (34189160 <SFDP_BuildGenericDriver+0x620>)
3418907a:	8993      	ldrh	r3, [r2, #12]
3418907c:	f3c3 13c4 	ubfx	r3, r3, #7, #5
34189080:	9307      	str	r3, [sp, #28]
      dummyCyclesValue = JEDEC_XSPI10.Param_DWORD.D4.Operation200Mhz_ConfigPattern;
34189082:	7b11      	ldrb	r1, [r2, #12]
34189084:	f3c1 0184 	ubfx	r1, r1, #2, #5
34189088:	e154      	b.n	34189334 <SFDP_BuildGenericDriver+0x7f4>
  SFDP_StatusTypeDef retr = EXTMEM_SFDP_OK;
3418908a:	2700      	movs	r7, #0
3418908c:	e748      	b.n	34188f20 <SFDP_BuildGenericDriver+0x3e0>
    if (PHY_LINK_8D8D8D == Object->sfdp_private.DriverInfo.SpiPhyLink)
3418908e:	f894 3064 	ldrb.w	r3, [r4, #100]	@ 0x64
34189092:	2b09      	cmp	r3, #9
34189094:	d122      	bne.n	341890dc <SFDP_BuildGenericDriver+0x59c>
      flag4byteAddress = 1u;
34189096:	f04f 0801 	mov.w	r8, #1
    if ((0u != (Object->sfdp_private.Sfdp_table_mask & (uint32_t)SFDP_PARAMID_BASIC_SPIPROTOCOL)) &&
3418909a:	f8d4 3094 	ldr.w	r3, [r4, #148]	@ 0x94
3418909e:	f013 0f08 	tst.w	r3, #8
341890a2:	d00d      	beq.n	341890c0 <SFDP_BuildGenericDriver+0x580>
        (JEDEC_Basic.size > 16u))
341890a4:	4a2c      	ldr	r2, [pc, #176]	@ (34189158 <SFDP_BuildGenericDriver+0x618>)
341890a6:	6812      	ldr	r2, [r2, #0]
    if ((0u != (Object->sfdp_private.Sfdp_table_mask & (uint32_t)SFDP_PARAMID_BASIC_SPIPROTOCOL)) &&
341890a8:	2a10      	cmp	r2, #16
341890aa:	d909      	bls.n	341890c0 <SFDP_BuildGenericDriver+0x580>
      if (JEDEC_Basic.Params.Param_DWORD.D18.OctalDTRCommandExtension > 1u)
341890ac:	4a2a      	ldr	r2, [pc, #168]	@ (34189158 <SFDP_BuildGenericDriver+0x618>)
341890ae:	f892 204b 	ldrb.w	r2, [r2, #75]	@ 0x4b
341890b2:	f3c2 1141 	ubfx	r1, r2, #5, #2
341890b6:	2901      	cmp	r1, #1
341890b8:	f200 816f 	bhi.w	3418939a <SFDP_BuildGenericDriver+0x85a>
      SAL_XSPI_SET_COMMANDEXTENSION(Object->sfdp_private.SALObject,
341890bc:	f884 1058 	strb.w	r1, [r4, #88]	@ 0x58
    if ((Object->sfdp_private.Sfdp_table_mask & (uint32_t)SFDP_PARAMID_XSPI_V1_0)
341890c0:	f013 0f80 	tst.w	r3, #128	@ 0x80
341890c4:	f43f af39 	beq.w	34188f3a <SFDP_BuildGenericDriver+0x3fa>
      if (JEDEC_XSPI10.Param_DWORD.D1.SFDPCommand_8D8D8DMode_DummyCycles == 1U)
341890c8:	4b25      	ldr	r3, [pc, #148]	@ (34189160 <SFDP_BuildGenericDriver+0x620>)
341890ca:	78db      	ldrb	r3, [r3, #3]
341890cc:	f013 0f40 	tst.w	r3, #64	@ 0x40
341890d0:	f43f af33 	beq.w	34188f3a <SFDP_BuildGenericDriver+0x3fa>
        SAL_XSPI_SET_SFDPDUMMYCYLE(Object->sfdp_private.SALObject, EXTMEM_READ_SFDP_NB_DUMMY_CYCLES_OPI);
341890d4:	2314      	movs	r3, #20
341890d6:	f884 3059 	strb.w	r3, [r4, #89]	@ 0x59
341890da:	e72e      	b.n	34188f3a <SFDP_BuildGenericDriver+0x3fa>
      if (EXTMEM_SFDP_OK == sfdp_enter_octal_mode(Object))
341890dc:	4620      	mov	r0, r4
341890de:	f7ff fb31 	bl	34188744 <sfdp_enter_octal_mode>
341890e2:	bb80      	cbnz	r0, 34189146 <SFDP_BuildGenericDriver+0x606>
        if (Object->sfdp_private.ManuID == EXTMEM_MANUFACTURER_GIGADEVICE)
341890e4:	f894 305d 	ldrb.w	r3, [r4, #93]	@ 0x5d
341890e8:	2bc8      	cmp	r3, #200	@ 0xc8
341890ea:	d016      	beq.n	3418911a <SFDP_BuildGenericDriver+0x5da>
          Object->sfdp_private.DriverInfo.SpiPhyLink = PHY_LINK_8D8D8D;
341890ec:	2309      	movs	r3, #9
341890ee:	f884 3064 	strb.w	r3, [r4, #100]	@ 0x64
        if (HAL_OK != SAL_XSPI_MemoryConfig(&Object->sfdp_private.SALObject, PARAM_PHY_LINK,
341890f2:	f104 0264 	add.w	r2, r4, #100	@ 0x64
341890f6:	2100      	movs	r1, #0
341890f8:	4630      	mov	r0, r6
341890fa:	f7fe fda7 	bl	34187c4c <SAL_XSPI_MemoryConfig>
341890fe:	2800      	cmp	r0, #0
34189100:	f040 8149 	bne.w	34189396 <SFDP_BuildGenericDriver+0x856>
        if (Object->sfdp_private.Sfdp_AccessProtocol == 0xFDu)
34189104:	f894 309d 	ldrb.w	r3, [r4, #157]	@ 0x9d
34189108:	2bfd      	cmp	r3, #253	@ 0xfd
3418910a:	d00a      	beq.n	34189122 <SFDP_BuildGenericDriver+0x5e2>
        if (Object->sfdp_private.Sfdp_AccessProtocol == 0xFEu)
3418910c:	f894 309d 	ldrb.w	r3, [r4, #157]	@ 0x9d
34189110:	2bfe      	cmp	r3, #254	@ 0xfe
34189112:	d00e      	beq.n	34189132 <SFDP_BuildGenericDriver+0x5f2>
        flag4byteAddress = 1u;
34189114:	f04f 0801 	mov.w	r8, #1
34189118:	e7bf      	b.n	3418909a <SFDP_BuildGenericDriver+0x55a>
          Object->sfdp_private.DriverInfo.SpiPhyLink = PHY_LINK_8S8D8D;
3418911a:	2308      	movs	r3, #8
3418911c:	f884 3064 	strb.w	r3, [r4, #100]	@ 0x64
34189120:	e7e7      	b.n	341890f2 <SFDP_BuildGenericDriver+0x5b2>
          dummyCycles = 20;
34189122:	2314      	movs	r3, #20
34189124:	9307      	str	r3, [sp, #28]
          (void)SAL_XSPI_MemoryConfig(&Object->sfdp_private.SALObject, PARAM_DUMMY_CYCLES, (void *)&dummyCycles);
34189126:	aa07      	add	r2, sp, #28
34189128:	2101      	movs	r1, #1
3418912a:	4630      	mov	r0, r6
3418912c:	f7fe fd8e 	bl	34187c4c <SAL_XSPI_MemoryConfig>
34189130:	e7ec      	b.n	3418910c <SFDP_BuildGenericDriver+0x5cc>
          dummyCycles = 8;
34189132:	2308      	movs	r3, #8
34189134:	9307      	str	r3, [sp, #28]
          (void)SAL_XSPI_MemoryConfig(&Object->sfdp_private.SALObject, PARAM_DUMMY_CYCLES, (void *)&dummyCycles);
34189136:	aa07      	add	r2, sp, #28
34189138:	2101      	movs	r1, #1
3418913a:	4630      	mov	r0, r6
3418913c:	f7fe fd86 	bl	34187c4c <SAL_XSPI_MemoryConfig>
        flag4byteAddress = 1u;
34189140:	f04f 0801 	mov.w	r8, #1
34189144:	e7a9      	b.n	3418909a <SFDP_BuildGenericDriver+0x55a>
  uint8_t flag4byteAddress = 0u;
34189146:	f04f 0800 	mov.w	r8, #0
3418914a:	e7a6      	b.n	3418909a <SFDP_BuildGenericDriver+0x55a>
3418914c:	f04f 0800 	mov.w	r8, #0
34189150:	e6f3      	b.n	34188f3a <SFDP_BuildGenericDriver+0x3fa>
34189152:	bf00      	nop
34189154:	341807b8 	.word	0x341807b8
34189158:	34180848 	.word	0x34180848
3418915c:	34180840 	.word	0x34180840
34189160:	34180828 	.word	0x34180828
34189164:	0bebc1ff 	.word	0x0bebc1ff
        if (HAL_OK != SAL_XSPI_CommandSendData(&Object->sfdp_private.SALObject, 0xB7, NULL, 0))
34189168:	2300      	movs	r3, #0
3418916a:	461a      	mov	r2, r3
3418916c:	21b7      	movs	r1, #183	@ 0xb7
3418916e:	4630      	mov	r0, r6
34189170:	f7fe ff6a 	bl	34188048 <SAL_XSPI_CommandSendData>
34189174:	2800      	cmp	r0, #0
34189176:	f040 8114 	bne.w	341893a2 <SFDP_BuildGenericDriver+0x862>
        if (HAL_OK != SAL_XSPI_MemoryConfig(&Object->sfdp_private.SALObject, PARAM_ADDRESS_4BYTES, NULL))
3418917a:	2200      	movs	r2, #0
3418917c:	2102      	movs	r1, #2
3418917e:	4630      	mov	r0, r6
34189180:	f7fe fd64 	bl	34187c4c <SAL_XSPI_MemoryConfig>
34189184:	2800      	cmp	r0, #0
34189186:	f43f aef9 	beq.w	34188f7c <SFDP_BuildGenericDriver+0x43c>
          retr = EXTMEM_SFDP_ERROR_DRIVER;
3418918a:	270c      	movs	r7, #12
3418918c:	e0f9      	b.n	34189382 <SFDP_BuildGenericDriver+0x842>
        if (HAL_OK != SAL_XSPI_CommandSendData(&Object->sfdp_private.SALObject,
3418918e:	2300      	movs	r3, #0
34189190:	461a      	mov	r2, r3
34189192:	f894 1070 	ldrb.w	r1, [r4, #112]	@ 0x70
34189196:	4630      	mov	r0, r6
34189198:	f7fe ff56 	bl	34188048 <SAL_XSPI_CommandSendData>
3418919c:	2800      	cmp	r0, #0
3418919e:	f040 8102 	bne.w	341893a6 <SFDP_BuildGenericDriver+0x866>
        if (HAL_OK != SAL_XSPI_CheckStatusRegister(&Object->sfdp_private.SALObject,
341891a2:	f894 1071 	ldrb.w	r1, [r4, #113]	@ 0x71
                                                   Object->sfdp_private.DriverInfo.WELAddress,
341891a6:	f894 2074 	ldrb.w	r2, [r4, #116]	@ 0x74
                                                   (((Object->sfdp_private.DriverInfo.WELBusyPolarity == 0u) ? 1u : 0u)
341891aa:	f894 3073 	ldrb.w	r3, [r4, #115]	@ 0x73
341891ae:	bb1b      	cbnz	r3, 341891f8 <SFDP_BuildGenericDriver+0x6b8>
341891b0:	2301      	movs	r3, #1
                                                    << Object->sfdp_private.DriverInfo.WELPosition),
341891b2:	f894 c072 	ldrb.w	ip, [r4, #114]	@ 0x72
341891b6:	fa03 f30c 	lsl.w	r3, r3, ip
                                                   1u << Object->sfdp_private.DriverInfo.WELPosition,
341891ba:	2001      	movs	r0, #1
341891bc:	fa00 f00c 	lsl.w	r0, r0, ip
        if (HAL_OK != SAL_XSPI_CheckStatusRegister(&Object->sfdp_private.SALObject,
341891c0:	f44f 7c7a 	mov.w	ip, #1000	@ 0x3e8
341891c4:	f8cd c008 	str.w	ip, [sp, #8]
341891c8:	f894 c05d 	ldrb.w	ip, [r4, #93]	@ 0x5d
341891cc:	f8cd c004 	str.w	ip, [sp, #4]
341891d0:	b2c0      	uxtb	r0, r0
341891d2:	9000      	str	r0, [sp, #0]
341891d4:	b2db      	uxtb	r3, r3
341891d6:	4630      	mov	r0, r6
341891d8:	f7fe ffdc 	bl	34188194 <SAL_XSPI_CheckStatusRegister>
341891dc:	2800      	cmp	r0, #0
341891de:	f040 80e4 	bne.w	341893aa <SFDP_BuildGenericDriver+0x86a>
        if (HAL_OK != SAL_XSPI_CommandSendData(&Object->sfdp_private.SALObject, 0xB7, NULL, 0u))
341891e2:	2300      	movs	r3, #0
341891e4:	461a      	mov	r2, r3
341891e6:	21b7      	movs	r1, #183	@ 0xb7
341891e8:	4630      	mov	r0, r6
341891ea:	f7fe ff2d 	bl	34188048 <SAL_XSPI_CommandSendData>
341891ee:	2800      	cmp	r0, #0
341891f0:	f43f aec4 	beq.w	34188f7c <SFDP_BuildGenericDriver+0x43c>
          retr = EXTMEM_SFDP_ERROR_DRIVER;
341891f4:	270c      	movs	r7, #12
341891f6:	e0c4      	b.n	34189382 <SFDP_BuildGenericDriver+0x842>
                                                   (((Object->sfdp_private.DriverInfo.WELBusyPolarity == 0u) ? 1u : 0u)
341891f8:	2300      	movs	r3, #0
341891fa:	e7da      	b.n	341891b2 <SFDP_BuildGenericDriver+0x672>
          Object->sfdp_private.DriverInfo.ReadInstruction = 0x0Cu;
341891fc:	230c      	movs	r3, #12
341891fe:	f884 3076 	strb.w	r3, [r4, #118]	@ 0x76
          dummyCycles = EXTMEM_FAST_READ_NB_DUMMY_CYCLES_DEFAULT;
34189202:	2308      	movs	r3, #8
34189204:	9307      	str	r3, [sp, #28]
          (void)SAL_XSPI_MemoryConfig(&Object->sfdp_private.SALObject, PARAM_DUMMY_CYCLES, (void *)&dummyCycles);
34189206:	aa07      	add	r2, sp, #28
34189208:	2101      	movs	r1, #1
3418920a:	4630      	mov	r0, r6
3418920c:	f7fe fd1e 	bl	34187c4c <SAL_XSPI_MemoryConfig>
34189210:	e6d1      	b.n	34188fb6 <SFDP_BuildGenericDriver+0x476>
        if (0u != JEDEC_Address4Bytes.Param_DWORD.D1.Support_1S1S2S_FastReadCommand)
34189212:	4a6a      	ldr	r2, [pc, #424]	@ (341893bc <SFDP_BuildGenericDriver+0x87c>)
34189214:	7812      	ldrb	r2, [r2, #0]
34189216:	f012 0f04 	tst.w	r2, #4
3418921a:	f43f aed1 	beq.w	34188fc0 <SFDP_BuildGenericDriver+0x480>
          Object->sfdp_private.DriverInfo.ReadInstruction = 0x3CU;
3418921e:	223c      	movs	r2, #60	@ 0x3c
34189220:	f884 2076 	strb.w	r2, [r4, #118]	@ 0x76
34189224:	e6cc      	b.n	34188fc0 <SFDP_BuildGenericDriver+0x480>
        if (0u != JEDEC_Address4Bytes.Param_DWORD.D1.Support_1S2S2S_FastReadCommand)
34189226:	4a65      	ldr	r2, [pc, #404]	@ (341893bc <SFDP_BuildGenericDriver+0x87c>)
34189228:	7812      	ldrb	r2, [r2, #0]
3418922a:	f012 0f08 	tst.w	r2, #8
3418922e:	f43f aeca 	beq.w	34188fc6 <SFDP_BuildGenericDriver+0x486>
          Object->sfdp_private.DriverInfo.ReadInstruction = 0xBCU;
34189232:	22bc      	movs	r2, #188	@ 0xbc
34189234:	f884 2076 	strb.w	r2, [r4, #118]	@ 0x76
34189238:	e6c5      	b.n	34188fc6 <SFDP_BuildGenericDriver+0x486>
        if (0u != JEDEC_Address4Bytes.Param_DWORD.D1.Support_1S1D1D_DTRReadCommand)
3418923a:	4b60      	ldr	r3, [pc, #384]	@ (341893bc <SFDP_BuildGenericDriver+0x87c>)
3418923c:	785b      	ldrb	r3, [r3, #1]
3418923e:	f013 0f20 	tst.w	r3, #32
34189242:	f43f aec3 	beq.w	34188fcc <SFDP_BuildGenericDriver+0x48c>
          Object->sfdp_private.DriverInfo.ReadInstruction = 0x0EU;
34189246:	230e      	movs	r3, #14
34189248:	f884 3076 	strb.w	r3, [r4, #118]	@ 0x76
3418924c:	e6be      	b.n	34188fcc <SFDP_BuildGenericDriver+0x48c>
        && (PHY_LINK_1S1S1S == Object->sfdp_private.DriverInfo.SpiPhyLink))
3418924e:	f894 3064 	ldrb.w	r3, [r4, #100]	@ 0x64
34189252:	2b00      	cmp	r3, #0
34189254:	f47f aebf 	bne.w	34188fd6 <SFDP_BuildGenericDriver+0x496>
          && (0u != JEDEC_Address4Bytes.Param_DWORD.D1.Support_1S8S8S_PageProgramCommand))
34189258:	4b58      	ldr	r3, [pc, #352]	@ (341893bc <SFDP_BuildGenericDriver+0x87c>)
3418925a:	885b      	ldrh	r3, [r3, #2]
3418925c:	f403 7390 	and.w	r3, r3, #288	@ 0x120
      if ((0u != JEDEC_Address4Bytes.Param_DWORD.D1.Support_1S8S8S_FastReadCommand)
34189260:	f5b3 7f90 	cmp.w	r3, #288	@ 0x120
34189264:	f47f aeb7 	bne.w	34188fd6 <SFDP_BuildGenericDriver+0x496>
        Object->sfdp_private.DriverInfo.SpiPhyLink = PHY_LINK_1S8S8S;
34189268:	4622      	mov	r2, r4
3418926a:	2307      	movs	r3, #7
3418926c:	f802 3f64 	strb.w	r3, [r2, #100]!
        if (HAL_OK != SAL_XSPI_MemoryConfig(&Object->sfdp_private.SALObject, PARAM_PHY_LINK,
34189270:	2100      	movs	r1, #0
34189272:	4630      	mov	r0, r6
34189274:	f7fe fcea 	bl	34187c4c <SAL_XSPI_MemoryConfig>
34189278:	2800      	cmp	r0, #0
3418927a:	f040 809c 	bne.w	341893b6 <SFDP_BuildGenericDriver+0x876>
        Object->sfdp_private.DriverInfo.ReadInstruction = 0xCC;
3418927e:	23cc      	movs	r3, #204	@ 0xcc
34189280:	f884 3076 	strb.w	r3, [r4, #118]	@ 0x76
        Object->sfdp_private.DriverInfo.PageProgramInstruction = 0x8E;
34189284:	238e      	movs	r3, #142	@ 0x8e
34189286:	f884 3075 	strb.w	r3, [r4, #117]	@ 0x75
3418928a:	e6a4      	b.n	34188fd6 <SFDP_BuildGenericDriver+0x496>
      if (0u != JEDEC_Address4Bytes.Param_DWORD.D1.Support_1S8S8S_PageProgramCommand)
3418928c:	4b4b      	ldr	r3, [pc, #300]	@ (341893bc <SFDP_BuildGenericDriver+0x87c>)
3418928e:	78db      	ldrb	r3, [r3, #3]
34189290:	f013 0f01 	tst.w	r3, #1
34189294:	d002      	beq.n	3418929c <SFDP_BuildGenericDriver+0x75c>
        Object->sfdp_private.DriverInfo.PageProgramInstruction  = 0x02u;
34189296:	2302      	movs	r3, #2
34189298:	f884 3075 	strb.w	r3, [r4, #117]	@ 0x75
      if (0u != JEDEC_Address4Bytes.Param_DWORD.D1.Support_1S8S8S_FastReadCommand)
3418929c:	4b47      	ldr	r3, [pc, #284]	@ (341893bc <SFDP_BuildGenericDriver+0x87c>)
3418929e:	789b      	ldrb	r3, [r3, #2]
341892a0:	f013 0f20 	tst.w	r3, #32
341892a4:	d109      	bne.n	341892ba <SFDP_BuildGenericDriver+0x77a>
      if (0u != JEDEC_Address4Bytes.Param_DWORD.D1.Support_1S8D8D_DTRReadCommand)
341892a6:	4b45      	ldr	r3, [pc, #276]	@ (341893bc <SFDP_BuildGenericDriver+0x87c>)
341892a8:	789b      	ldrb	r3, [r3, #2]
341892aa:	f013 0f40 	tst.w	r3, #64	@ 0x40
341892ae:	f43f ae97 	beq.w	34188fe0 <SFDP_BuildGenericDriver+0x4a0>
        Object->sfdp_private.DriverInfo.ReadInstruction         = 0xFDu;
341892b2:	23fd      	movs	r3, #253	@ 0xfd
341892b4:	f884 3076 	strb.w	r3, [r4, #118]	@ 0x76
341892b8:	e692      	b.n	34188fe0 <SFDP_BuildGenericDriver+0x4a0>
        Object->sfdp_private.DriverInfo.ReadInstruction         = 0xCCu;
341892ba:	23cc      	movs	r3, #204	@ 0xcc
341892bc:	f884 3076 	strb.w	r3, [r4, #118]	@ 0x76
        dummyCycles = EXTMEM_FAST_READ_NB_DUMMY_CYCLES_DEFAULT;
341892c0:	2308      	movs	r3, #8
341892c2:	9307      	str	r3, [sp, #28]
        (void)SAL_XSPI_MemoryConfig(&Object->sfdp_private.SALObject, PARAM_DUMMY_CYCLES, (void *)&dummyCycles);
341892c4:	aa07      	add	r2, sp, #28
341892c6:	2101      	movs	r1, #1
341892c8:	4630      	mov	r0, r6
341892ca:	f7fe fcbf 	bl	34187c4c <SAL_XSPI_MemoryConfig>
341892ce:	e7ea      	b.n	341892a6 <SFDP_BuildGenericDriver+0x766>
      dummyCycles = JEDEC_XSPI10.Param_DWORD.D6._8D8D8DDefaultPOR_DummyCycle;
341892d0:	4b3b      	ldr	r3, [pc, #236]	@ (341893c0 <SFDP_BuildGenericDriver+0x880>)
341892d2:	7d1b      	ldrb	r3, [r3, #20]
341892d4:	f003 031f 	and.w	r3, r3, #31
341892d8:	9307      	str	r3, [sp, #28]
      (void)SAL_XSPI_MemoryConfig(&Object->sfdp_private.SALObject, PARAM_DUMMY_CYCLES, (void *)&dummyCycles);
341892da:	aa07      	add	r2, sp, #28
341892dc:	2101      	movs	r1, #1
341892de:	4630      	mov	r0, r6
341892e0:	f7fe fcb4 	bl	34187c4c <SAL_XSPI_MemoryConfig>
341892e4:	e6a3      	b.n	3418902e <SFDP_BuildGenericDriver+0x4ee>
    else if ((ClockOut >= CLOCK_166MHZ) && (JEDEC_XSPI10.Param_DWORD.D5.Operation166Mhz_DummyCycle != 0u))
341892e6:	4a37      	ldr	r2, [pc, #220]	@ (341893c4 <SFDP_BuildGenericDriver+0x884>)
341892e8:	4293      	cmp	r3, r2
341892ea:	d90b      	bls.n	34189304 <SFDP_BuildGenericDriver+0x7c4>
341892ec:	4a34      	ldr	r2, [pc, #208]	@ (341893c0 <SFDP_BuildGenericDriver+0x880>)
341892ee:	7cd2      	ldrb	r2, [r2, #19]
341892f0:	2a07      	cmp	r2, #7
341892f2:	d907      	bls.n	34189304 <SFDP_BuildGenericDriver+0x7c4>
      dummyCycles = JEDEC_XSPI10.Param_DWORD.D5.Operation166Mhz_DummyCycle;
341892f4:	4a32      	ldr	r2, [pc, #200]	@ (341893c0 <SFDP_BuildGenericDriver+0x880>)
341892f6:	7cd3      	ldrb	r3, [r2, #19]
341892f8:	08db      	lsrs	r3, r3, #3
341892fa:	9307      	str	r3, [sp, #28]
      dummyCyclesValue = JEDEC_XSPI10.Param_DWORD.D5.Operation166Mhz_ConfigPattern;
341892fc:	8a51      	ldrh	r1, [r2, #18]
341892fe:	f3c1 1184 	ubfx	r1, r1, #6, #5
34189302:	e017      	b.n	34189334 <SFDP_BuildGenericDriver+0x7f4>
    else if ((ClockOut >= CLOCK_133MHZ) && (JEDEC_XSPI10.Param_DWORD.D5.Operation133Mhz_DummyCycle != 0u))
34189304:	4a30      	ldr	r2, [pc, #192]	@ (341893c8 <SFDP_BuildGenericDriver+0x888>)
34189306:	4293      	cmp	r3, r2
34189308:	d90c      	bls.n	34189324 <SFDP_BuildGenericDriver+0x7e4>
3418930a:	4b2d      	ldr	r3, [pc, #180]	@ (341893c0 <SFDP_BuildGenericDriver+0x880>)
3418930c:	7c9b      	ldrb	r3, [r3, #18]
3418930e:	f013 0f3e 	tst.w	r3, #62	@ 0x3e
34189312:	d007      	beq.n	34189324 <SFDP_BuildGenericDriver+0x7e4>
      dummyCycles = JEDEC_XSPI10.Param_DWORD.D5.Operation133Mhz_DummyCycle;
34189314:	4a2a      	ldr	r2, [pc, #168]	@ (341893c0 <SFDP_BuildGenericDriver+0x880>)
34189316:	f3c3 0344 	ubfx	r3, r3, #1, #5
3418931a:	9307      	str	r3, [sp, #28]
      dummyCyclesValue = JEDEC_XSPI10.Param_DWORD.D5.Operation133Mhz_ConfigPattern;
3418931c:	6911      	ldr	r1, [r2, #16]
3418931e:	f3c1 3104 	ubfx	r1, r1, #12, #5
34189322:	e007      	b.n	34189334 <SFDP_BuildGenericDriver+0x7f4>
      dummyCycles = JEDEC_XSPI10.Param_DWORD.D5.Operation100Mhz_DummyCycle;
34189324:	4a26      	ldr	r2, [pc, #152]	@ (341893c0 <SFDP_BuildGenericDriver+0x880>)
34189326:	8a13      	ldrh	r3, [r2, #16]
34189328:	f3c3 13c4 	ubfx	r3, r3, #7, #5
3418932c:	9307      	str	r3, [sp, #28]
      dummyCyclesValue = JEDEC_XSPI10.Param_DWORD.D5.Operation100Mhz_ConfigPattern;
3418932e:	7c11      	ldrb	r1, [r2, #16]
34189330:	f3c1 0184 	ubfx	r1, r1, #2, #5
    if (Object->sfdp_private.ManuID == EXTMEM_MANUFACTURER_GIGADEVICE)
34189334:	f894 305d 	ldrb.w	r3, [r4, #93]	@ 0x5d
34189338:	2bc8      	cmp	r3, #200	@ 0xc8
3418933a:	d00b      	beq.n	34189354 <SFDP_BuildGenericDriver+0x814>
      if ((0u != (Object->sfdp_private.Sfdp_table_mask & (uint32_t)SFDP_PARAMID_STATUS_CONTROL_CONFIG_REGISTER_MAP))
3418933c:	f8d4 3094 	ldr.w	r3, [r4, #148]	@ 0x94
34189340:	f413 7f00 	tst.w	r3, #512	@ 0x200
34189344:	d01a      	beq.n	3418937c <SFDP_BuildGenericDriver+0x83c>
          && (0u != JEDEC_SCCR_Map.Param_DWORD.D9.BitAvailable))
34189346:	4b21      	ldr	r3, [pc, #132]	@ (341893cc <SFDP_BuildGenericDriver+0x88c>)
34189348:	f993 3023 	ldrsb.w	r3, [r3, #35]	@ 0x23
3418934c:	2b00      	cmp	r3, #0
3418934e:	db09      	blt.n	34189364 <SFDP_BuildGenericDriver+0x824>
        retr = EXTMEM_SFDP_ERROR_CONFIGDUMMY;
34189350:	270e      	movs	r7, #14
34189352:	e016      	b.n	34189382 <SFDP_BuildGenericDriver+0x842>
      dummyCycles = 16;
34189354:	2310      	movs	r3, #16
34189356:	9307      	str	r3, [sp, #28]
      (void)SAL_XSPI_MemoryConfig(&Object->sfdp_private.SALObject, PARAM_DUMMY_CYCLES, (void *)&dummyCycles);
34189358:	aa07      	add	r2, sp, #28
3418935a:	2101      	movs	r1, #1
3418935c:	4630      	mov	r0, r6
3418935e:	f7fe fc75 	bl	34187c4c <SAL_XSPI_MemoryConfig>
34189362:	e00e      	b.n	34189382 <SFDP_BuildGenericDriver+0x842>
        if (sfdp_set_dummycycle(Object, dummyCyclesValue) == EXTMEM_SFDP_OK)
34189364:	4620      	mov	r0, r4
34189366:	f7ff faaf 	bl	341888c8 <sfdp_set_dummycycle>
3418936a:	b950      	cbnz	r0, 34189382 <SFDP_BuildGenericDriver+0x842>
          (void)SAL_XSPI_MemoryConfig(&Object->sfdp_private.SALObject, PARAM_DUMMY_CYCLES, (void *)&dummyCycles);
3418936c:	aa07      	add	r2, sp, #28
3418936e:	2101      	movs	r1, #1
34189370:	4630      	mov	r0, r6
34189372:	f7fe fc6b 	bl	34187c4c <SAL_XSPI_MemoryConfig>
34189376:	e004      	b.n	34189382 <SFDP_BuildGenericDriver+0x842>
      retr = EXTMEM_SFDP_ERROR_SETCLOCK;
34189378:	270d      	movs	r7, #13
3418937a:	e002      	b.n	34189382 <SFDP_BuildGenericDriver+0x842>
        retr = EXTMEM_SFDP_ERROR_CONFIGDUMMY;
3418937c:	270e      	movs	r7, #14
3418937e:	e000      	b.n	34189382 <SFDP_BuildGenericDriver+0x842>
    retr = EXTMEM_SFDP_ERROR_NO_PARAMTABLE_BASIC;
34189380:	2707      	movs	r7, #7
}
34189382:	4638      	mov	r0, r7
34189384:	b008      	add	sp, #32
34189386:	e8bd 81f0 	ldmia.w	sp!, {r4, r5, r6, r7, r8, pc}
    retr = EXTMEM_SFDP_ERROR_JEDECBASIC_D16;
3418938a:	270a      	movs	r7, #10
3418938c:	e7f9      	b.n	34189382 <SFDP_BuildGenericDriver+0x842>
      retr = EXTMEM_SFDP_ERROR_JEDECBASIC_D14;
3418938e:	2709      	movs	r7, #9
34189390:	e7f7      	b.n	34189382 <SFDP_BuildGenericDriver+0x842>
      retr = EXTMEM_SFDP_ERROR_DRIVER;
34189392:	270c      	movs	r7, #12
34189394:	e7f5      	b.n	34189382 <SFDP_BuildGenericDriver+0x842>
          retr = EXTMEM_SFDP_ERROR_DRIVER;
34189396:	270c      	movs	r7, #12
34189398:	e7f3      	b.n	34189382 <SFDP_BuildGenericDriver+0x842>
        retr = EXTMEM_SFDP_ERROR_NOTYETHANDLED;
3418939a:	270f      	movs	r7, #15
3418939c:	e7f1      	b.n	34189382 <SFDP_BuildGenericDriver+0x842>
    retr = EXTMEM_SFDP_ERROR_DRIVER;
3418939e:	270c      	movs	r7, #12
341893a0:	e7ef      	b.n	34189382 <SFDP_BuildGenericDriver+0x842>
          retr = EXTMEM_SFDP_ERROR_DRIVER;
341893a2:	270c      	movs	r7, #12
341893a4:	e7ed      	b.n	34189382 <SFDP_BuildGenericDriver+0x842>
          retr = EXTMEM_SFDP_ERROR_DRIVER;
341893a6:	270c      	movs	r7, #12
341893a8:	e7eb      	b.n	34189382 <SFDP_BuildGenericDriver+0x842>
          retr = EXTMEM_SFDP_ERROR_DRIVER;
341893aa:	270c      	movs	r7, #12
341893ac:	e7e9      	b.n	34189382 <SFDP_BuildGenericDriver+0x842>
        retr = EXTMEM_SFDP_ERROR_NOTYETHANDLED;
341893ae:	270f      	movs	r7, #15
341893b0:	e7e7      	b.n	34189382 <SFDP_BuildGenericDriver+0x842>
        retr = EXTMEM_SFDP_ERROR_DRIVER;
341893b2:	270c      	movs	r7, #12
341893b4:	e7e5      	b.n	34189382 <SFDP_BuildGenericDriver+0x842>
          retr = EXTMEM_SFDP_ERROR_DRIVER;
341893b6:	270c      	movs	r7, #12
341893b8:	e7e3      	b.n	34189382 <SFDP_BuildGenericDriver+0x842>
341893ba:	bf00      	nop
341893bc:	34180840 	.word	0x34180840
341893c0:	34180828 	.word	0x34180828
341893c4:	09e4f57f 	.word	0x09e4f57f
341893c8:	07ed6b3f 	.word	0x07ed6b3f
341893cc:	341807b8 	.word	0x341807b8

341893d0 <CheckSFDP_Signature>:
  * @param Object Pointer to the NOR SFDP memory instance object descriptor.
  * @param Signature Value of the SFDP signature to check.
  * @return SFDP_StatusTypeDef: EXTMEM_SFDP_OK if valid, error code otherwise.
  */
SFDP_StatusTypeDef CheckSFDP_Signature(EXTMEM_DRIVER_NOR_SFDP_ObjectTypeDef *Object, uint32_t Signature)
{
341893d0:	b508      	push	{r3, lr}
  SFDP_StatusTypeDef retr = EXTMEM_SFDP_ERROR_SIGNATURE;

  /* check the magic number */
  switch (Signature)
341893d2:	4b0c      	ldr	r3, [pc, #48]	@ (34189404 <CheckSFDP_Signature+0x34>)
341893d4:	4299      	cmp	r1, r3
341893d6:	d009      	beq.n	341893ec <CheckSFDP_Signature+0x1c>
341893d8:	f103 633f 	add.w	r3, r3, #200278016	@ 0xbf00000
341893dc:	f503 337c 	add.w	r3, r3, #258048	@ 0x3f000
341893e0:	f203 330d 	addw	r3, r3, #781	@ 0x30d
341893e4:	4299      	cmp	r1, r3
341893e6:	d108      	bne.n	341893fa <CheckSFDP_Signature+0x2a>
  {
    case SFDP_SIGNATURE :
      SFDP_DEBUG_STR("signature of the header: OK");
      retr = EXTMEM_SFDP_OK;
341893e8:	2000      	movs	r0, #0
    default :
      SFDP_DEBUG_STR("signature of the header: KO");
      break;
  }
  return retr;
}
341893ea:	bd08      	pop	{r3, pc}
      if (HAL_OK == SAL_XSPI_UpdateMemoryType(&Object->sfdp_private.SALObject, SAL_XSPI_ORDERINVERTED))
341893ec:	2100      	movs	r1, #0
341893ee:	3008      	adds	r0, #8
341893f0:	f7fe fd34 	bl	34187e5c <SAL_XSPI_UpdateMemoryType>
341893f4:	b118      	cbz	r0, 341893fe <CheckSFDP_Signature+0x2e>
  SFDP_StatusTypeDef retr = EXTMEM_SFDP_ERROR_SIGNATURE;
341893f6:	2004      	movs	r0, #4
341893f8:	e7f7      	b.n	341893ea <CheckSFDP_Signature+0x1a>
  switch (Signature)
341893fa:	2004      	movs	r0, #4
341893fc:	e7f5      	b.n	341893ea <CheckSFDP_Signature+0x1a>
        retr = EXTMEM_SFDP_ERROR_SIGNATUREMTYPE;
341893fe:	2005      	movs	r0, #5
34189400:	e7f3      	b.n	341893ea <CheckSFDP_Signature+0x1a>
34189402:	bf00      	nop
34189404:	44505346 	.word	0x44505346

34189408 <SFDP_ReadHeader>:
{
34189408:	b570      	push	{r4, r5, r6, lr}
3418940a:	4606      	mov	r6, r0
3418940c:	460c      	mov	r4, r1
  uint8_t retry_counter = 0;
3418940e:	2500      	movs	r5, #0
34189410:	e004      	b.n	3418941c <SFDP_ReadHeader+0x14>
        retry_counter++;
34189412:	3501      	adds	r5, #1
34189414:	b2ed      	uxtb	r5, r5
        retr = EXTMEM_SFDP_ERROR_SIGNATURE;
34189416:	2304      	movs	r3, #4
  } while (retry_counter < 2u);
34189418:	2d01      	cmp	r5, #1
3418941a:	d815      	bhi.n	34189448 <SFDP_ReadHeader+0x40>
    sfdp_header->Signature = 0;
3418941c:	2100      	movs	r1, #0
3418941e:	6021      	str	r1, [r4, #0]
    if (HAL_OK != SAL_XSPI_GetSFDP(&Object->sfdp_private.SALObject, 0, (uint8_t *)sfdp_header, SFDP_HEADER_SIZE))
34189420:	2308      	movs	r3, #8
34189422:	4622      	mov	r2, r4
34189424:	18f0      	adds	r0, r6, r3
34189426:	f7fe fd46 	bl	34187eb6 <SAL_XSPI_GetSFDP>
3418942a:	b960      	cbnz	r0, 34189446 <SFDP_ReadHeader+0x3e>
    switch (CheckSFDP_Signature(Object, sfdp_header->Signature))
3418942c:	6821      	ldr	r1, [r4, #0]
3418942e:	4630      	mov	r0, r6
34189430:	f7ff ffce 	bl	341893d0 <CheckSFDP_Signature>
34189434:	4603      	mov	r3, r0
34189436:	b120      	cbz	r0, 34189442 <SFDP_ReadHeader+0x3a>
34189438:	2805      	cmp	r0, #5
3418943a:	d0ea      	beq.n	34189412 <SFDP_ReadHeader+0xa>
        retry_counter = 2u;
3418943c:	2502      	movs	r5, #2
        retr = EXTMEM_SFDP_ERROR_SIGNATURE;
3418943e:	2304      	movs	r3, #4
34189440:	e7ea      	b.n	34189418 <SFDP_ReadHeader+0x10>
    switch (CheckSFDP_Signature(Object, sfdp_header->Signature))
34189442:	2502      	movs	r5, #2
34189444:	e7e8      	b.n	34189418 <SFDP_ReadHeader+0x10>
      retr = EXTMEM_SFDP_ERROR_SFDPREAD;
34189446:	2303      	movs	r3, #3
}
34189448:	4618      	mov	r0, r3
3418944a:	bd70      	pop	{r4, r5, r6, pc}

3418944c <SFDP_GetHeader>:
{
3418944c:	e92d 43f0 	stmdb	sp!, {r4, r5, r6, r7, r8, r9, lr}
34189450:	b085      	sub	sp, #20
34189452:	4605      	mov	r5, r0
34189454:	4689      	mov	r9, r1
  const TableConfig_t table_config[] =
34189456:	4b1c      	ldr	r3, [pc, #112]	@ (341894c8 <SFDP_GetHeader+0x7c>)
34189458:	cb0f      	ldmia	r3, {r0, r1, r2, r3}
3418945a:	ac04      	add	r4, sp, #16
3418945c:	e904 000f 	stmdb	r4, {r0, r1, r2, r3}
  for (uint8_t index = 0u;
34189460:	2600      	movs	r6, #0
  SFDP_StatusTypeDef retr = EXTMEM_SFDP_ERROR_SIGNATURE;
34189462:	2704      	movs	r7, #4
  for (uint8_t index = 0u;
34189464:	e014      	b.n	34189490 <SFDP_GetHeader+0x44>
      if (table_config[index].PhyLink < PHY_LINK_4S4S4S)
34189466:	f1b8 0f03 	cmp.w	r8, #3
3418946a:	d90f      	bls.n	3418948c <SFDP_GetHeader+0x40>
         (IExt < 2u) && (retr == EXTMEM_SFDP_ERROR_SIGNATURE); IExt++)
3418946c:	3401      	adds	r4, #1
3418946e:	b2e4      	uxtb	r4, r4
34189470:	2c01      	cmp	r4, #1
34189472:	d80b      	bhi.n	3418948c <SFDP_GetHeader+0x40>
34189474:	2f04      	cmp	r7, #4
34189476:	d109      	bne.n	3418948c <SFDP_GetHeader+0x40>
      SAL_XSPI_SET_COMMANDEXTENSION(Object->sfdp_private.SALObject, IExt);
34189478:	f885 4058 	strb.w	r4, [r5, #88]	@ 0x58
      if (EXTMEM_SFDP_OK == SFDP_ReadHeader(Object, sfdp_header))
3418947c:	4649      	mov	r1, r9
3418947e:	4628      	mov	r0, r5
34189480:	f7ff ffc2 	bl	34189408 <SFDP_ReadHeader>
34189484:	2800      	cmp	r0, #0
34189486:	d1ee      	bne.n	34189466 <SFDP_GetHeader+0x1a>
        retr = EXTMEM_SFDP_OK;
34189488:	4607      	mov	r7, r0
3418948a:	e7ec      	b.n	34189466 <SFDP_GetHeader+0x1a>
       ; index++)
3418948c:	3601      	adds	r6, #1
3418948e:	b2f6      	uxtb	r6, r6
       (index < (sizeof(table_config) / sizeof(TableConfig_t))) &&
34189490:	2e07      	cmp	r6, #7
34189492:	d814      	bhi.n	341894be <SFDP_GetHeader+0x72>
34189494:	2f04      	cmp	r7, #4
34189496:	d112      	bne.n	341894be <SFDP_GetHeader+0x72>
    Object->sfdp_private.DriverInfo.SpiPhyLink  = table_config[index].PhyLink;
34189498:	ab04      	add	r3, sp, #16
3418949a:	eb03 0446 	add.w	r4, r3, r6, lsl #1
3418949e:	f814 8c10 	ldrb.w	r8, [r4, #-16]
341894a2:	462a      	mov	r2, r5
341894a4:	f802 8f64 	strb.w	r8, [r2, #100]!
    (void)SAL_XSPI_MemoryConfig(&Object->sfdp_private.SALObject, PARAM_PHY_LINK,
341894a8:	2100      	movs	r1, #0
341894aa:	f105 0008 	add.w	r0, r5, #8
341894ae:	f7fe fbcd 	bl	34187c4c <SAL_XSPI_MemoryConfig>
    SAL_XSPI_SET_SFDPDUMMYCYLE(Object->sfdp_private.SALObject, table_config[index].DummyCycle);
341894b2:	f814 3c0f 	ldrb.w	r3, [r4, #-15]
341894b6:	f885 3059 	strb.w	r3, [r5, #89]	@ 0x59
    for (uint8_t IExt = 0u;
341894ba:	2400      	movs	r4, #0
341894bc:	e7d8      	b.n	34189470 <SFDP_GetHeader+0x24>
}
341894be:	4638      	mov	r0, r7
341894c0:	b005      	add	sp, #20
341894c2:	e8bd 83f0 	ldmia.w	sp!, {r4, r5, r6, r7, r8, r9, pc}
341894c6:	bf00      	nop
341894c8:	341899dc 	.word	0x341899dc

341894cc <driver_set_FlagWEL>:
  * @param timeout Timeout value
  * @return @ref EXTMEM_DRIVER_NOR_SFDP_StatusTypeDef
  **/
EXTMEM_DRIVER_NOR_SFDP_StatusTypeDef driver_set_FlagWEL(EXTMEM_DRIVER_NOR_SFDP_ObjectTypeDef *SFDPObject,
                                                        uint32_t Timeout)
{
341894cc:	b570      	push	{r4, r5, r6, lr}
341894ce:	b084      	sub	sp, #16
341894d0:	4604      	mov	r4, r0
341894d2:	460d      	mov	r5, r1
  EXTMEM_DRIVER_NOR_SFDP_StatusTypeDef retr = EXTMEM_DRIVER_NOR_SFDP_ERROR_WRITEENABLE;
  DEBUG_DRIVER((uint8_t *)__func__)

  /* Send the command write enable */
  (void)SAL_XSPI_CommandSendData(&SFDPObject->sfdp_private.SALObject,
341894d4:	f100 0608 	add.w	r6, r0, #8
341894d8:	2300      	movs	r3, #0
341894da:	461a      	mov	r2, r3
341894dc:	f890 1070 	ldrb.w	r1, [r0, #112]	@ 0x70
341894e0:	4630      	mov	r0, r6
341894e2:	f7fe fdb1 	bl	34188048 <SAL_XSPI_CommandSendData>
                                 SFDPObject->sfdp_private.DriverInfo.WriteWELCommand, NULL, 0);

  /* Wait for write enable status */
  if (0u != SFDPObject->sfdp_private.DriverInfo.ReadWELCommand)
341894e6:	f894 1071 	ldrb.w	r1, [r4, #113]	@ 0x71
341894ea:	b1f9      	cbz	r1, 3418952c <driver_set_FlagWEL+0x60>
  {
    /* Check if flag write enable is enabled */
    if (HAL_OK == SAL_XSPI_CheckStatusRegister(&SFDPObject->sfdp_private.SALObject,
                                               SFDPObject->sfdp_private.DriverInfo.ReadWELCommand,
                                               SFDPObject->sfdp_private.DriverInfo.WELAddress,
341894ec:	f894 2074 	ldrb.w	r2, [r4, #116]	@ 0x74
                                               ((SFDPObject->sfdp_private.DriverInfo.WELBusyPolarity == 0u) ? 1u : 0u)
341894f0:	f894 3073 	ldrb.w	r3, [r4, #115]	@ 0x73
341894f4:	b9ab      	cbnz	r3, 34189522 <driver_set_FlagWEL+0x56>
341894f6:	2301      	movs	r3, #1
                                               << SFDPObject->sfdp_private.DriverInfo.WELPosition,
341894f8:	f894 c072 	ldrb.w	ip, [r4, #114]	@ 0x72
341894fc:	fa03 f30c 	lsl.w	r3, r3, ip
                                               1u << SFDPObject->sfdp_private.DriverInfo.WELPosition,
34189500:	2001      	movs	r0, #1
34189502:	fa00 f00c 	lsl.w	r0, r0, ip
    if (HAL_OK == SAL_XSPI_CheckStatusRegister(&SFDPObject->sfdp_private.SALObject,
34189506:	9502      	str	r5, [sp, #8]
34189508:	f894 405d 	ldrb.w	r4, [r4, #93]	@ 0x5d
3418950c:	9401      	str	r4, [sp, #4]
3418950e:	b2c0      	uxtb	r0, r0
34189510:	9000      	str	r0, [sp, #0]
34189512:	b2db      	uxtb	r3, r3
34189514:	4630      	mov	r0, r6
34189516:	f7fe fe3d 	bl	34188194 <SAL_XSPI_CheckStatusRegister>
3418951a:	b920      	cbnz	r0, 34189526 <driver_set_FlagWEL+0x5a>
                                               SFDPObject->sfdp_private.ManuID, Timeout))
    {
      retr = EXTMEM_DRIVER_NOR_SFDP_OK;
3418951c:	2000      	movs	r0, #0
    }
  }
  return retr;
}
3418951e:	b004      	add	sp, #16
34189520:	bd70      	pop	{r4, r5, r6, pc}
                                               ((SFDPObject->sfdp_private.DriverInfo.WELBusyPolarity == 0u) ? 1u : 0u)
34189522:	2300      	movs	r3, #0
34189524:	e7e8      	b.n	341894f8 <driver_set_FlagWEL+0x2c>
  EXTMEM_DRIVER_NOR_SFDP_StatusTypeDef retr = EXTMEM_DRIVER_NOR_SFDP_ERROR_WRITEENABLE;
34189526:	f06f 0005 	mvn.w	r0, #5
3418952a:	e7f8      	b.n	3418951e <driver_set_FlagWEL+0x52>
3418952c:	f06f 0005 	mvn.w	r0, #5
34189530:	e7f5      	b.n	3418951e <driver_set_FlagWEL+0x52>
	...

34189534 <EXTMEM_DRIVER_NOR_SFDP_Init>:
{
34189534:	e92d 41f0 	stmdb	sp!, {r4, r5, r6, r7, r8, lr}
34189538:	b086      	sub	sp, #24
3418953a:	4607      	mov	r7, r0
3418953c:	4688      	mov	r8, r1
3418953e:	4616      	mov	r6, r2
34189540:	461c      	mov	r4, r3
  uint8_t FreqUpdate = 0u;
34189542:	2100      	movs	r1, #0
34189544:	f88d 100f 	strb.w	r1, [sp, #15]
  (void)memset((void *)&SFDPObject->sfdp_private, 0x0, sizeof(SFDPObject->sfdp_private));
34189548:	f103 0508 	add.w	r5, r3, #8
3418954c:	2298      	movs	r2, #152	@ 0x98
3418954e:	4628      	mov	r0, r5
34189550:	f000 f948 	bl	341897e4 <memset>
  SFDPObject->sfdp_private.Config = Config;
34189554:	f884 805c 	strb.w	r8, [r4, #92]	@ 0x5c
  SFDPObject->sfdp_private.DriverInfo.ClockIn = ClockInput;
34189558:	66a6      	str	r6, [r4, #104]	@ 0x68
  SAL_XSPI_SET_SFDPDUMMYCYLE(SFDPObject->sfdp_private.SALObject, EXTMEM_READ_SFDP_NB_DUMMY_CYCLES_DEFAULT);
3418955a:	2308      	movs	r3, #8
3418955c:	f884 3059 	strb.w	r3, [r4, #89]	@ 0x59
  (void)SAL_XSPI_Init(&SFDPObject->sfdp_private.SALObject, Peripheral);
34189560:	4639      	mov	r1, r7
34189562:	4628      	mov	r0, r5
34189564:	f7fe fb4b 	bl	34187bfe <SAL_XSPI_Init>
  (void)SAL_XSPI_SetClock(&SFDPObject->sfdp_private.SALObject, ClockInput, DRIVER_SFDP_DEFAULT_CLOCK, &ClockOut);
34189568:	ab01      	add	r3, sp, #4
3418956a:	4a2e      	ldr	r2, [pc, #184]	@ (34189624 <EXTMEM_DRIVER_NOR_SFDP_Init+0xf0>)
3418956c:	4631      	mov	r1, r6
3418956e:	4628      	mov	r0, r5
34189570:	f7fe fb26 	bl	34187bc0 <SAL_XSPI_SetClock>
  (void)SAL_XSPI_DisableMapMode(&SFDPObject->sfdp_private.SALObject);
34189574:	4628      	mov	r0, r5
34189576:	f7fe fc6a 	bl	34187e4e <SAL_XSPI_DisableMapMode>
  if (EXTMEM_SFDP_OK != SFDP_GetHeader(SFDPObject, &JEDEC_SFDP_Header))
3418957a:	a904      	add	r1, sp, #16
3418957c:	4620      	mov	r0, r4
3418957e:	f7ff ff65 	bl	3418944c <SFDP_GetHeader>
34189582:	2800      	cmp	r0, #0
34189584:	d13e      	bne.n	34189604 <EXTMEM_DRIVER_NOR_SFDP_Init+0xd0>
  if (EXTMEM_SFDP_OK != SFDP_MemoryReset(SFDPObject))
34189586:	4620      	mov	r0, r4
34189588:	f7ff f86a 	bl	34188660 <SFDP_MemoryReset>
  HAL_Delay(10);
3418958c:	200a      	movs	r0, #10
3418958e:	f7f7 fe2b 	bl	341811e8 <HAL_Delay>
  if (EXTMEM_SFDP_OK != SFDP_GetHeader(SFDPObject, &JEDEC_SFDP_Header))
34189592:	a904      	add	r1, sp, #16
34189594:	4620      	mov	r0, r4
34189596:	f7ff ff59 	bl	3418944c <SFDP_GetHeader>
3418959a:	bbb0      	cbnz	r0, 3418960a <EXTMEM_DRIVER_NOR_SFDP_Init+0xd6>
  if (JEDEC_SFDP_Header.param_number >= SFDP_MAX_NB_OF_PARAM)
3418959c:	f89d 3016 	ldrb.w	r3, [sp, #22]
341895a0:	2b09      	cmp	r3, #9
341895a2:	d926      	bls.n	341895f2 <EXTMEM_DRIVER_NOR_SFDP_Init+0xbe>
    SFDPObject->sfdp_private.Sfdp_param_number = SFDP_MAX_NB_OF_PARAM - 1;
341895a4:	2309      	movs	r3, #9
341895a6:	f884 309c 	strb.w	r3, [r4, #156]	@ 0x9c
  SFDPObject->sfdp_private.Sfdp_AccessProtocol = JEDEC_SFDP_Header.AccessProtocol;
341895aa:	f89d 3017 	ldrb.w	r3, [sp, #23]
341895ae:	f884 309d 	strb.w	r3, [r4, #157]	@ 0x9d
  (void)SAL_XSPI_GetId(&SFDPObject->sfdp_private.SALObject, DataID, EXTMEM_READ_JEDEC_ID_SIZE);
341895b2:	2204      	movs	r2, #4
341895b4:	a902      	add	r1, sp, #8
341895b6:	4628      	mov	r0, r5
341895b8:	f7fe fcbe 	bl	34187f38 <SAL_XSPI_GetId>
  SFDPObject->sfdp_private.ManuID = DataID[0];
341895bc:	f89d 3008 	ldrb.w	r3, [sp, #8]
341895c0:	f884 305d 	strb.w	r3, [r4, #93]	@ 0x5d
  if (EXTMEM_SFDP_OK != SFDP_CollectData(SFDPObject))
341895c4:	4620      	mov	r0, r4
341895c6:	f7fe ffcb 	bl	34188560 <SFDP_CollectData>
341895ca:	bb08      	cbnz	r0, 34189610 <EXTMEM_DRIVER_NOR_SFDP_Init+0xdc>
  if (EXTMEM_SFDP_OK != SFDP_BuildGenericDriver(SFDPObject, &FreqUpdate))
341895cc:	f10d 010f 	add.w	r1, sp, #15
341895d0:	4620      	mov	r0, r4
341895d2:	f7ff fab5 	bl	34188b40 <SFDP_BuildGenericDriver>
341895d6:	b9f0      	cbnz	r0, 34189616 <EXTMEM_DRIVER_NOR_SFDP_Init+0xe2>
  if ((FreqUpdate == 0u) && (SFDPObject->sfdp_public.MaxFreq != 0u))
341895d8:	f89d 300f 	ldrb.w	r3, [sp, #15]
341895dc:	b90b      	cbnz	r3, 341895e2 <EXTMEM_DRIVER_NOR_SFDP_Init+0xae>
341895de:	6822      	ldr	r2, [r4, #0]
341895e0:	b952      	cbnz	r2, 341895f8 <EXTMEM_DRIVER_NOR_SFDP_Init+0xc4>
  if (EXTMEM_SFDP_OK != SFDP_ReadHeader(SFDPObject, &JEDEC_SFDP_Header))
341895e2:	a904      	add	r1, sp, #16
341895e4:	4620      	mov	r0, r4
341895e6:	f7ff ff0f 	bl	34189408 <SFDP_ReadHeader>
341895ea:	b9b8      	cbnz	r0, 3418961c <EXTMEM_DRIVER_NOR_SFDP_Init+0xe8>
}
341895ec:	b006      	add	sp, #24
341895ee:	e8bd 81f0 	ldmia.w	sp!, {r4, r5, r6, r7, r8, pc}
    SFDPObject->sfdp_private.Sfdp_param_number = JEDEC_SFDP_Header.param_number;
341895f2:	f884 309c 	strb.w	r3, [r4, #156]	@ 0x9c
341895f6:	e7d8      	b.n	341895aa <EXTMEM_DRIVER_NOR_SFDP_Init+0x76>
    (void)SAL_XSPI_SetClock(&SFDPObject->sfdp_private.SALObject, ClockInput,
341895f8:	ab01      	add	r3, sp, #4
341895fa:	4631      	mov	r1, r6
341895fc:	4628      	mov	r0, r5
341895fe:	f7fe fadf 	bl	34187bc0 <SAL_XSPI_SetClock>
34189602:	e7ee      	b.n	341895e2 <EXTMEM_DRIVER_NOR_SFDP_Init+0xae>
    retr = EXTMEM_DRIVER_NOR_SFDP_ERROR_SFDP;
34189604:	f04f 30ff 	mov.w	r0, #4294967295
34189608:	e7f0      	b.n	341895ec <EXTMEM_DRIVER_NOR_SFDP_Init+0xb8>
    retr = EXTMEM_DRIVER_NOR_SFDP_ERROR_SFDP;
3418960a:	f04f 30ff 	mov.w	r0, #4294967295
3418960e:	e7ed      	b.n	341895ec <EXTMEM_DRIVER_NOR_SFDP_Init+0xb8>
    retr = EXTMEM_DRIVER_NOR_SFDP_ERROR_SFDP;
34189610:	f04f 30ff 	mov.w	r0, #4294967295
34189614:	e7ea      	b.n	341895ec <EXTMEM_DRIVER_NOR_SFDP_Init+0xb8>
    retr = EXTMEM_DRIVER_NOR_SFDP_ERROR_BUILD;
34189616:	f06f 0002 	mvn.w	r0, #2
3418961a:	e7e7      	b.n	341895ec <EXTMEM_DRIVER_NOR_SFDP_Init+0xb8>
    retr = EXTMEM_DRIVER_NOR_SFDP_ERROR_MEMTYPE_CHECK;
3418961c:	f06f 000d 	mvn.w	r0, #13
34189620:	e7e4      	b.n	341895ec <EXTMEM_DRIVER_NOR_SFDP_Init+0xb8>
34189622:	bf00      	nop
34189624:	02faf080 	.word	0x02faf080

34189628 <EXTMEM_DRIVER_NOR_SFDP_Write>:
{
34189628:	e92d 43f0 	stmdb	sp!, {r4, r5, r6, r7, r8, r9, lr}
3418962c:	b083      	sub	sp, #12
3418962e:	4605      	mov	r5, r0
34189630:	460f      	mov	r7, r1
34189632:	461e      	mov	r6, r3
  uint32_t local_Data = (uint32_t)Data;
34189634:	4690      	mov	r8, r2
  if (0u != (local_Address % SFDPObject->sfdp_private.PageSize))
34189636:	6e03      	ldr	r3, [r0, #96]	@ 0x60
34189638:	fbb1 f9f3 	udiv	r9, r1, r3
3418963c:	fb03 1919 	mls	r9, r3, r9, r1
34189640:	f1b9 0f00 	cmp.w	r9, #0
34189644:	d028      	beq.n	34189698 <EXTMEM_DRIVER_NOR_SFDP_Write+0x70>
    misalignment = 1u;
34189646:	f04f 0901 	mov.w	r9, #1
3418964a:	e025      	b.n	34189698 <EXTMEM_DRIVER_NOR_SFDP_Write+0x70>
      size_write = SFDPObject->sfdp_private.PageSize - (local_Address % SFDPObject->sfdp_private.PageSize);
3418964c:	6e2c      	ldr	r4, [r5, #96]	@ 0x60
3418964e:	fbb7 f3f4 	udiv	r3, r7, r4
34189652:	fb04 7313 	mls	r3, r4, r3, r7
34189656:	1ae4      	subs	r4, r4, r3
      size_write = MIN(local_size, size_write);
34189658:	42b4      	cmp	r4, r6
3418965a:	bf28      	it	cs
3418965c:	4634      	movcs	r4, r6
      misalignment = 0u;
3418965e:	f04f 0900 	mov.w	r9, #0
    retr = driver_check_FlagBUSY(SFDPObject, 5000u);
34189662:	f241 3188 	movw	r1, #5000	@ 0x1388
34189666:	4628      	mov	r0, r5
34189668:	f7fe fe65 	bl	34188336 <driver_check_FlagBUSY>
    if (EXTMEM_DRIVER_NOR_SFDP_OK != retr)
3418966c:	4603      	mov	r3, r0
3418966e:	bb10      	cbnz	r0, 341896b6 <EXTMEM_DRIVER_NOR_SFDP_Write+0x8e>
    retr = driver_set_FlagWEL(SFDPObject, DRIVER_DEFAULT_TIMEOUT);
34189670:	f44f 7196 	mov.w	r1, #300	@ 0x12c
34189674:	4628      	mov	r0, r5
34189676:	f7ff ff29 	bl	341894cc <driver_set_FlagWEL>
    if (EXTMEM_DRIVER_NOR_SFDP_OK != retr)
3418967a:	4603      	mov	r3, r0
3418967c:	b9d8      	cbnz	r0, 341896b6 <EXTMEM_DRIVER_NOR_SFDP_Write+0x8e>
    if (HAL_OK != SAL_XSPI_Write(&SFDPObject->sfdp_private.SALObject,
3418967e:	9400      	str	r4, [sp, #0]
34189680:	4643      	mov	r3, r8
34189682:	463a      	mov	r2, r7
34189684:	f895 1075 	ldrb.w	r1, [r5, #117]	@ 0x75
34189688:	f105 0008 	add.w	r0, r5, #8
3418968c:	f7fe fe26 	bl	341882dc <SAL_XSPI_Write>
34189690:	b9a8      	cbnz	r0, 341896be <EXTMEM_DRIVER_NOR_SFDP_Write+0x96>
    local_size = local_size - size_write;
34189692:	1b36      	subs	r6, r6, r4
    local_Address = local_Address + size_write;
34189694:	4427      	add	r7, r4
    local_Data = local_Data + size_write;
34189696:	44a0      	add	r8, r4
  while (local_size != 0u)
34189698:	b13e      	cbz	r6, 341896aa <EXTMEM_DRIVER_NOR_SFDP_Write+0x82>
    if (misalignment == 1u)
3418969a:	f1b9 0f01 	cmp.w	r9, #1
3418969e:	d0d5      	beq.n	3418964c <EXTMEM_DRIVER_NOR_SFDP_Write+0x24>
      size_write = MIN(local_size, SFDPObject->sfdp_private.PageSize);
341896a0:	6e2c      	ldr	r4, [r5, #96]	@ 0x60
341896a2:	42b4      	cmp	r4, r6
341896a4:	bf28      	it	cs
341896a6:	4634      	movcs	r4, r6
341896a8:	e7db      	b.n	34189662 <EXTMEM_DRIVER_NOR_SFDP_Write+0x3a>
  retr = driver_check_FlagBUSY(SFDPObject, 5000);
341896aa:	f241 3188 	movw	r1, #5000	@ 0x1388
341896ae:	4628      	mov	r0, r5
341896b0:	f7fe fe41 	bl	34188336 <driver_check_FlagBUSY>
341896b4:	4603      	mov	r3, r0
}
341896b6:	4618      	mov	r0, r3
341896b8:	b003      	add	sp, #12
341896ba:	e8bd 83f0 	ldmia.w	sp!, {r4, r5, r6, r7, r8, r9, pc}
      retr = EXTMEM_DRIVER_NOR_SFDP_ERROR_WRITE;
341896be:	f06f 0306 	mvn.w	r3, #6
341896c2:	e7f8      	b.n	341896b6 <EXTMEM_DRIVER_NOR_SFDP_Write+0x8e>

341896c4 <EXTMEM_DRIVER_NOR_SFDP_MassErase>:
{
341896c4:	b510      	push	{r4, lr}
341896c6:	4604      	mov	r4, r0
  retr = driver_check_FlagBUSY(SFDPObject, 1000);
341896c8:	f44f 717a 	mov.w	r1, #1000	@ 0x3e8
341896cc:	f7fe fe33 	bl	34188336 <driver_check_FlagBUSY>
  if (EXTMEM_DRIVER_NOR_SFDP_OK != retr)
341896d0:	b9b8      	cbnz	r0, 34189702 <EXTMEM_DRIVER_NOR_SFDP_MassErase+0x3e>
  retr = driver_set_FlagWEL(SFDPObject, DRIVER_DEFAULT_TIMEOUT);
341896d2:	f44f 7196 	mov.w	r1, #300	@ 0x12c
341896d6:	4620      	mov	r0, r4
341896d8:	f7ff fef8 	bl	341894cc <driver_set_FlagWEL>
341896dc:	4603      	mov	r3, r0
  if (EXTMEM_DRIVER_NOR_SFDP_OK != retr)
341896de:	b100      	cbz	r0, 341896e2 <EXTMEM_DRIVER_NOR_SFDP_MassErase+0x1e>
}
341896e0:	bd10      	pop	{r4, pc}
  (void)SAL_XSPI_CommandSendData(&SFDPObject->sfdp_private.SALObject, SFDP_DRIVER_ERASE_CHIP_COMMAND, NULL, 0);
341896e2:	4602      	mov	r2, r0
341896e4:	2160      	movs	r1, #96	@ 0x60
341896e6:	f104 0008 	add.w	r0, r4, #8
341896ea:	f7fe fcad 	bl	34188048 <SAL_XSPI_CommandSendData>
  retr = driver_check_FlagBUSY(SFDPObject, SFDPObject->sfdp_private.DriverInfo.EraseChipTiming);
341896ee:	f8d4 1090 	ldr.w	r1, [r4, #144]	@ 0x90
341896f2:	4620      	mov	r0, r4
341896f4:	f7fe fe1f 	bl	34188336 <driver_check_FlagBUSY>
  if (EXTMEM_DRIVER_NOR_SFDP_OK != retr)
341896f8:	2800      	cmp	r0, #0
341896fa:	d0f1      	beq.n	341896e0 <EXTMEM_DRIVER_NOR_SFDP_MassErase+0x1c>
    retr = EXTMEM_DRIVER_NOR_SFDP_ERROR_ERASE_TIMEOUT;
341896fc:	f06f 000a 	mvn.w	r0, #10
34189700:	e7ee      	b.n	341896e0 <EXTMEM_DRIVER_NOR_SFDP_MassErase+0x1c>
    retr = EXTMEM_DRIVER_NOR_SFDP_ERROR_FLASHBUSY;
34189702:	f06f 000b 	mvn.w	r0, #11
34189706:	e7eb      	b.n	341896e0 <EXTMEM_DRIVER_NOR_SFDP_MassErase+0x1c>

34189708 <EXTMEM_DRIVER_NOR_SFDP_SectorErase>:
{
34189708:	b5f8      	push	{r3, r4, r5, r6, r7, lr}
3418970a:	4604      	mov	r4, r0
3418970c:	460d      	mov	r5, r1
  switch (SectorType)
3418970e:	2a03      	cmp	r2, #3
34189710:	d842      	bhi.n	34189798 <EXTMEM_DRIVER_NOR_SFDP_SectorErase+0x90>
34189712:	e8df f002 	tbb	[pc, r2]
34189716:	1802      	.short	0x1802
34189718:	261f      	.short	0x261f
      command = SFDPObject->sfdp_private.DriverInfo.EraseType1Command;
3418971a:	f890 6078 	ldrb.w	r6, [r0, #120]	@ 0x78
      size = SFDPObject->sfdp_private.DriverInfo.EraseType1Size;
3418971e:	f890 2077 	ldrb.w	r2, [r0, #119]	@ 0x77
      timeout = SFDPObject->sfdp_private.DriverInfo.EraseType1Timing;
34189722:	f8d0 7080 	ldr.w	r7, [r0, #128]	@ 0x80
  if (0x0u == command)
34189726:	b3d6      	cbz	r6, 3418979e <EXTMEM_DRIVER_NOR_SFDP_SectorErase+0x96>
  if (0x0u != (Address % ((uint32_t)1u << size)))
34189728:	f04f 33ff 	mov.w	r3, #4294967295
3418972c:	4093      	lsls	r3, r2
3418972e:	ea35 0303 	bics.w	r3, r5, r3
34189732:	d137      	bne.n	341897a4 <EXTMEM_DRIVER_NOR_SFDP_SectorErase+0x9c>
  retr = driver_check_FlagBUSY(SFDPObject, 5000u);
34189734:	f241 3188 	movw	r1, #5000	@ 0x1388
34189738:	4620      	mov	r0, r4
3418973a:	f7fe fdfc 	bl	34188336 <driver_check_FlagBUSY>
  if (EXTMEM_DRIVER_NOR_SFDP_OK != retr)
3418973e:	4603      	mov	r3, r0
34189740:	b1b0      	cbz	r0, 34189770 <EXTMEM_DRIVER_NOR_SFDP_SectorErase+0x68>
}
34189742:	4618      	mov	r0, r3
34189744:	bdf8      	pop	{r3, r4, r5, r6, r7, pc}
      command = SFDPObject->sfdp_private.DriverInfo.EraseType2Command;
34189746:	f890 607a 	ldrb.w	r6, [r0, #122]	@ 0x7a
      size = SFDPObject->sfdp_private.DriverInfo.EraseType2Size;
3418974a:	f890 2079 	ldrb.w	r2, [r0, #121]	@ 0x79
      timeout = SFDPObject->sfdp_private.DriverInfo.EraseType2Timing;
3418974e:	f8d0 7084 	ldr.w	r7, [r0, #132]	@ 0x84
      break;
34189752:	e7e8      	b.n	34189726 <EXTMEM_DRIVER_NOR_SFDP_SectorErase+0x1e>
      command = SFDPObject->sfdp_private.DriverInfo.EraseType3Command;
34189754:	f890 607c 	ldrb.w	r6, [r0, #124]	@ 0x7c
      size = SFDPObject->sfdp_private.DriverInfo.EraseType3Size;
34189758:	f890 207b 	ldrb.w	r2, [r0, #123]	@ 0x7b
      timeout = SFDPObject->sfdp_private.DriverInfo.EraseType3Timing;
3418975c:	f8d0 7088 	ldr.w	r7, [r0, #136]	@ 0x88
      break;
34189760:	e7e1      	b.n	34189726 <EXTMEM_DRIVER_NOR_SFDP_SectorErase+0x1e>
      command = SFDPObject->sfdp_private.DriverInfo.EraseType4Command;
34189762:	f890 607e 	ldrb.w	r6, [r0, #126]	@ 0x7e
      size = SFDPObject->sfdp_private.DriverInfo.EraseType4Size;
34189766:	f890 207d 	ldrb.w	r2, [r0, #125]	@ 0x7d
      timeout = SFDPObject->sfdp_private.DriverInfo.EraseType4Timing;
3418976a:	f8d0 708c 	ldr.w	r7, [r0, #140]	@ 0x8c
      break;
3418976e:	e7da      	b.n	34189726 <EXTMEM_DRIVER_NOR_SFDP_SectorErase+0x1e>
  retr = driver_set_FlagWEL(SFDPObject, DRIVER_DEFAULT_TIMEOUT);
34189770:	f44f 7196 	mov.w	r1, #300	@ 0x12c
34189774:	4620      	mov	r0, r4
34189776:	f7ff fea9 	bl	341894cc <driver_set_FlagWEL>
  if (EXTMEM_DRIVER_NOR_SFDP_OK != retr)
3418977a:	4603      	mov	r3, r0
3418977c:	2800      	cmp	r0, #0
3418977e:	d1e0      	bne.n	34189742 <EXTMEM_DRIVER_NOR_SFDP_SectorErase+0x3a>
  (void)SAL_XSPI_CommandSendAddress(&SFDPObject->sfdp_private.SALObject, command, Address);
34189780:	462a      	mov	r2, r5
34189782:	4631      	mov	r1, r6
34189784:	f104 0008 	add.w	r0, r4, #8
34189788:	f7fe fc33 	bl	34187ff2 <SAL_XSPI_CommandSendAddress>
  retr = driver_check_FlagBUSY(SFDPObject, timeout);
3418978c:	4639      	mov	r1, r7
3418978e:	4620      	mov	r0, r4
34189790:	f7fe fdd1 	bl	34188336 <driver_check_FlagBUSY>
34189794:	4603      	mov	r3, r0
error:
34189796:	e7d4      	b.n	34189742 <EXTMEM_DRIVER_NOR_SFDP_SectorErase+0x3a>
  switch (SectorType)
34189798:	f06f 0307 	mvn.w	r3, #7
3418979c:	e7d1      	b.n	34189742 <EXTMEM_DRIVER_NOR_SFDP_SectorErase+0x3a>
    retr = EXTMEM_DRIVER_NOR_SFDP_ERROR_SECTORTYPE_UNAVAILABLE;
3418979e:	f06f 0308 	mvn.w	r3, #8
341897a2:	e7ce      	b.n	34189742 <EXTMEM_DRIVER_NOR_SFDP_SectorErase+0x3a>
    retr = EXTMEM_DRIVER_NOR_SFDP_ERROR_ADDRESS_ALIGNMENT;
341897a4:	f06f 0309 	mvn.w	r3, #9
341897a8:	e7cb      	b.n	34189742 <EXTMEM_DRIVER_NOR_SFDP_SectorErase+0x3a>

341897aa <EXTMEM_DRIVER_NOR_SFDP_Enable_MemoryMappedMode>:
{
341897aa:	b500      	push	{lr}
341897ac:	b083      	sub	sp, #12
  if (HAL_OK != SAL_XSPI_EnableMapMode(&SFDPObject->sfdp_private.SALObject,
341897ae:	2300      	movs	r3, #0
341897b0:	9300      	str	r3, [sp, #0]
341897b2:	f890 3075 	ldrb.w	r3, [r0, #117]	@ 0x75
341897b6:	f890 2050 	ldrb.w	r2, [r0, #80]	@ 0x50
341897ba:	f890 1076 	ldrb.w	r1, [r0, #118]	@ 0x76
341897be:	3008      	adds	r0, #8
341897c0:	f7fe fd3f 	bl	34188242 <SAL_XSPI_EnableMapMode>
341897c4:	b910      	cbnz	r0, 341897cc <EXTMEM_DRIVER_NOR_SFDP_Enable_MemoryMappedMode+0x22>
}
341897c6:	b003      	add	sp, #12
341897c8:	f85d fb04 	ldr.w	pc, [sp], #4
    retr = EXTMEM_DRIVER_NOR_SFDP_ERROR_MAP_ENABLE;
341897cc:	f06f 000c 	mvn.w	r0, #12
341897d0:	e7f9      	b.n	341897c6 <EXTMEM_DRIVER_NOR_SFDP_Enable_MemoryMappedMode+0x1c>

341897d2 <EXTMEM_DRIVER_NOR_SFDP_Disable_MemoryMappedMode>:
{
341897d2:	b508      	push	{r3, lr}
  if (HAL_OK != SAL_XSPI_DisableMapMode(&SFDPObject->sfdp_private.SALObject))
341897d4:	3008      	adds	r0, #8
341897d6:	f7fe fb3a 	bl	34187e4e <SAL_XSPI_DisableMapMode>
341897da:	b900      	cbnz	r0, 341897de <EXTMEM_DRIVER_NOR_SFDP_Disable_MemoryMappedMode+0xc>
}
341897dc:	bd08      	pop	{r3, pc}
    retr = EXTMEM_DRIVER_NOR_SFDP_ERROR_MAP_ENABLE;
341897de:	f06f 000c 	mvn.w	r0, #12
341897e2:	e7fb      	b.n	341897dc <EXTMEM_DRIVER_NOR_SFDP_Disable_MemoryMappedMode+0xa>

341897e4 <memset>:
341897e4:	4402      	add	r2, r0
341897e6:	4603      	mov	r3, r0
341897e8:	4293      	cmp	r3, r2
341897ea:	d100      	bne.n	341897ee <memset+0xa>
341897ec:	4770      	bx	lr
341897ee:	f803 1b01 	strb.w	r1, [r3], #1
341897f2:	e7f9      	b.n	341897e8 <memset+0x4>

341897f4 <__retarget_lock_acquire_recursive>:
341897f4:	4770      	bx	lr

341897f6 <__retarget_lock_release_recursive>:
341897f6:	4770      	bx	lr

341897f8 <memcpy>:
341897f8:	440a      	add	r2, r1
341897fa:	1e43      	subs	r3, r0, #1
341897fc:	4291      	cmp	r1, r2
341897fe:	d100      	bne.n	34189802 <memcpy+0xa>
34189800:	4770      	bx	lr
34189802:	b510      	push	{r4, lr}
34189804:	f811 4b01 	ldrb.w	r4, [r1], #1
34189808:	4291      	cmp	r1, r2
3418980a:	f803 4f01 	strb.w	r4, [r3, #1]!
3418980e:	d1f9      	bne.n	34189804 <memcpy+0xc>
34189810:	bd10      	pop	{r4, pc}
	...

34189814 <register_fini>:
34189814:	4b02      	ldr	r3, [pc, #8]	@ (34189820 <register_fini+0xc>)
34189816:	b113      	cbz	r3, 3418981e <register_fini+0xa>
34189818:	4802      	ldr	r0, [pc, #8]	@ (34189824 <register_fini+0x10>)
3418981a:	f000 b805 	b.w	34189828 <atexit>
3418981e:	4770      	bx	lr
34189820:	00000000 	.word	0x00000000
34189824:	34189835 	.word	0x34189835

34189828 <atexit>:
34189828:	2300      	movs	r3, #0
3418982a:	4601      	mov	r1, r0
3418982c:	461a      	mov	r2, r3
3418982e:	4618      	mov	r0, r3
34189830:	f000 b814 	b.w	3418985c <__register_exitproc>

34189834 <__libc_fini_array>:
34189834:	b538      	push	{r3, r4, r5, lr}
34189836:	4d07      	ldr	r5, [pc, #28]	@ (34189854 <__libc_fini_array+0x20>)
34189838:	4c07      	ldr	r4, [pc, #28]	@ (34189858 <__libc_fini_array+0x24>)
3418983a:	1b64      	subs	r4, r4, r5
3418983c:	10a4      	asrs	r4, r4, #2
3418983e:	b91c      	cbnz	r4, 34189848 <__libc_fini_array+0x14>
34189840:	e8bd 4038 	ldmia.w	sp!, {r3, r4, r5, lr}
34189844:	f000 b852 	b.w	341898ec <_fini>
34189848:	3c01      	subs	r4, #1
3418984a:	f855 3024 	ldr.w	r3, [r5, r4, lsl #2]
3418984e:	4798      	blx	r3
34189850:	e7f5      	b.n	3418983e <__libc_fini_array+0xa>
34189852:	bf00      	nop
34189854:	34180608 	.word	0x34180608
34189858:	3418060c 	.word	0x3418060c

3418985c <__register_exitproc>:
3418985c:	e92d 47f0 	stmdb	sp!, {r4, r5, r6, r7, r8, r9, sl, lr}
34189860:	f8df a078 	ldr.w	sl, [pc, #120]	@ 341898dc <__register_exitproc+0x80>
34189864:	4606      	mov	r6, r0
34189866:	4698      	mov	r8, r3
34189868:	460f      	mov	r7, r1
3418986a:	f8da 0000 	ldr.w	r0, [sl]
3418986e:	4691      	mov	r9, r2
34189870:	f7ff ffc0 	bl	341897f4 <__retarget_lock_acquire_recursive>
34189874:	4b17      	ldr	r3, [pc, #92]	@ (341898d4 <__register_exitproc+0x78>)
34189876:	681c      	ldr	r4, [r3, #0]
34189878:	b90c      	cbnz	r4, 3418987e <__register_exitproc+0x22>
3418987a:	4c17      	ldr	r4, [pc, #92]	@ (341898d8 <__register_exitproc+0x7c>)
3418987c:	601c      	str	r4, [r3, #0]
3418987e:	6865      	ldr	r5, [r4, #4]
34189880:	f8da 0000 	ldr.w	r0, [sl]
34189884:	2d1f      	cmp	r5, #31
34189886:	dd05      	ble.n	34189894 <__register_exitproc+0x38>
34189888:	f7ff ffb5 	bl	341897f6 <__retarget_lock_release_recursive>
3418988c:	f04f 30ff 	mov.w	r0, #4294967295
34189890:	e8bd 87f0 	ldmia.w	sp!, {r4, r5, r6, r7, r8, r9, sl, pc}
34189894:	b1ae      	cbz	r6, 341898c2 <__register_exitproc+0x66>
34189896:	eb04 0185 	add.w	r1, r4, r5, lsl #2
3418989a:	2201      	movs	r2, #1
3418989c:	2e02      	cmp	r6, #2
3418989e:	f8c1 9088 	str.w	r9, [r1, #136]	@ 0x88
341898a2:	fa02 f205 	lsl.w	r2, r2, r5
341898a6:	f8d4 3188 	ldr.w	r3, [r4, #392]	@ 0x188
341898aa:	ea43 0302 	orr.w	r3, r3, r2
341898ae:	f8c4 3188 	str.w	r3, [r4, #392]	@ 0x188
341898b2:	f8c1 8108 	str.w	r8, [r1, #264]	@ 0x108
341898b6:	bf02      	ittt	eq
341898b8:	f8d4 318c 	ldreq.w	r3, [r4, #396]	@ 0x18c
341898bc:	4313      	orreq	r3, r2
341898be:	f8c4 318c 	streq.w	r3, [r4, #396]	@ 0x18c
341898c2:	1c6b      	adds	r3, r5, #1
341898c4:	3502      	adds	r5, #2
341898c6:	6063      	str	r3, [r4, #4]
341898c8:	f844 7025 	str.w	r7, [r4, r5, lsl #2]
341898cc:	f7ff ff93 	bl	341897f6 <__retarget_lock_release_recursive>
341898d0:	2000      	movs	r0, #0
341898d2:	e7dd      	b.n	34189890 <__register_exitproc+0x34>
341898d4:	34180924 	.word	0x34180924
341898d8:	34180928 	.word	0x34180928
341898dc:	341806c4 	.word	0x341806c4

341898e0 <_init>:
341898e0:	b5f8      	push	{r3, r4, r5, r6, r7, lr}
341898e2:	bf00      	nop
341898e4:	bcf8      	pop	{r3, r4, r5, r6, r7}
341898e6:	bc08      	pop	{r3}
341898e8:	469e      	mov	lr, r3
341898ea:	4770      	bx	lr

341898ec <_fini>:
341898ec:	b5f8      	push	{r3, r4, r5, r6, r7, lr}
341898ee:	bf00      	nop
341898f0:	bcf8      	pop	{r3, r4, r5, r6, r7}
341898f2:	bc08      	pop	{r3}
341898f4:	469e      	mov	lr, r3
341898f6:	4770      	bx	lr
